
FRA421_Project_CM4.elf:     file format elf32-littlearm

Sections:
Idx Name          Size      VMA       LMA       File off  Algn
  0 .isr_vector   00000298  08100000  08100000  00010000  2**0
                  CONTENTS, ALLOC, LOAD, READONLY, DATA
  1 .text         00004e04  08100298  08100298  00010298  2**2
                  CONTENTS, ALLOC, LOAD, READONLY, CODE
  2 .rodata       00000018  0810509c  0810509c  0001509c  2**2
                  CONTENTS, ALLOC, LOAD, READONLY, DATA
  3 .init_array   00000004  081050b4  081050b4  000150b4  2**2
                  CONTENTS, ALLOC, LOAD, DATA
  4 .fini_array   00000004  081050b8  081050b8  000150b8  2**2
                  CONTENTS, ALLOC, LOAD, DATA
  5 .data         00000010  10000000  081050bc  00020000  2**2
                  CONTENTS, ALLOC, LOAD, DATA
  6 .bss          00000458  10000010  081050cc  00020010  2**2
                  ALLOC
  7 ._user_heap_stack 00000600  10000468  081050cc  00020468  2**0
                  ALLOC
  8 .ARM.attributes 00000030  00000000  00000000  00020010  2**0
                  CONTENTS, READONLY
  9 .debug_info   0000ed8a  00000000  00000000  00020040  2**0
                  CONTENTS, READONLY, DEBUGGING, OCTETS
 10 .debug_abbrev 00002065  00000000  00000000  0002edca  2**0
                  CONTENTS, READONLY, DEBUGGING, OCTETS
 11 .debug_aranges 00000a30  00000000  00000000  00030e30  2**3
                  CONTENTS, READONLY, DEBUGGING, OCTETS
 12 .debug_ranges 00000938  00000000  00000000  00031860  2**3
                  CONTENTS, READONLY, DEBUGGING, OCTETS
 13 .debug_macro  0003a57b  00000000  00000000  00032198  2**0
                  CONTENTS, READONLY, DEBUGGING, OCTETS
 14 .debug_line   0000e6cd  00000000  00000000  0006c713  2**0
                  CONTENTS, READONLY, DEBUGGING, OCTETS
 15 .debug_str    0017b6b9  00000000  00000000  0007ade0  2**0
                  CONTENTS, READONLY, DEBUGGING, OCTETS
 16 .comment      00000050  00000000  00000000  001f6499  2**0
                  CONTENTS, READONLY
 17 .debug_frame  000027e4  00000000  00000000  001f64ec  2**2
                  CONTENTS, READONLY, DEBUGGING, OCTETS

Disassembly of section .text:

08100298 <__do_global_dtors_aux>:
 8100298:	b510      	push	{r4, lr}
 810029a:	4c05      	ldr	r4, [pc, #20]	; (81002b0 <__do_global_dtors_aux+0x18>)
 810029c:	7823      	ldrb	r3, [r4, #0]
 810029e:	b933      	cbnz	r3, 81002ae <__do_global_dtors_aux+0x16>
 81002a0:	4b04      	ldr	r3, [pc, #16]	; (81002b4 <__do_global_dtors_aux+0x1c>)
 81002a2:	b113      	cbz	r3, 81002aa <__do_global_dtors_aux+0x12>
 81002a4:	4804      	ldr	r0, [pc, #16]	; (81002b8 <__do_global_dtors_aux+0x20>)
 81002a6:	f3af 8000 	nop.w
 81002aa:	2301      	movs	r3, #1
 81002ac:	7023      	strb	r3, [r4, #0]
 81002ae:	bd10      	pop	{r4, pc}
 81002b0:	10000010 	.word	0x10000010
 81002b4:	00000000 	.word	0x00000000
 81002b8:	08105084 	.word	0x08105084

081002bc <frame_dummy>:
 81002bc:	b508      	push	{r3, lr}
 81002be:	4b03      	ldr	r3, [pc, #12]	; (81002cc <frame_dummy+0x10>)
 81002c0:	b11b      	cbz	r3, 81002ca <frame_dummy+0xe>
 81002c2:	4903      	ldr	r1, [pc, #12]	; (81002d0 <frame_dummy+0x14>)
 81002c4:	4803      	ldr	r0, [pc, #12]	; (81002d4 <frame_dummy+0x18>)
 81002c6:	f3af 8000 	nop.w
 81002ca:	bd08      	pop	{r3, pc}
 81002cc:	00000000 	.word	0x00000000
 81002d0:	10000014 	.word	0x10000014
 81002d4:	08105084 	.word	0x08105084

081002d8 <SystemInit>:
  *         configuration.
  * @param  None
  * @retval None
  */
void SystemInit (void)
{
 81002d8:	b480      	push	{r7}
 81002da:	af00      	add	r7, sp, #0
  /* FPU settings ------------------------------------------------------------*/
  #if (__FPU_PRESENT == 1) && (__FPU_USED == 1)
    SCB->CPACR |= ((3UL << (10*2))|(3UL << (11*2)));  /* set CP10 and CP11 Full Access */
 81002dc:	4b09      	ldr	r3, [pc, #36]	; (8100304 <SystemInit+0x2c>)
 81002de:	f8d3 3088 	ldr.w	r3, [r3, #136]	; 0x88
 81002e2:	4a08      	ldr	r2, [pc, #32]	; (8100304 <SystemInit+0x2c>)
 81002e4:	f443 0370 	orr.w	r3, r3, #15728640	; 0xf00000
 81002e8:	f8c2 3088 	str.w	r3, [r2, #136]	; 0x88
  #endif

    /*SEVONPEND enabled so that an interrupt coming from the CPU(n) interrupt signal is
     detectable by the CPU after a WFI/WFE instruction.*/
 SCB->SCR |= SCB_SCR_SEVONPEND_Msk;
 81002ec:	4b05      	ldr	r3, [pc, #20]	; (8100304 <SystemInit+0x2c>)
 81002ee:	691b      	ldr	r3, [r3, #16]
 81002f0:	4a04      	ldr	r2, [pc, #16]	; (8100304 <SystemInit+0x2c>)
 81002f2:	f043 0310 	orr.w	r3, r3, #16
 81002f6:	6113      	str	r3, [r2, #16]
#endif /* USER_VECT_TAB_ADDRESS */

#else
#error Please #define CORE_CM4 or CORE_CM7
#endif /* CORE_CM4 */
}
 81002f8:	bf00      	nop
 81002fa:	46bd      	mov	sp, r7
 81002fc:	f85d 7b04 	ldr.w	r7, [sp], #4
 8100300:	4770      	bx	lr
 8100302:	bf00      	nop
 8100304:	e000ed00 	.word	0xe000ed00

08100308 <YUGIOH_card_register>:
#include "FRA421_Yugioh.h"
#include <stdlib.h>
#include <string.h>

void YUGIOH_card_register(RFIDHandle *rfidmain)
{
 8100308:	b480      	push	{r7}
 810030a:	b087      	sub	sp, #28
 810030c:	af00      	add	r7, sp, #0
 810030e:	6078      	str	r0, [r7, #4]
	RFID *ptrRFID = rfidmain->RFID;
 8100310:	687b      	ldr	r3, [r7, #4]
 8100312:	3328      	adds	r3, #40	; 0x28
 8100314:	617b      	str	r3, [r7, #20]
	//	ptrRFID += rfidmain->slaveNum;
	//	// PTR Card
	//	ptrCard = &ptrRFID->detectedCard;
	//	ptrYUGIOHCard = ptrRFID->bufferCard;

	ptrRFID = &rfidmain->RFID[rfidmain->slaveNum];
 8100316:	687b      	ldr	r3, [r7, #4]
 8100318:	881b      	ldrh	r3, [r3, #0]
 810031a:	461a      	mov	r2, r3
 810031c:	4613      	mov	r3, r2
 810031e:	005b      	lsls	r3, r3, #1
 8100320:	4413      	add	r3, r2
 8100322:	011b      	lsls	r3, r3, #4
 8100324:	3328      	adds	r3, #40	; 0x28
 8100326:	687a      	ldr	r2, [r7, #4]
 8100328:	4413      	add	r3, r2
 810032a:	617b      	str	r3, [r7, #20]
	ptrCard = &ptrRFID->detectedCard;
 810032c:	697b      	ldr	r3, [r7, #20]
 810032e:	3304      	adds	r3, #4
 8100330:	613b      	str	r3, [r7, #16]
	ptrYUGIOHCard = &ptrRFID->bufferCard;
 8100332:	697b      	ldr	r3, [r7, #20]
 8100334:	3310      	adds	r3, #16
 8100336:	60fb      	str	r3, [r7, #12]

	ptrYUGIOHCard->cardData = ptrCard->data;
 8100338:	693b      	ldr	r3, [r7, #16]
 810033a:	681a      	ldr	r2, [r3, #0]
 810033c:	68fb      	ldr	r3, [r7, #12]
 810033e:	605a      	str	r2, [r3, #4]
	ptrYUGIOHCard->cardSignature = 1 % 256;
 8100340:	68fb      	ldr	r3, [r7, #12]
 8100342:	2201      	movs	r2, #1
 8100344:	701a      	strb	r2, [r3, #0]
	ptrYUGIOHCard->cardState = 2 % 3;
 8100346:	68fb      	ldr	r3, [r7, #12]
 8100348:	2202      	movs	r2, #2
 810034a:	709a      	strb	r2, [r3, #2]
	ptrYUGIOHCard->cardType = 2 % 2;
 810034c:	68fb      	ldr	r3, [r7, #12]
 810034e:	2200      	movs	r2, #0
 8100350:	705a      	strb	r2, [r3, #1]

}
 8100352:	bf00      	nop
 8100354:	371c      	adds	r7, #28
 8100356:	46bd      	mov	sp, r7
 8100358:	f85d 7b04 	ldr.w	r7, [sp], #4
 810035c:	4770      	bx	lr
	...

08100360 <MC14515_Latch>:


#include "MC14515.h"

void MC14515_Latch(MC14515Handle *mc14515,uint16_t selected_output)
{
 8100360:	b580      	push	{r7, lr}
 8100362:	b082      	sub	sp, #8
 8100364:	af00      	add	r7, sp, #0
 8100366:	6078      	str	r0, [r7, #4]
 8100368:	460b      	mov	r3, r1
 810036a:	807b      	strh	r3, [r7, #2]

	switch (selected_output)
 810036c:	887b      	ldrh	r3, [r7, #2]
 810036e:	2b0f      	cmp	r3, #15
 8100370:	f200 8234 	bhi.w	81007dc <MC14515_Latch+0x47c>
 8100374:	a201      	add	r2, pc, #4	; (adr r2, 810037c <MC14515_Latch+0x1c>)
 8100376:	f852 f023 	ldr.w	pc, [r2, r3, lsl #2]
 810037a:	bf00      	nop
 810037c:	081003bd 	.word	0x081003bd
 8100380:	081003ff 	.word	0x081003ff
 8100384:	08100441 	.word	0x08100441
 8100388:	08100483 	.word	0x08100483
 810038c:	081004c5 	.word	0x081004c5
 8100390:	08100507 	.word	0x08100507
 8100394:	08100549 	.word	0x08100549
 8100398:	0810058b 	.word	0x0810058b
 810039c:	081005cd 	.word	0x081005cd
 81003a0:	0810060f 	.word	0x0810060f
 81003a4:	08100651 	.word	0x08100651
 81003a8:	08100693 	.word	0x08100693
 81003ac:	081006d5 	.word	0x081006d5
 81003b0:	08100717 	.word	0x08100717
 81003b4:	08100759 	.word	0x08100759
 81003b8:	0810079b 	.word	0x0810079b
	{
		case 0:
			// Set Data 0000
			HAL_GPIO_WritePin(mc14515->D1Port, mc14515->D1Pin, GPIO_PIN_RESET);
 81003bc:	687b      	ldr	r3, [r7, #4]
 81003be:	6898      	ldr	r0, [r3, #8]
 81003c0:	687b      	ldr	r3, [r7, #4]
 81003c2:	8b9b      	ldrh	r3, [r3, #28]
 81003c4:	2200      	movs	r2, #0
 81003c6:	4619      	mov	r1, r3
 81003c8:	f003 fbde 	bl	8103b88 <HAL_GPIO_WritePin>
			HAL_GPIO_WritePin(mc14515->D2Port, mc14515->D2Pin, GPIO_PIN_RESET);
 81003cc:	687b      	ldr	r3, [r7, #4]
 81003ce:	68d8      	ldr	r0, [r3, #12]
 81003d0:	687b      	ldr	r3, [r7, #4]
 81003d2:	8bdb      	ldrh	r3, [r3, #30]
 81003d4:	2200      	movs	r2, #0
 81003d6:	4619      	mov	r1, r3
 81003d8:	f003 fbd6 	bl	8103b88 <HAL_GPIO_WritePin>
			HAL_GPIO_WritePin(mc14515->D3Port, mc14515->D3Pin, GPIO_PIN_RESET);
 81003dc:	687b      	ldr	r3, [r7, #4]
 81003de:	6918      	ldr	r0, [r3, #16]
 81003e0:	687b      	ldr	r3, [r7, #4]
 81003e2:	8c1b      	ldrh	r3, [r3, #32]
 81003e4:	2200      	movs	r2, #0
 81003e6:	4619      	mov	r1, r3
 81003e8:	f003 fbce 	bl	8103b88 <HAL_GPIO_WritePin>
			HAL_GPIO_WritePin(mc14515->D4Port, mc14515->D4Pin, GPIO_PIN_RESET);
 81003ec:	687b      	ldr	r3, [r7, #4]
 81003ee:	6958      	ldr	r0, [r3, #20]
 81003f0:	687b      	ldr	r3, [r7, #4]
 81003f2:	8c5b      	ldrh	r3, [r3, #34]	; 0x22
 81003f4:	2200      	movs	r2, #0
 81003f6:	4619      	mov	r1, r3
 81003f8:	f003 fbc6 	bl	8103b88 <HAL_GPIO_WritePin>
			break;
 81003fc:	e1ee      	b.n	81007dc <MC14515_Latch+0x47c>
		case 1:
			// Set Data 0001
			HAL_GPIO_WritePin(mc14515->D1Port, mc14515->D1Pin, GPIO_PIN_SET);
 81003fe:	687b      	ldr	r3, [r7, #4]
 8100400:	6898      	ldr	r0, [r3, #8]
 8100402:	687b      	ldr	r3, [r7, #4]
 8100404:	8b9b      	ldrh	r3, [r3, #28]
 8100406:	2201      	movs	r2, #1
 8100408:	4619      	mov	r1, r3
 810040a:	f003 fbbd 	bl	8103b88 <HAL_GPIO_WritePin>
			HAL_GPIO_WritePin(mc14515->D2Port, mc14515->D2Pin, GPIO_PIN_RESET);
 810040e:	687b      	ldr	r3, [r7, #4]
 8100410:	68d8      	ldr	r0, [r3, #12]
 8100412:	687b      	ldr	r3, [r7, #4]
 8100414:	8bdb      	ldrh	r3, [r3, #30]
 8100416:	2200      	movs	r2, #0
 8100418:	4619      	mov	r1, r3
 810041a:	f003 fbb5 	bl	8103b88 <HAL_GPIO_WritePin>
			HAL_GPIO_WritePin(mc14515->D3Port, mc14515->D3Pin, GPIO_PIN_RESET);
 810041e:	687b      	ldr	r3, [r7, #4]
 8100420:	6918      	ldr	r0, [r3, #16]
 8100422:	687b      	ldr	r3, [r7, #4]
 8100424:	8c1b      	ldrh	r3, [r3, #32]
 8100426:	2200      	movs	r2, #0
 8100428:	4619      	mov	r1, r3
 810042a:	f003 fbad 	bl	8103b88 <HAL_GPIO_WritePin>
			HAL_GPIO_WritePin(mc14515->D4Port, mc14515->D4Pin, GPIO_PIN_RESET);
 810042e:	687b      	ldr	r3, [r7, #4]
 8100430:	6958      	ldr	r0, [r3, #20]
 8100432:	687b      	ldr	r3, [r7, #4]
 8100434:	8c5b      	ldrh	r3, [r3, #34]	; 0x22
 8100436:	2200      	movs	r2, #0
 8100438:	4619      	mov	r1, r3
 810043a:	f003 fba5 	bl	8103b88 <HAL_GPIO_WritePin>
			break;
 810043e:	e1cd      	b.n	81007dc <MC14515_Latch+0x47c>
		case 2:
			// Set Data 0010
			HAL_GPIO_WritePin(mc14515->D1Port, mc14515->D1Pin, GPIO_PIN_RESET);
 8100440:	687b      	ldr	r3, [r7, #4]
 8100442:	6898      	ldr	r0, [r3, #8]
 8100444:	687b      	ldr	r3, [r7, #4]
 8100446:	8b9b      	ldrh	r3, [r3, #28]
 8100448:	2200      	movs	r2, #0
 810044a:	4619      	mov	r1, r3
 810044c:	f003 fb9c 	bl	8103b88 <HAL_GPIO_WritePin>
			HAL_GPIO_WritePin(mc14515->D2Port, mc14515->D2Pin, GPIO_PIN_SET);
 8100450:	687b      	ldr	r3, [r7, #4]
 8100452:	68d8      	ldr	r0, [r3, #12]
 8100454:	687b      	ldr	r3, [r7, #4]
 8100456:	8bdb      	ldrh	r3, [r3, #30]
 8100458:	2201      	movs	r2, #1
 810045a:	4619      	mov	r1, r3
 810045c:	f003 fb94 	bl	8103b88 <HAL_GPIO_WritePin>
			HAL_GPIO_WritePin(mc14515->D3Port, mc14515->D3Pin, GPIO_PIN_RESET);
 8100460:	687b      	ldr	r3, [r7, #4]
 8100462:	6918      	ldr	r0, [r3, #16]
 8100464:	687b      	ldr	r3, [r7, #4]
 8100466:	8c1b      	ldrh	r3, [r3, #32]
 8100468:	2200      	movs	r2, #0
 810046a:	4619      	mov	r1, r3
 810046c:	f003 fb8c 	bl	8103b88 <HAL_GPIO_WritePin>
			HAL_GPIO_WritePin(mc14515->D4Port, mc14515->D4Pin, GPIO_PIN_RESET);
 8100470:	687b      	ldr	r3, [r7, #4]
 8100472:	6958      	ldr	r0, [r3, #20]
 8100474:	687b      	ldr	r3, [r7, #4]
 8100476:	8c5b      	ldrh	r3, [r3, #34]	; 0x22
 8100478:	2200      	movs	r2, #0
 810047a:	4619      	mov	r1, r3
 810047c:	f003 fb84 	bl	8103b88 <HAL_GPIO_WritePin>
			break;
 8100480:	e1ac      	b.n	81007dc <MC14515_Latch+0x47c>
		case 3:
			// Set Data 0011
			HAL_GPIO_WritePin(mc14515->D1Port, mc14515->D1Pin, GPIO_PIN_SET);
 8100482:	687b      	ldr	r3, [r7, #4]
 8100484:	6898      	ldr	r0, [r3, #8]
 8100486:	687b      	ldr	r3, [r7, #4]
 8100488:	8b9b      	ldrh	r3, [r3, #28]
 810048a:	2201      	movs	r2, #1
 810048c:	4619      	mov	r1, r3
 810048e:	f003 fb7b 	bl	8103b88 <HAL_GPIO_WritePin>
			HAL_GPIO_WritePin(mc14515->D2Port, mc14515->D2Pin, GPIO_PIN_SET);
 8100492:	687b      	ldr	r3, [r7, #4]
 8100494:	68d8      	ldr	r0, [r3, #12]
 8100496:	687b      	ldr	r3, [r7, #4]
 8100498:	8bdb      	ldrh	r3, [r3, #30]
 810049a:	2201      	movs	r2, #1
 810049c:	4619      	mov	r1, r3
 810049e:	f003 fb73 	bl	8103b88 <HAL_GPIO_WritePin>
			HAL_GPIO_WritePin(mc14515->D3Port, mc14515->D3Pin, GPIO_PIN_RESET);
 81004a2:	687b      	ldr	r3, [r7, #4]
 81004a4:	6918      	ldr	r0, [r3, #16]
 81004a6:	687b      	ldr	r3, [r7, #4]
 81004a8:	8c1b      	ldrh	r3, [r3, #32]
 81004aa:	2200      	movs	r2, #0
 81004ac:	4619      	mov	r1, r3
 81004ae:	f003 fb6b 	bl	8103b88 <HAL_GPIO_WritePin>
			HAL_GPIO_WritePin(mc14515->D4Port, mc14515->D4Pin, GPIO_PIN_RESET);
 81004b2:	687b      	ldr	r3, [r7, #4]
 81004b4:	6958      	ldr	r0, [r3, #20]
 81004b6:	687b      	ldr	r3, [r7, #4]
 81004b8:	8c5b      	ldrh	r3, [r3, #34]	; 0x22
 81004ba:	2200      	movs	r2, #0
 81004bc:	4619      	mov	r1, r3
 81004be:	f003 fb63 	bl	8103b88 <HAL_GPIO_WritePin>
			break;
 81004c2:	e18b      	b.n	81007dc <MC14515_Latch+0x47c>
		case 4:
			// Set Data 0100
			HAL_GPIO_WritePin(mc14515->D1Port, mc14515->D1Pin, GPIO_PIN_RESET);
 81004c4:	687b      	ldr	r3, [r7, #4]
 81004c6:	6898      	ldr	r0, [r3, #8]
 81004c8:	687b      	ldr	r3, [r7, #4]
 81004ca:	8b9b      	ldrh	r3, [r3, #28]
 81004cc:	2200      	movs	r2, #0
 81004ce:	4619      	mov	r1, r3
 81004d0:	f003 fb5a 	bl	8103b88 <HAL_GPIO_WritePin>
			HAL_GPIO_WritePin(mc14515->D2Port, mc14515->D2Pin, GPIO_PIN_RESET);
 81004d4:	687b      	ldr	r3, [r7, #4]
 81004d6:	68d8      	ldr	r0, [r3, #12]
 81004d8:	687b      	ldr	r3, [r7, #4]
 81004da:	8bdb      	ldrh	r3, [r3, #30]
 81004dc:	2200      	movs	r2, #0
 81004de:	4619      	mov	r1, r3
 81004e0:	f003 fb52 	bl	8103b88 <HAL_GPIO_WritePin>
			HAL_GPIO_WritePin(mc14515->D3Port, mc14515->D3Pin, GPIO_PIN_SET);
 81004e4:	687b      	ldr	r3, [r7, #4]
 81004e6:	6918      	ldr	r0, [r3, #16]
 81004e8:	687b      	ldr	r3, [r7, #4]
 81004ea:	8c1b      	ldrh	r3, [r3, #32]
 81004ec:	2201      	movs	r2, #1
 81004ee:	4619      	mov	r1, r3
 81004f0:	f003 fb4a 	bl	8103b88 <HAL_GPIO_WritePin>
			HAL_GPIO_WritePin(mc14515->D4Port, mc14515->D4Pin, GPIO_PIN_RESET);
 81004f4:	687b      	ldr	r3, [r7, #4]
 81004f6:	6958      	ldr	r0, [r3, #20]
 81004f8:	687b      	ldr	r3, [r7, #4]
 81004fa:	8c5b      	ldrh	r3, [r3, #34]	; 0x22
 81004fc:	2200      	movs	r2, #0
 81004fe:	4619      	mov	r1, r3
 8100500:	f003 fb42 	bl	8103b88 <HAL_GPIO_WritePin>
			break;
 8100504:	e16a      	b.n	81007dc <MC14515_Latch+0x47c>
		case 5:
			// Set Data 0101
			HAL_GPIO_WritePin(mc14515->D1Port, mc14515->D1Pin, GPIO_PIN_SET);
 8100506:	687b      	ldr	r3, [r7, #4]
 8100508:	6898      	ldr	r0, [r3, #8]
 810050a:	687b      	ldr	r3, [r7, #4]
 810050c:	8b9b      	ldrh	r3, [r3, #28]
 810050e:	2201      	movs	r2, #1
 8100510:	4619      	mov	r1, r3
 8100512:	f003 fb39 	bl	8103b88 <HAL_GPIO_WritePin>
			HAL_GPIO_WritePin(mc14515->D2Port, mc14515->D2Pin, GPIO_PIN_RESET);
 8100516:	687b      	ldr	r3, [r7, #4]
 8100518:	68d8      	ldr	r0, [r3, #12]
 810051a:	687b      	ldr	r3, [r7, #4]
 810051c:	8bdb      	ldrh	r3, [r3, #30]
 810051e:	2200      	movs	r2, #0
 8100520:	4619      	mov	r1, r3
 8100522:	f003 fb31 	bl	8103b88 <HAL_GPIO_WritePin>
			HAL_GPIO_WritePin(mc14515->D3Port, mc14515->D3Pin, GPIO_PIN_SET);
 8100526:	687b      	ldr	r3, [r7, #4]
 8100528:	6918      	ldr	r0, [r3, #16]
 810052a:	687b      	ldr	r3, [r7, #4]
 810052c:	8c1b      	ldrh	r3, [r3, #32]
 810052e:	2201      	movs	r2, #1
 8100530:	4619      	mov	r1, r3
 8100532:	f003 fb29 	bl	8103b88 <HAL_GPIO_WritePin>
			HAL_GPIO_WritePin(mc14515->D4Port, mc14515->D4Pin, GPIO_PIN_RESET);
 8100536:	687b      	ldr	r3, [r7, #4]
 8100538:	6958      	ldr	r0, [r3, #20]
 810053a:	687b      	ldr	r3, [r7, #4]
 810053c:	8c5b      	ldrh	r3, [r3, #34]	; 0x22
 810053e:	2200      	movs	r2, #0
 8100540:	4619      	mov	r1, r3
 8100542:	f003 fb21 	bl	8103b88 <HAL_GPIO_WritePin>
			break;
 8100546:	e149      	b.n	81007dc <MC14515_Latch+0x47c>
		case 6:
			// Set Data 0110
			HAL_GPIO_WritePin(mc14515->D1Port, mc14515->D1Pin, GPIO_PIN_RESET);
 8100548:	687b      	ldr	r3, [r7, #4]
 810054a:	6898      	ldr	r0, [r3, #8]
 810054c:	687b      	ldr	r3, [r7, #4]
 810054e:	8b9b      	ldrh	r3, [r3, #28]
 8100550:	2200      	movs	r2, #0
 8100552:	4619      	mov	r1, r3
 8100554:	f003 fb18 	bl	8103b88 <HAL_GPIO_WritePin>
			HAL_GPIO_WritePin(mc14515->D2Port, mc14515->D2Pin, GPIO_PIN_SET);
 8100558:	687b      	ldr	r3, [r7, #4]
 810055a:	68d8      	ldr	r0, [r3, #12]
 810055c:	687b      	ldr	r3, [r7, #4]
 810055e:	8bdb      	ldrh	r3, [r3, #30]
 8100560:	2201      	movs	r2, #1
 8100562:	4619      	mov	r1, r3
 8100564:	f003 fb10 	bl	8103b88 <HAL_GPIO_WritePin>
			HAL_GPIO_WritePin(mc14515->D3Port, mc14515->D3Pin, GPIO_PIN_SET);
 8100568:	687b      	ldr	r3, [r7, #4]
 810056a:	6918      	ldr	r0, [r3, #16]
 810056c:	687b      	ldr	r3, [r7, #4]
 810056e:	8c1b      	ldrh	r3, [r3, #32]
 8100570:	2201      	movs	r2, #1
 8100572:	4619      	mov	r1, r3
 8100574:	f003 fb08 	bl	8103b88 <HAL_GPIO_WritePin>
			HAL_GPIO_WritePin(mc14515->D4Port, mc14515->D4Pin, GPIO_PIN_RESET);
 8100578:	687b      	ldr	r3, [r7, #4]
 810057a:	6958      	ldr	r0, [r3, #20]
 810057c:	687b      	ldr	r3, [r7, #4]
 810057e:	8c5b      	ldrh	r3, [r3, #34]	; 0x22
 8100580:	2200      	movs	r2, #0
 8100582:	4619      	mov	r1, r3
 8100584:	f003 fb00 	bl	8103b88 <HAL_GPIO_WritePin>
			break;
 8100588:	e128      	b.n	81007dc <MC14515_Latch+0x47c>
		case 7:
			// Set Data 0111
			HAL_GPIO_WritePin(mc14515->D1Port, mc14515->D1Pin, GPIO_PIN_SET);
 810058a:	687b      	ldr	r3, [r7, #4]
 810058c:	6898      	ldr	r0, [r3, #8]
 810058e:	687b      	ldr	r3, [r7, #4]
 8100590:	8b9b      	ldrh	r3, [r3, #28]
 8100592:	2201      	movs	r2, #1
 8100594:	4619      	mov	r1, r3
 8100596:	f003 faf7 	bl	8103b88 <HAL_GPIO_WritePin>
			HAL_GPIO_WritePin(mc14515->D2Port, mc14515->D2Pin, GPIO_PIN_SET);
 810059a:	687b      	ldr	r3, [r7, #4]
 810059c:	68d8      	ldr	r0, [r3, #12]
 810059e:	687b      	ldr	r3, [r7, #4]
 81005a0:	8bdb      	ldrh	r3, [r3, #30]
 81005a2:	2201      	movs	r2, #1
 81005a4:	4619      	mov	r1, r3
 81005a6:	f003 faef 	bl	8103b88 <HAL_GPIO_WritePin>
			HAL_GPIO_WritePin(mc14515->D3Port, mc14515->D3Pin, GPIO_PIN_SET);
 81005aa:	687b      	ldr	r3, [r7, #4]
 81005ac:	6918      	ldr	r0, [r3, #16]
 81005ae:	687b      	ldr	r3, [r7, #4]
 81005b0:	8c1b      	ldrh	r3, [r3, #32]
 81005b2:	2201      	movs	r2, #1
 81005b4:	4619      	mov	r1, r3
 81005b6:	f003 fae7 	bl	8103b88 <HAL_GPIO_WritePin>
			HAL_GPIO_WritePin(mc14515->D4Port, mc14515->D4Pin, GPIO_PIN_RESET);
 81005ba:	687b      	ldr	r3, [r7, #4]
 81005bc:	6958      	ldr	r0, [r3, #20]
 81005be:	687b      	ldr	r3, [r7, #4]
 81005c0:	8c5b      	ldrh	r3, [r3, #34]	; 0x22
 81005c2:	2200      	movs	r2, #0
 81005c4:	4619      	mov	r1, r3
 81005c6:	f003 fadf 	bl	8103b88 <HAL_GPIO_WritePin>
			break;
 81005ca:	e107      	b.n	81007dc <MC14515_Latch+0x47c>
		case 8:
			// Set Data 1000
			HAL_GPIO_WritePin(mc14515->D1Port, mc14515->D1Pin, GPIO_PIN_RESET);
 81005cc:	687b      	ldr	r3, [r7, #4]
 81005ce:	6898      	ldr	r0, [r3, #8]
 81005d0:	687b      	ldr	r3, [r7, #4]
 81005d2:	8b9b      	ldrh	r3, [r3, #28]
 81005d4:	2200      	movs	r2, #0
 81005d6:	4619      	mov	r1, r3
 81005d8:	f003 fad6 	bl	8103b88 <HAL_GPIO_WritePin>
			HAL_GPIO_WritePin(mc14515->D2Port, mc14515->D2Pin, GPIO_PIN_RESET);
 81005dc:	687b      	ldr	r3, [r7, #4]
 81005de:	68d8      	ldr	r0, [r3, #12]
 81005e0:	687b      	ldr	r3, [r7, #4]
 81005e2:	8bdb      	ldrh	r3, [r3, #30]
 81005e4:	2200      	movs	r2, #0
 81005e6:	4619      	mov	r1, r3
 81005e8:	f003 face 	bl	8103b88 <HAL_GPIO_WritePin>
			HAL_GPIO_WritePin(mc14515->D3Port, mc14515->D3Pin, GPIO_PIN_RESET);
 81005ec:	687b      	ldr	r3, [r7, #4]
 81005ee:	6918      	ldr	r0, [r3, #16]
 81005f0:	687b      	ldr	r3, [r7, #4]
 81005f2:	8c1b      	ldrh	r3, [r3, #32]
 81005f4:	2200      	movs	r2, #0
 81005f6:	4619      	mov	r1, r3
 81005f8:	f003 fac6 	bl	8103b88 <HAL_GPIO_WritePin>
			HAL_GPIO_WritePin(mc14515->D4Port, mc14515->D4Pin, GPIO_PIN_SET);
 81005fc:	687b      	ldr	r3, [r7, #4]
 81005fe:	6958      	ldr	r0, [r3, #20]
 8100600:	687b      	ldr	r3, [r7, #4]
 8100602:	8c5b      	ldrh	r3, [r3, #34]	; 0x22
 8100604:	2201      	movs	r2, #1
 8100606:	4619      	mov	r1, r3
 8100608:	f003 fabe 	bl	8103b88 <HAL_GPIO_WritePin>
			break;
 810060c:	e0e6      	b.n	81007dc <MC14515_Latch+0x47c>
		case 9:
			// Set Data 1001
			HAL_GPIO_WritePin(mc14515->D1Port, mc14515->D1Pin, GPIO_PIN_SET);
 810060e:	687b      	ldr	r3, [r7, #4]
 8100610:	6898      	ldr	r0, [r3, #8]
 8100612:	687b      	ldr	r3, [r7, #4]
 8100614:	8b9b      	ldrh	r3, [r3, #28]
 8100616:	2201      	movs	r2, #1
 8100618:	4619      	mov	r1, r3
 810061a:	f003 fab5 	bl	8103b88 <HAL_GPIO_WritePin>
			HAL_GPIO_WritePin(mc14515->D2Port, mc14515->D2Pin, GPIO_PIN_RESET);
 810061e:	687b      	ldr	r3, [r7, #4]
 8100620:	68d8      	ldr	r0, [r3, #12]
 8100622:	687b      	ldr	r3, [r7, #4]
 8100624:	8bdb      	ldrh	r3, [r3, #30]
 8100626:	2200      	movs	r2, #0
 8100628:	4619      	mov	r1, r3
 810062a:	f003 faad 	bl	8103b88 <HAL_GPIO_WritePin>
			HAL_GPIO_WritePin(mc14515->D3Port, mc14515->D3Pin, GPIO_PIN_RESET);
 810062e:	687b      	ldr	r3, [r7, #4]
 8100630:	6918      	ldr	r0, [r3, #16]
 8100632:	687b      	ldr	r3, [r7, #4]
 8100634:	8c1b      	ldrh	r3, [r3, #32]
 8100636:	2200      	movs	r2, #0
 8100638:	4619      	mov	r1, r3
 810063a:	f003 faa5 	bl	8103b88 <HAL_GPIO_WritePin>
			HAL_GPIO_WritePin(mc14515->D4Port, mc14515->D4Pin, GPIO_PIN_SET);
 810063e:	687b      	ldr	r3, [r7, #4]
 8100640:	6958      	ldr	r0, [r3, #20]
 8100642:	687b      	ldr	r3, [r7, #4]
 8100644:	8c5b      	ldrh	r3, [r3, #34]	; 0x22
 8100646:	2201      	movs	r2, #1
 8100648:	4619      	mov	r1, r3
 810064a:	f003 fa9d 	bl	8103b88 <HAL_GPIO_WritePin>
			break;
 810064e:	e0c5      	b.n	81007dc <MC14515_Latch+0x47c>
		case 10:
			// Set Data 1010
			HAL_GPIO_WritePin(mc14515->D1Port, mc14515->D1Pin, GPIO_PIN_RESET);
 8100650:	687b      	ldr	r3, [r7, #4]
 8100652:	6898      	ldr	r0, [r3, #8]
 8100654:	687b      	ldr	r3, [r7, #4]
 8100656:	8b9b      	ldrh	r3, [r3, #28]
 8100658:	2200      	movs	r2, #0
 810065a:	4619      	mov	r1, r3
 810065c:	f003 fa94 	bl	8103b88 <HAL_GPIO_WritePin>
			HAL_GPIO_WritePin(mc14515->D2Port, mc14515->D2Pin, GPIO_PIN_SET);
 8100660:	687b      	ldr	r3, [r7, #4]
 8100662:	68d8      	ldr	r0, [r3, #12]
 8100664:	687b      	ldr	r3, [r7, #4]
 8100666:	8bdb      	ldrh	r3, [r3, #30]
 8100668:	2201      	movs	r2, #1
 810066a:	4619      	mov	r1, r3
 810066c:	f003 fa8c 	bl	8103b88 <HAL_GPIO_WritePin>
			HAL_GPIO_WritePin(mc14515->D3Port, mc14515->D3Pin, GPIO_PIN_RESET);
 8100670:	687b      	ldr	r3, [r7, #4]
 8100672:	6918      	ldr	r0, [r3, #16]
 8100674:	687b      	ldr	r3, [r7, #4]
 8100676:	8c1b      	ldrh	r3, [r3, #32]
 8100678:	2200      	movs	r2, #0
 810067a:	4619      	mov	r1, r3
 810067c:	f003 fa84 	bl	8103b88 <HAL_GPIO_WritePin>
			HAL_GPIO_WritePin(mc14515->D4Port, mc14515->D4Pin, GPIO_PIN_SET);
 8100680:	687b      	ldr	r3, [r7, #4]
 8100682:	6958      	ldr	r0, [r3, #20]
 8100684:	687b      	ldr	r3, [r7, #4]
 8100686:	8c5b      	ldrh	r3, [r3, #34]	; 0x22
 8100688:	2201      	movs	r2, #1
 810068a:	4619      	mov	r1, r3
 810068c:	f003 fa7c 	bl	8103b88 <HAL_GPIO_WritePin>
			break;
 8100690:	e0a4      	b.n	81007dc <MC14515_Latch+0x47c>
		case 11:
			// Set Data 1011
			HAL_GPIO_WritePin(mc14515->D1Port, mc14515->D1Pin, GPIO_PIN_SET);
 8100692:	687b      	ldr	r3, [r7, #4]
 8100694:	6898      	ldr	r0, [r3, #8]
 8100696:	687b      	ldr	r3, [r7, #4]
 8100698:	8b9b      	ldrh	r3, [r3, #28]
 810069a:	2201      	movs	r2, #1
 810069c:	4619      	mov	r1, r3
 810069e:	f003 fa73 	bl	8103b88 <HAL_GPIO_WritePin>
			HAL_GPIO_WritePin(mc14515->D2Port, mc14515->D2Pin, GPIO_PIN_SET);
 81006a2:	687b      	ldr	r3, [r7, #4]
 81006a4:	68d8      	ldr	r0, [r3, #12]
 81006a6:	687b      	ldr	r3, [r7, #4]
 81006a8:	8bdb      	ldrh	r3, [r3, #30]
 81006aa:	2201      	movs	r2, #1
 81006ac:	4619      	mov	r1, r3
 81006ae:	f003 fa6b 	bl	8103b88 <HAL_GPIO_WritePin>
			HAL_GPIO_WritePin(mc14515->D3Port, mc14515->D3Pin, GPIO_PIN_RESET);
 81006b2:	687b      	ldr	r3, [r7, #4]
 81006b4:	6918      	ldr	r0, [r3, #16]
 81006b6:	687b      	ldr	r3, [r7, #4]
 81006b8:	8c1b      	ldrh	r3, [r3, #32]
 81006ba:	2200      	movs	r2, #0
 81006bc:	4619      	mov	r1, r3
 81006be:	f003 fa63 	bl	8103b88 <HAL_GPIO_WritePin>
			HAL_GPIO_WritePin(mc14515->D4Port, mc14515->D4Pin, GPIO_PIN_SET);
 81006c2:	687b      	ldr	r3, [r7, #4]
 81006c4:	6958      	ldr	r0, [r3, #20]
 81006c6:	687b      	ldr	r3, [r7, #4]
 81006c8:	8c5b      	ldrh	r3, [r3, #34]	; 0x22
 81006ca:	2201      	movs	r2, #1
 81006cc:	4619      	mov	r1, r3
 81006ce:	f003 fa5b 	bl	8103b88 <HAL_GPIO_WritePin>
			break;
 81006d2:	e083      	b.n	81007dc <MC14515_Latch+0x47c>
		case 12:
			// Set Data 1100
			HAL_GPIO_WritePin(mc14515->D1Port, mc14515->D1Pin, GPIO_PIN_RESET);
 81006d4:	687b      	ldr	r3, [r7, #4]
 81006d6:	6898      	ldr	r0, [r3, #8]
 81006d8:	687b      	ldr	r3, [r7, #4]
 81006da:	8b9b      	ldrh	r3, [r3, #28]
 81006dc:	2200      	movs	r2, #0
 81006de:	4619      	mov	r1, r3
 81006e0:	f003 fa52 	bl	8103b88 <HAL_GPIO_WritePin>
			HAL_GPIO_WritePin(mc14515->D2Port, mc14515->D2Pin, GPIO_PIN_RESET);
 81006e4:	687b      	ldr	r3, [r7, #4]
 81006e6:	68d8      	ldr	r0, [r3, #12]
 81006e8:	687b      	ldr	r3, [r7, #4]
 81006ea:	8bdb      	ldrh	r3, [r3, #30]
 81006ec:	2200      	movs	r2, #0
 81006ee:	4619      	mov	r1, r3
 81006f0:	f003 fa4a 	bl	8103b88 <HAL_GPIO_WritePin>
			HAL_GPIO_WritePin(mc14515->D3Port, mc14515->D3Pin, GPIO_PIN_SET);
 81006f4:	687b      	ldr	r3, [r7, #4]
 81006f6:	6918      	ldr	r0, [r3, #16]
 81006f8:	687b      	ldr	r3, [r7, #4]
 81006fa:	8c1b      	ldrh	r3, [r3, #32]
 81006fc:	2201      	movs	r2, #1
 81006fe:	4619      	mov	r1, r3
 8100700:	f003 fa42 	bl	8103b88 <HAL_GPIO_WritePin>
			HAL_GPIO_WritePin(mc14515->D4Port, mc14515->D4Pin, GPIO_PIN_SET);
 8100704:	687b      	ldr	r3, [r7, #4]
 8100706:	6958      	ldr	r0, [r3, #20]
 8100708:	687b      	ldr	r3, [r7, #4]
 810070a:	8c5b      	ldrh	r3, [r3, #34]	; 0x22
 810070c:	2201      	movs	r2, #1
 810070e:	4619      	mov	r1, r3
 8100710:	f003 fa3a 	bl	8103b88 <HAL_GPIO_WritePin>
			break;
 8100714:	e062      	b.n	81007dc <MC14515_Latch+0x47c>
		case 13:
			// Set Data 1101
			HAL_GPIO_WritePin(mc14515->D1Port, mc14515->D1Pin, GPIO_PIN_SET);
 8100716:	687b      	ldr	r3, [r7, #4]
 8100718:	6898      	ldr	r0, [r3, #8]
 810071a:	687b      	ldr	r3, [r7, #4]
 810071c:	8b9b      	ldrh	r3, [r3, #28]
 810071e:	2201      	movs	r2, #1
 8100720:	4619      	mov	r1, r3
 8100722:	f003 fa31 	bl	8103b88 <HAL_GPIO_WritePin>
			HAL_GPIO_WritePin(mc14515->D2Port, mc14515->D2Pin, GPIO_PIN_RESET);
 8100726:	687b      	ldr	r3, [r7, #4]
 8100728:	68d8      	ldr	r0, [r3, #12]
 810072a:	687b      	ldr	r3, [r7, #4]
 810072c:	8bdb      	ldrh	r3, [r3, #30]
 810072e:	2200      	movs	r2, #0
 8100730:	4619      	mov	r1, r3
 8100732:	f003 fa29 	bl	8103b88 <HAL_GPIO_WritePin>
			HAL_GPIO_WritePin(mc14515->D3Port, mc14515->D3Pin, GPIO_PIN_SET);
 8100736:	687b      	ldr	r3, [r7, #4]
 8100738:	6918      	ldr	r0, [r3, #16]
 810073a:	687b      	ldr	r3, [r7, #4]
 810073c:	8c1b      	ldrh	r3, [r3, #32]
 810073e:	2201      	movs	r2, #1
 8100740:	4619      	mov	r1, r3
 8100742:	f003 fa21 	bl	8103b88 <HAL_GPIO_WritePin>
			HAL_GPIO_WritePin(mc14515->D4Port, mc14515->D4Pin, GPIO_PIN_SET);
 8100746:	687b      	ldr	r3, [r7, #4]
 8100748:	6958      	ldr	r0, [r3, #20]
 810074a:	687b      	ldr	r3, [r7, #4]
 810074c:	8c5b      	ldrh	r3, [r3, #34]	; 0x22
 810074e:	2201      	movs	r2, #1
 8100750:	4619      	mov	r1, r3
 8100752:	f003 fa19 	bl	8103b88 <HAL_GPIO_WritePin>
			break;
 8100756:	e041      	b.n	81007dc <MC14515_Latch+0x47c>
		case 14:
			// Set Data 1110
			HAL_GPIO_WritePin(mc14515->D1Port, mc14515->D1Pin, GPIO_PIN_SET);
 8100758:	687b      	ldr	r3, [r7, #4]
 810075a:	6898      	ldr	r0, [r3, #8]
 810075c:	687b      	ldr	r3, [r7, #4]
 810075e:	8b9b      	ldrh	r3, [r3, #28]
 8100760:	2201      	movs	r2, #1
 8100762:	4619      	mov	r1, r3
 8100764:	f003 fa10 	bl	8103b88 <HAL_GPIO_WritePin>
			HAL_GPIO_WritePin(mc14515->D2Port, mc14515->D2Pin, GPIO_PIN_SET);
 8100768:	687b      	ldr	r3, [r7, #4]
 810076a:	68d8      	ldr	r0, [r3, #12]
 810076c:	687b      	ldr	r3, [r7, #4]
 810076e:	8bdb      	ldrh	r3, [r3, #30]
 8100770:	2201      	movs	r2, #1
 8100772:	4619      	mov	r1, r3
 8100774:	f003 fa08 	bl	8103b88 <HAL_GPIO_WritePin>
			HAL_GPIO_WritePin(mc14515->D3Port, mc14515->D3Pin, GPIO_PIN_SET);
 8100778:	687b      	ldr	r3, [r7, #4]
 810077a:	6918      	ldr	r0, [r3, #16]
 810077c:	687b      	ldr	r3, [r7, #4]
 810077e:	8c1b      	ldrh	r3, [r3, #32]
 8100780:	2201      	movs	r2, #1
 8100782:	4619      	mov	r1, r3
 8100784:	f003 fa00 	bl	8103b88 <HAL_GPIO_WritePin>
			HAL_GPIO_WritePin(mc14515->D4Port, mc14515->D4Pin, GPIO_PIN_SET);
 8100788:	687b      	ldr	r3, [r7, #4]
 810078a:	6958      	ldr	r0, [r3, #20]
 810078c:	687b      	ldr	r3, [r7, #4]
 810078e:	8c5b      	ldrh	r3, [r3, #34]	; 0x22
 8100790:	2201      	movs	r2, #1
 8100792:	4619      	mov	r1, r3
 8100794:	f003 f9f8 	bl	8103b88 <HAL_GPIO_WritePin>
			break;
 8100798:	e020      	b.n	81007dc <MC14515_Latch+0x47c>
		case 15:
			// Set Data 1111
			HAL_GPIO_WritePin(mc14515->D1Port, mc14515->D1Pin, GPIO_PIN_SET);
 810079a:	687b      	ldr	r3, [r7, #4]
 810079c:	6898      	ldr	r0, [r3, #8]
 810079e:	687b      	ldr	r3, [r7, #4]
 81007a0:	8b9b      	ldrh	r3, [r3, #28]
 81007a2:	2201      	movs	r2, #1
 81007a4:	4619      	mov	r1, r3
 81007a6:	f003 f9ef 	bl	8103b88 <HAL_GPIO_WritePin>
			HAL_GPIO_WritePin(mc14515->D2Port, mc14515->D2Pin, GPIO_PIN_SET);
 81007aa:	687b      	ldr	r3, [r7, #4]
 81007ac:	68d8      	ldr	r0, [r3, #12]
 81007ae:	687b      	ldr	r3, [r7, #4]
 81007b0:	8bdb      	ldrh	r3, [r3, #30]
 81007b2:	2201      	movs	r2, #1
 81007b4:	4619      	mov	r1, r3
 81007b6:	f003 f9e7 	bl	8103b88 <HAL_GPIO_WritePin>
			HAL_GPIO_WritePin(mc14515->D3Port, mc14515->D3Pin, GPIO_PIN_SET);
 81007ba:	687b      	ldr	r3, [r7, #4]
 81007bc:	6918      	ldr	r0, [r3, #16]
 81007be:	687b      	ldr	r3, [r7, #4]
 81007c0:	8c1b      	ldrh	r3, [r3, #32]
 81007c2:	2201      	movs	r2, #1
 81007c4:	4619      	mov	r1, r3
 81007c6:	f003 f9df 	bl	8103b88 <HAL_GPIO_WritePin>
			HAL_GPIO_WritePin(mc14515->D4Port, mc14515->D4Pin, GPIO_PIN_SET);
 81007ca:	687b      	ldr	r3, [r7, #4]
 81007cc:	6958      	ldr	r0, [r3, #20]
 81007ce:	687b      	ldr	r3, [r7, #4]
 81007d0:	8c5b      	ldrh	r3, [r3, #34]	; 0x22
 81007d2:	2201      	movs	r2, #1
 81007d4:	4619      	mov	r1, r3
 81007d6:	f003 f9d7 	bl	8103b88 <HAL_GPIO_WritePin>
			break;
 81007da:	bf00      	nop
	}

	// Set ST to High ready to store data
	HAL_GPIO_WritePin(mc14515->STPort, mc14515->STPin, GPIO_PIN_SET);
 81007dc:	687b      	ldr	r3, [r7, #4]
 81007de:	6818      	ldr	r0, [r3, #0]
 81007e0:	687b      	ldr	r3, [r7, #4]
 81007e2:	8b1b      	ldrh	r3, [r3, #24]
 81007e4:	2201      	movs	r2, #1
 81007e6:	4619      	mov	r1, r3
 81007e8:	f003 f9ce 	bl	8103b88 <HAL_GPIO_WritePin>

	// Set INH to Low
	HAL_GPIO_WritePin(mc14515->INHPort, mc14515->INHPin, GPIO_PIN_RESET);
 81007ec:	687b      	ldr	r3, [r7, #4]
 81007ee:	6858      	ldr	r0, [r3, #4]
 81007f0:	687b      	ldr	r3, [r7, #4]
 81007f2:	8b5b      	ldrh	r3, [r3, #26]
 81007f4:	2200      	movs	r2, #0
 81007f6:	4619      	mov	r1, r3
 81007f8:	f003 f9c6 	bl	8103b88 <HAL_GPIO_WritePin>

	// Latch Data
	HAL_GPIO_WritePin(mc14515->STPort, mc14515->STPin, GPIO_PIN_RESET);
 81007fc:	687b      	ldr	r3, [r7, #4]
 81007fe:	6818      	ldr	r0, [r3, #0]
 8100800:	687b      	ldr	r3, [r7, #4]
 8100802:	8b1b      	ldrh	r3, [r3, #24]
 8100804:	2200      	movs	r2, #0
 8100806:	4619      	mov	r1, r3
 8100808:	f003 f9be 	bl	8103b88 <HAL_GPIO_WritePin>

}
 810080c:	bf00      	nop
 810080e:	3708      	adds	r7, #8
 8100810:	46bd      	mov	sp, r7
 8100812:	bd80      	pop	{r7, pc}

08100814 <MC14515_Set_Output_All_High>:

void MC14515_Set_Output_All_High(MC14515Handle *mc14515)
{
 8100814:	b580      	push	{r7, lr}
 8100816:	b082      	sub	sp, #8
 8100818:	af00      	add	r7, sp, #0
 810081a:	6078      	str	r0, [r7, #4]
	// Set INH to High
	HAL_GPIO_WritePin(mc14515->INHPort, mc14515->INHPin, GPIO_PIN_SET);
 810081c:	687b      	ldr	r3, [r7, #4]
 810081e:	6858      	ldr	r0, [r3, #4]
 8100820:	687b      	ldr	r3, [r7, #4]
 8100822:	8b5b      	ldrh	r3, [r3, #26]
 8100824:	2201      	movs	r2, #1
 8100826:	4619      	mov	r1, r3
 8100828:	f003 f9ae 	bl	8103b88 <HAL_GPIO_WritePin>

	// Set ST to High ready to store data
	HAL_GPIO_WritePin(mc14515->STPort, mc14515->STPin, GPIO_PIN_SET);
 810082c:	687b      	ldr	r3, [r7, #4]
 810082e:	6818      	ldr	r0, [r3, #0]
 8100830:	687b      	ldr	r3, [r7, #4]
 8100832:	8b1b      	ldrh	r3, [r3, #24]
 8100834:	2201      	movs	r2, #1
 8100836:	4619      	mov	r1, r3
 8100838:	f003 f9a6 	bl	8103b88 <HAL_GPIO_WritePin>

	// Latch Data
	HAL_GPIO_WritePin(mc14515->STPort, mc14515->STPin, GPIO_PIN_RESET);
 810083c:	687b      	ldr	r3, [r7, #4]
 810083e:	6818      	ldr	r0, [r3, #0]
 8100840:	687b      	ldr	r3, [r7, #4]
 8100842:	8b1b      	ldrh	r3, [r3, #24]
 8100844:	2200      	movs	r2, #0
 8100846:	4619      	mov	r1, r3
 8100848:	f003 f99e 	bl	8103b88 <HAL_GPIO_WritePin>
}
 810084c:	bf00      	nop
 810084e:	3708      	adds	r7, #8
 8100850:	46bd      	mov	sp, r7
 8100852:	bd80      	pop	{r7, pc}

08100854 <MFRC522_Write_Data>:
 * Function Name: MFRC522_Write_Data
 * Function Description: To a certain MFRC522 register to write a byte of data
 * Input Parameters: addr - register address; val - the value to be written
 * Return value: None
 */
void MFRC522_Write_Data(uint8_t addr, uint8_t val, uint16_t nss_num) {
 8100854:	b580      	push	{r7, lr}
 8100856:	b084      	sub	sp, #16
 8100858:	af00      	add	r7, sp, #0
 810085a:	4603      	mov	r3, r0
 810085c:	71fb      	strb	r3, [r7, #7]
 810085e:	460b      	mov	r3, r1
 8100860:	71bb      	strb	r3, [r7, #6]
 8100862:	4613      	mov	r3, r2
 8100864:	80bb      	strh	r3, [r7, #4]

	uint8_t addr_bits = (((addr<<1) & 0x7E));
 8100866:	79fb      	ldrb	r3, [r7, #7]
 8100868:	005b      	lsls	r3, r3, #1
 810086a:	b2db      	uxtb	r3, r3
 810086c:	f003 037e 	and.w	r3, r3, #126	; 0x7e
 8100870:	73fb      	strb	r3, [r7, #15]
	uint8_t TxBuff[2] = {addr_bits,val};
 8100872:	7bfb      	ldrb	r3, [r7, #15]
 8100874:	733b      	strb	r3, [r7, #12]
 8100876:	79bb      	ldrb	r3, [r7, #6]
 8100878:	737b      	strb	r3, [r7, #13]
#endif

#ifdef MC14515USE

	// Slave select Low
	MC14515_Latch(&MC14515HANDLER,nss_num);
 810087a:	88bb      	ldrh	r3, [r7, #4]
 810087c:	4619      	mov	r1, r3
 810087e:	4809      	ldr	r0, [pc, #36]	; (81008a4 <MFRC522_Write_Data+0x50>)
 8100880:	f7ff fd6e 	bl	8100360 <MC14515_Latch>

#endif

	// Transmit Data
	HAL_SPI_Transmit(&MFRC522_PORT, TxBuff, 2, 500);
 8100884:	f107 010c 	add.w	r1, r7, #12
 8100888:	f44f 73fa 	mov.w	r3, #500	; 0x1f4
 810088c:	2202      	movs	r2, #2
 810088e:	4806      	ldr	r0, [pc, #24]	; (81008a8 <MFRC522_Write_Data+0x54>)
 8100890:	f003 fcc8 	bl	8104224 <HAL_SPI_Transmit>
#endif

#ifdef MC14515USE

	// Slave select High
	MC14515_Set_Output_All_High(&MC14515HANDLER);
 8100894:	4803      	ldr	r0, [pc, #12]	; (81008a4 <MFRC522_Write_Data+0x50>)
 8100896:	f7ff ffbd 	bl	8100814 <MC14515_Set_Output_All_High>

#endif

}
 810089a:	bf00      	nop
 810089c:	3710      	adds	r7, #16
 810089e:	46bd      	mov	sp, r7
 81008a0:	bd80      	pop	{r7, pc}
 81008a2:	bf00      	nop
 81008a4:	100001a4 	.word	0x100001a4
 81008a8:	1000002c 	.word	0x1000002c

081008ac <MFRC522_Read_Data>:
 * Function Name: MFRC522_Read_Data
 * Description: From a certain MFRC522 read a byte of data register
 * Input Parameters: addr - register address
 * Returns: a byte of data read from the
 */
uint8_t MFRC522_Read_Data(uint8_t addr, uint16_t nss_num) {
 81008ac:	b580      	push	{r7, lr}
 81008ae:	b088      	sub	sp, #32
 81008b0:	af02      	add	r7, sp, #8
 81008b2:	4603      	mov	r3, r0
 81008b4:	460a      	mov	r2, r1
 81008b6:	71fb      	strb	r3, [r7, #7]
 81008b8:	4613      	mov	r3, r2
 81008ba:	80bb      	strh	r3, [r7, #4]

	HAL_StatusTypeDef hal_status;

	uint8_t addr_bits = (((addr<<1) & 0x7E) | 0x80);
 81008bc:	79fb      	ldrb	r3, [r7, #7]
 81008be:	005b      	lsls	r3, r3, #1
 81008c0:	b25b      	sxtb	r3, r3
 81008c2:	f003 037e 	and.w	r3, r3, #126	; 0x7e
 81008c6:	b25b      	sxtb	r3, r3
 81008c8:	f063 037f 	orn	r3, r3, #127	; 0x7f
 81008cc:	b25b      	sxtb	r3, r3
 81008ce:	75bb      	strb	r3, [r7, #22]

	uint8_t Txbuff[2] = {addr_bits,0};
 81008d0:	7dbb      	ldrb	r3, [r7, #22]
 81008d2:	743b      	strb	r3, [r7, #16]
 81008d4:	2300      	movs	r3, #0
 81008d6:	747b      	strb	r3, [r7, #17]
#endif

#ifdef MC14515USE

	// Slave select Low
	MC14515_Latch(&MC14515HANDLER,nss_num);
 81008d8:	88bb      	ldrh	r3, [r7, #4]
 81008da:	4619      	mov	r1, r3
 81008dc:	480e      	ldr	r0, [pc, #56]	; (8100918 <MFRC522_Read_Data+0x6c>)
 81008de:	f7ff fd3f 	bl	8100360 <MC14515_Latch>

#endif

	hal_status = HAL_SPI_TransmitReceive(&MFRC522_PORT, Txbuff, Rxbuff, 2, 500);
 81008e2:	f107 020c 	add.w	r2, r7, #12
 81008e6:	f107 0110 	add.w	r1, r7, #16
 81008ea:	f44f 73fa 	mov.w	r3, #500	; 0x1f4
 81008ee:	9300      	str	r3, [sp, #0]
 81008f0:	2302      	movs	r3, #2
 81008f2:	480a      	ldr	r0, [pc, #40]	; (810091c <MFRC522_Read_Data+0x70>)
 81008f4:	f003 fe84 	bl	8104600 <HAL_SPI_TransmitReceive>
 81008f8:	4603      	mov	r3, r0
 81008fa:	757b      	strb	r3, [r7, #21]

	if (hal_status == HAL_OK)
 81008fc:	7d7b      	ldrb	r3, [r7, #21]
 81008fe:	2b00      	cmp	r3, #0
 8100900:	d101      	bne.n	8100906 <MFRC522_Read_Data+0x5a>
	{
		rx_bits = Rxbuff[1];    // response is in the second byte
 8100902:	7b7b      	ldrb	r3, [r7, #13]
 8100904:	75fb      	strb	r3, [r7, #23]
#endif

#ifdef MC14515USE

	// Slave select High
	MC14515_Set_Output_All_High(&MC14515HANDLER);
 8100906:	4804      	ldr	r0, [pc, #16]	; (8100918 <MFRC522_Read_Data+0x6c>)
 8100908:	f7ff ff84 	bl	8100814 <MC14515_Set_Output_All_High>

#endif

	return (uint8_t) rx_bits; // return the rx bits, casting to an 8 bit int
 810090c:	7dfb      	ldrb	r3, [r7, #23]
}
 810090e:	4618      	mov	r0, r3
 8100910:	3718      	adds	r7, #24
 8100912:	46bd      	mov	sp, r7
 8100914:	bd80      	pop	{r7, pc}
 8100916:	bf00      	nop
 8100918:	100001a4 	.word	0x100001a4
 810091c:	1000002c 	.word	0x1000002c

08100920 <SetBitMask>:
 * Description: Set RC522 register bit
 * Input parameters: reg - register address; mask - set value
 * Return value: None
 */
void SetBitMask(uint8_t reg, uint8_t mask, uint16_t nss_num)
{
 8100920:	b580      	push	{r7, lr}
 8100922:	b084      	sub	sp, #16
 8100924:	af00      	add	r7, sp, #0
 8100926:	4603      	mov	r3, r0
 8100928:	71fb      	strb	r3, [r7, #7]
 810092a:	460b      	mov	r3, r1
 810092c:	71bb      	strb	r3, [r7, #6]
 810092e:	4613      	mov	r3, r2
 8100930:	80bb      	strh	r3, [r7, #4]
	uint8_t tmp;
	tmp = MFRC522_Read_Data(reg, nss_num);
 8100932:	88ba      	ldrh	r2, [r7, #4]
 8100934:	79fb      	ldrb	r3, [r7, #7]
 8100936:	4611      	mov	r1, r2
 8100938:	4618      	mov	r0, r3
 810093a:	f7ff ffb7 	bl	81008ac <MFRC522_Read_Data>
 810093e:	4603      	mov	r3, r0
 8100940:	73fb      	strb	r3, [r7, #15]
	MFRC522_Write_Data(reg, tmp | mask, nss_num);  // set bit mask
 8100942:	7bfa      	ldrb	r2, [r7, #15]
 8100944:	79bb      	ldrb	r3, [r7, #6]
 8100946:	4313      	orrs	r3, r2
 8100948:	b2d9      	uxtb	r1, r3
 810094a:	88ba      	ldrh	r2, [r7, #4]
 810094c:	79fb      	ldrb	r3, [r7, #7]
 810094e:	4618      	mov	r0, r3
 8100950:	f7ff ff80 	bl	8100854 <MFRC522_Write_Data>
}
 8100954:	bf00      	nop
 8100956:	3710      	adds	r7, #16
 8100958:	46bd      	mov	sp, r7
 810095a:	bd80      	pop	{r7, pc}

0810095c <ClearBitMask>:
 * Description: clear RC522 register bit
 * Input parameters: reg - register address; mask - clear bit value
 * Return value: None
 */
void ClearBitMask(uint8_t reg, uint8_t mask, uint16_t nss_num)
{
 810095c:	b580      	push	{r7, lr}
 810095e:	b084      	sub	sp, #16
 8100960:	af00      	add	r7, sp, #0
 8100962:	4603      	mov	r3, r0
 8100964:	71fb      	strb	r3, [r7, #7]
 8100966:	460b      	mov	r3, r1
 8100968:	71bb      	strb	r3, [r7, #6]
 810096a:	4613      	mov	r3, r2
 810096c:	80bb      	strh	r3, [r7, #4]
	uint8_t tmp;
	tmp = MFRC522_Read_Data(reg, nss_num);
 810096e:	88ba      	ldrh	r2, [r7, #4]
 8100970:	79fb      	ldrb	r3, [r7, #7]
 8100972:	4611      	mov	r1, r2
 8100974:	4618      	mov	r0, r3
 8100976:	f7ff ff99 	bl	81008ac <MFRC522_Read_Data>
 810097a:	4603      	mov	r3, r0
 810097c:	73fb      	strb	r3, [r7, #15]
	MFRC522_Write_Data(reg, tmp & (~mask), nss_num);  // clear bit mask
 810097e:	f997 3006 	ldrsb.w	r3, [r7, #6]
 8100982:	43db      	mvns	r3, r3
 8100984:	b25a      	sxtb	r2, r3
 8100986:	f997 300f 	ldrsb.w	r3, [r7, #15]
 810098a:	4013      	ands	r3, r2
 810098c:	b25b      	sxtb	r3, r3
 810098e:	b2d9      	uxtb	r1, r3
 8100990:	88ba      	ldrh	r2, [r7, #4]
 8100992:	79fb      	ldrb	r3, [r7, #7]
 8100994:	4618      	mov	r0, r3
 8100996:	f7ff ff5d 	bl	8100854 <MFRC522_Write_Data>
}
 810099a:	bf00      	nop
 810099c:	3710      	adds	r7, #16
 810099e:	46bd      	mov	sp, r7
 81009a0:	bd80      	pop	{r7, pc}

081009a2 <AntennaOn>:
 * Description: Open antennas, each time you start or shut down the natural barrier between the transmitter should be at least 1ms interval
 * Input: None
 * Return value: None
 */
void AntennaOn(uint16_t nss_num)
{
 81009a2:	b580      	push	{r7, lr}
 81009a4:	b082      	sub	sp, #8
 81009a6:	af00      	add	r7, sp, #0
 81009a8:	4603      	mov	r3, r0
 81009aa:	80fb      	strh	r3, [r7, #6]
	SetBitMask(TxControlReg, 0x03,nss_num);
 81009ac:	88fb      	ldrh	r3, [r7, #6]
 81009ae:	461a      	mov	r2, r3
 81009b0:	2103      	movs	r1, #3
 81009b2:	2014      	movs	r0, #20
 81009b4:	f7ff ffb4 	bl	8100920 <SetBitMask>
}
 81009b8:	bf00      	nop
 81009ba:	3708      	adds	r7, #8
 81009bc:	46bd      	mov	sp, r7
 81009be:	bd80      	pop	{r7, pc}

081009c0 <MFRC522_Reset>:
 * Description: Reset RC522
 * Input: None
 * Return value: None
 */
void MFRC522_Reset(uint16_t nss_num)
{
 81009c0:	b580      	push	{r7, lr}
 81009c2:	b082      	sub	sp, #8
 81009c4:	af00      	add	r7, sp, #0
 81009c6:	4603      	mov	r3, r0
 81009c8:	80fb      	strh	r3, [r7, #6]
	MFRC522_Write_Data(CommandReg, PCD_RESETPHASE, nss_num);
 81009ca:	88fb      	ldrh	r3, [r7, #6]
 81009cc:	461a      	mov	r2, r3
 81009ce:	210f      	movs	r1, #15
 81009d0:	2001      	movs	r0, #1
 81009d2:	f7ff ff3f 	bl	8100854 <MFRC522_Write_Data>
}
 81009d6:	bf00      	nop
 81009d8:	3708      	adds	r7, #8
 81009da:	46bd      	mov	sp, r7
 81009dc:	bd80      	pop	{r7, pc}

081009de <MFRC522_Init>:
 * Description: Initialize RC522
 * Input: None
 * Return value: None
 */
void MFRC522_Init(uint16_t nss_num)
{
 81009de:	b580      	push	{r7, lr}
 81009e0:	b082      	sub	sp, #8
 81009e2:	af00      	add	r7, sp, #0
 81009e4:	4603      	mov	r3, r0
 81009e6:	80fb      	strh	r3, [r7, #6]
	MFRC522_Reset(nss_num);
 81009e8:	88fb      	ldrh	r3, [r7, #6]
 81009ea:	4618      	mov	r0, r3
 81009ec:	f7ff ffe8 	bl	81009c0 <MFRC522_Reset>

	// Timer: TPrescaler*TreloadVal/6.78MHz = 24ms
	MFRC522_Write_Data(TModeReg, 0x80, nss_num); // 0x8D);      // Tauto=1; f(Timer) = 6.78MHz/TPreScaler
 81009f0:	88fb      	ldrh	r3, [r7, #6]
 81009f2:	461a      	mov	r2, r3
 81009f4:	2180      	movs	r1, #128	; 0x80
 81009f6:	202a      	movs	r0, #42	; 0x2a
 81009f8:	f7ff ff2c 	bl	8100854 <MFRC522_Write_Data>
	MFRC522_Write_Data(TPrescalerReg, 0xA9, nss_num); //0x34); // TModeReg[3..0] + TPrescalerReg
 81009fc:	88fb      	ldrh	r3, [r7, #6]
 81009fe:	461a      	mov	r2, r3
 8100a00:	21a9      	movs	r1, #169	; 0xa9
 8100a02:	202b      	movs	r0, #43	; 0x2b
 8100a04:	f7ff ff26 	bl	8100854 <MFRC522_Write_Data>
	MFRC522_Write_Data(TReloadRegL, 0x03, nss_num); //30);
 8100a08:	88fb      	ldrh	r3, [r7, #6]
 8100a0a:	461a      	mov	r2, r3
 8100a0c:	2103      	movs	r1, #3
 8100a0e:	202d      	movs	r0, #45	; 0x2d
 8100a10:	f7ff ff20 	bl	8100854 <MFRC522_Write_Data>
	MFRC522_Write_Data(TReloadRegH, 0xE8, nss_num); //0);
 8100a14:	88fb      	ldrh	r3, [r7, #6]
 8100a16:	461a      	mov	r2, r3
 8100a18:	21e8      	movs	r1, #232	; 0xe8
 8100a1a:	202c      	movs	r0, #44	; 0x2c
 8100a1c:	f7ff ff1a 	bl	8100854 <MFRC522_Write_Data>
	MFRC522_Write_Data(TxAutoReg, 0x40, nss_num);     // force 100% ASK modulation
 8100a20:	88fb      	ldrh	r3, [r7, #6]
 8100a22:	461a      	mov	r2, r3
 8100a24:	2140      	movs	r1, #64	; 0x40
 8100a26:	2015      	movs	r0, #21
 8100a28:	f7ff ff14 	bl	8100854 <MFRC522_Write_Data>
	MFRC522_Write_Data(ModeReg, 0x3D, nss_num);       // CRC Initial value 0x6363
 8100a2c:	88fb      	ldrh	r3, [r7, #6]
 8100a2e:	461a      	mov	r2, r3
 8100a30:	213d      	movs	r1, #61	; 0x3d
 8100a32:	2011      	movs	r0, #17
 8100a34:	f7ff ff0e 	bl	8100854 <MFRC522_Write_Data>
	////  MFRC522_Write_Data(DivlEnReg, 0x14);
	//  MFRC522_Write_Data(DivlEnReg, 0x00, nss_num);
	//  HAL_GPIO_WritePin(Test_Sig_GPIO_Port, Test_Sig_Pin, GPIO_PIN_SET);

	// turn antenna on
	AntennaOn(nss_num);
 8100a38:	88fb      	ldrh	r3, [r7, #6]
 8100a3a:	4618      	mov	r0, r3
 8100a3c:	f7ff ffb1 	bl	81009a2 <AntennaOn>
	//  HAL_GPIO_WritePin(Test_Sig_GPIO_Port, Test_Sig_Pin, GPIO_PIN_SET);
}
 8100a40:	bf00      	nop
 8100a42:	3708      	adds	r7, #8
 8100a44:	46bd      	mov	sp, r7
 8100a46:	bd80      	pop	{r7, pc}

08100a48 <MFRC522_Request>:
 *    0x0800 = Mifare_Pro(X)
 *    0x4403 = Mifare_DESFire
 * Return value: the successful return MI_OK
 */
uint8_t MFRC522_Request(uint8_t reqMode, uint8_t *TagType, uint16_t nss_num)
{
 8100a48:	b580      	push	{r7, lr}
 8100a4a:	b086      	sub	sp, #24
 8100a4c:	af02      	add	r7, sp, #8
 8100a4e:	4603      	mov	r3, r0
 8100a50:	6039      	str	r1, [r7, #0]
 8100a52:	71fb      	strb	r3, [r7, #7]
 8100a54:	4613      	mov	r3, r2
 8100a56:	80bb      	strh	r3, [r7, #4]
	uint8_t status;
	uint backBits; // The received data bits

	MFRC522_Write_Data(BitFramingReg, 0x07, nss_num);   // TxLastBists = BitFramingReg[2..0]
 8100a58:	88bb      	ldrh	r3, [r7, #4]
 8100a5a:	461a      	mov	r2, r3
 8100a5c:	2107      	movs	r1, #7
 8100a5e:	200d      	movs	r0, #13
 8100a60:	f7ff fef8 	bl	8100854 <MFRC522_Write_Data>

	TagType[0] = reqMode;
 8100a64:	683b      	ldr	r3, [r7, #0]
 8100a66:	79fa      	ldrb	r2, [r7, #7]
 8100a68:	701a      	strb	r2, [r3, #0]

	status = MFRC522_ToCard(PCD_TRANSCEIVE, TagType, 1, TagType, &backBits, nss_num);
 8100a6a:	88bb      	ldrh	r3, [r7, #4]
 8100a6c:	9301      	str	r3, [sp, #4]
 8100a6e:	f107 0308 	add.w	r3, r7, #8
 8100a72:	9300      	str	r3, [sp, #0]
 8100a74:	683b      	ldr	r3, [r7, #0]
 8100a76:	2201      	movs	r2, #1
 8100a78:	6839      	ldr	r1, [r7, #0]
 8100a7a:	200c      	movs	r0, #12
 8100a7c:	f000 f80f 	bl	8100a9e <MFRC522_ToCard>
 8100a80:	4603      	mov	r3, r0
 8100a82:	73fb      	strb	r3, [r7, #15]
	if ((status != MI_OK) || (backBits != 0x10)) {
 8100a84:	7bfb      	ldrb	r3, [r7, #15]
 8100a86:	2b00      	cmp	r3, #0
 8100a88:	d102      	bne.n	8100a90 <MFRC522_Request+0x48>
 8100a8a:	68bb      	ldr	r3, [r7, #8]
 8100a8c:	2b10      	cmp	r3, #16
 8100a8e:	d001      	beq.n	8100a94 <MFRC522_Request+0x4c>
		status = MI_ERR;
 8100a90:	2302      	movs	r3, #2
 8100a92:	73fb      	strb	r3, [r7, #15]
	}

	return status;
 8100a94:	7bfb      	ldrb	r3, [r7, #15]
}
 8100a96:	4618      	mov	r0, r3
 8100a98:	3710      	adds	r7, #16
 8100a9a:	46bd      	mov	sp, r7
 8100a9c:	bd80      	pop	{r7, pc}

08100a9e <MFRC522_ToCard>:
 *			 backData--Received the card returns data,
 *			 backLen--Return data bit length
 * Return value: the successful return MI_OK
 */
uint8_t MFRC522_ToCard(uint8_t command, uint8_t *sendData, uint8_t sendLen, uint8_t *backData, uint *backLen, uint16_t nss_num)
{
 8100a9e:	b590      	push	{r4, r7, lr}
 8100aa0:	b089      	sub	sp, #36	; 0x24
 8100aa2:	af00      	add	r7, sp, #0
 8100aa4:	60b9      	str	r1, [r7, #8]
 8100aa6:	607b      	str	r3, [r7, #4]
 8100aa8:	4603      	mov	r3, r0
 8100aaa:	73fb      	strb	r3, [r7, #15]
 8100aac:	4613      	mov	r3, r2
 8100aae:	73bb      	strb	r3, [r7, #14]
	uint8_t status = MI_ERR;
 8100ab0:	2302      	movs	r3, #2
 8100ab2:	77fb      	strb	r3, [r7, #31]
	uint8_t irqEn = 0x00;
 8100ab4:	2300      	movs	r3, #0
 8100ab6:	77bb      	strb	r3, [r7, #30]
	uint8_t waitIRq = 0x00;
 8100ab8:	2300      	movs	r3, #0
 8100aba:	777b      	strb	r3, [r7, #29]
	uint8_t lastBits;
	uint8_t n;
	uint i;

	switch (command)
 8100abc:	7bfb      	ldrb	r3, [r7, #15]
 8100abe:	2b0c      	cmp	r3, #12
 8100ac0:	d006      	beq.n	8100ad0 <MFRC522_ToCard+0x32>
 8100ac2:	2b0e      	cmp	r3, #14
 8100ac4:	d109      	bne.n	8100ada <MFRC522_ToCard+0x3c>
	{
	case PCD_AUTHENT:     // Certification cards close
	{
		irqEn = 0x12;
 8100ac6:	2312      	movs	r3, #18
 8100ac8:	77bb      	strb	r3, [r7, #30]
		waitIRq = 0x10;
 8100aca:	2310      	movs	r3, #16
 8100acc:	777b      	strb	r3, [r7, #29]
		break;
 8100ace:	e005      	b.n	8100adc <MFRC522_ToCard+0x3e>
	}
	case PCD_TRANSCEIVE:  // Transmit FIFO data
	{
		irqEn = 0x77;
 8100ad0:	2377      	movs	r3, #119	; 0x77
 8100ad2:	77bb      	strb	r3, [r7, #30]
		waitIRq = 0x30;
 8100ad4:	2330      	movs	r3, #48	; 0x30
 8100ad6:	777b      	strb	r3, [r7, #29]
		break;
 8100ad8:	e000      	b.n	8100adc <MFRC522_ToCard+0x3e>
	}
	default:
		break;
 8100ada:	bf00      	nop
	}

	MFRC522_Write_Data(CommIEnReg, irqEn|0x80, nss_num);  // Interrupt request
 8100adc:	7fbb      	ldrb	r3, [r7, #30]
 8100ade:	f063 037f 	orn	r3, r3, #127	; 0x7f
 8100ae2:	b2db      	uxtb	r3, r3
 8100ae4:	8eba      	ldrh	r2, [r7, #52]	; 0x34
 8100ae6:	4619      	mov	r1, r3
 8100ae8:	2002      	movs	r0, #2
 8100aea:	f7ff feb3 	bl	8100854 <MFRC522_Write_Data>
	//  MFRC522_Write_Data(CommIEnReg, 0x7F); //Edit Some

	ClearBitMask(CommIrqReg, 0x80, nss_num);         // Clear all interrupt request bit
 8100aee:	8ebb      	ldrh	r3, [r7, #52]	; 0x34
 8100af0:	461a      	mov	r2, r3
 8100af2:	2180      	movs	r1, #128	; 0x80
 8100af4:	2004      	movs	r0, #4
 8100af6:	f7ff ff31 	bl	810095c <ClearBitMask>

	SetBitMask(FIFOLevelReg, 0x80, nss_num);         // FlushBuffer=1, FIFO Initialization
 8100afa:	8ebb      	ldrh	r3, [r7, #52]	; 0x34
 8100afc:	461a      	mov	r2, r3
 8100afe:	2180      	movs	r1, #128	; 0x80
 8100b00:	200a      	movs	r0, #10
 8100b02:	f7ff ff0d 	bl	8100920 <SetBitMask>


	MFRC522_Write_Data(CommandReg, PCD_IDLE, nss_num);    // NO action; Cancel the current command
 8100b06:	8ebb      	ldrh	r3, [r7, #52]	; 0x34
 8100b08:	461a      	mov	r2, r3
 8100b0a:	2100      	movs	r1, #0
 8100b0c:	2001      	movs	r0, #1
 8100b0e:	f7ff fea1 	bl	8100854 <MFRC522_Write_Data>

	// Writing data to the FIFO
	for (i=0; i<sendLen; i++)
 8100b12:	2300      	movs	r3, #0
 8100b14:	61bb      	str	r3, [r7, #24]
 8100b16:	e00b      	b.n	8100b30 <MFRC522_ToCard+0x92>
	{
		MFRC522_Write_Data(FIFODataReg, sendData[i], nss_num);
 8100b18:	68ba      	ldr	r2, [r7, #8]
 8100b1a:	69bb      	ldr	r3, [r7, #24]
 8100b1c:	4413      	add	r3, r2
 8100b1e:	781b      	ldrb	r3, [r3, #0]
 8100b20:	8eba      	ldrh	r2, [r7, #52]	; 0x34
 8100b22:	4619      	mov	r1, r3
 8100b24:	2009      	movs	r0, #9
 8100b26:	f7ff fe95 	bl	8100854 <MFRC522_Write_Data>
	for (i=0; i<sendLen; i++)
 8100b2a:	69bb      	ldr	r3, [r7, #24]
 8100b2c:	3301      	adds	r3, #1
 8100b2e:	61bb      	str	r3, [r7, #24]
 8100b30:	7bbb      	ldrb	r3, [r7, #14]
 8100b32:	69ba      	ldr	r2, [r7, #24]
 8100b34:	429a      	cmp	r2, r3
 8100b36:	d3ef      	bcc.n	8100b18 <MFRC522_ToCard+0x7a>
	}

	// Execute the command
	MFRC522_Write_Data(CommandReg, command, nss_num);
 8100b38:	8eba      	ldrh	r2, [r7, #52]	; 0x34
 8100b3a:	7bfb      	ldrb	r3, [r7, #15]
 8100b3c:	4619      	mov	r1, r3
 8100b3e:	2001      	movs	r0, #1
 8100b40:	f7ff fe88 	bl	8100854 <MFRC522_Write_Data>
	if (command == PCD_TRANSCEIVE)
 8100b44:	7bfb      	ldrb	r3, [r7, #15]
 8100b46:	2b0c      	cmp	r3, #12
 8100b48:	d105      	bne.n	8100b56 <MFRC522_ToCard+0xb8>
	{
		SetBitMask(BitFramingReg, 0x80, nss_num);      // StartSend=1,transmission of data starts
 8100b4a:	8ebb      	ldrh	r3, [r7, #52]	; 0x34
 8100b4c:	461a      	mov	r2, r3
 8100b4e:	2180      	movs	r1, #128	; 0x80
 8100b50:	200d      	movs	r0, #13
 8100b52:	f7ff fee5 	bl	8100920 <SetBitMask>
	}

	// Waiting to receive data to complete
	i = 2000;	// i according to the clock frequency adjustment, the operator M1 card maximum waiting time 25ms
 8100b56:	f44f 63fa 	mov.w	r3, #2000	; 0x7d0
 8100b5a:	61bb      	str	r3, [r7, #24]
	do
	{
		// CommIrqReg[7..0]
		// Set1 TxIRq RxIRq IdleIRq HiAlerIRq LoAlertIRq ErrIRq TimerIRq
		n = MFRC522_Read_Data(CommIrqReg, nss_num);
 8100b5c:	8ebb      	ldrh	r3, [r7, #52]	; 0x34
 8100b5e:	4619      	mov	r1, r3
 8100b60:	2004      	movs	r0, #4
 8100b62:	f7ff fea3 	bl	81008ac <MFRC522_Read_Data>
 8100b66:	4603      	mov	r3, r0
 8100b68:	773b      	strb	r3, [r7, #28]
		i--;
 8100b6a:	69bb      	ldr	r3, [r7, #24]
 8100b6c:	3b01      	subs	r3, #1
 8100b6e:	61bb      	str	r3, [r7, #24]
	}
	while ((i!=0) && !(n&0x01) && !(n&waitIRq));
 8100b70:	69bb      	ldr	r3, [r7, #24]
 8100b72:	2b00      	cmp	r3, #0
 8100b74:	d00a      	beq.n	8100b8c <MFRC522_ToCard+0xee>
 8100b76:	7f3b      	ldrb	r3, [r7, #28]
 8100b78:	f003 0301 	and.w	r3, r3, #1
 8100b7c:	2b00      	cmp	r3, #0
 8100b7e:	d105      	bne.n	8100b8c <MFRC522_ToCard+0xee>
 8100b80:	7f3a      	ldrb	r2, [r7, #28]
 8100b82:	7f7b      	ldrb	r3, [r7, #29]
 8100b84:	4013      	ands	r3, r2
 8100b86:	b2db      	uxtb	r3, r3
 8100b88:	2b00      	cmp	r3, #0
 8100b8a:	d0e7      	beq.n	8100b5c <MFRC522_ToCard+0xbe>

	ClearBitMask(BitFramingReg, 0x80, nss_num);      // StartSend=0
 8100b8c:	8ebb      	ldrh	r3, [r7, #52]	; 0x34
 8100b8e:	461a      	mov	r2, r3
 8100b90:	2180      	movs	r1, #128	; 0x80
 8100b92:	200d      	movs	r0, #13
 8100b94:	f7ff fee2 	bl	810095c <ClearBitMask>

	if (i != 0)
 8100b98:	69bb      	ldr	r3, [r7, #24]
 8100b9a:	2b00      	cmp	r3, #0
 8100b9c:	d05a      	beq.n	8100c54 <MFRC522_ToCard+0x1b6>
	{
		if(!(MFRC522_Read_Data(ErrorReg, nss_num) & 0x1B))  // BufferOvfl Collerr CRCErr ProtecolErr
 8100b9e:	8ebb      	ldrh	r3, [r7, #52]	; 0x34
 8100ba0:	4619      	mov	r1, r3
 8100ba2:	2006      	movs	r0, #6
 8100ba4:	f7ff fe82 	bl	81008ac <MFRC522_Read_Data>
 8100ba8:	4603      	mov	r3, r0
 8100baa:	f003 031b 	and.w	r3, r3, #27
 8100bae:	2b00      	cmp	r3, #0
 8100bb0:	d14e      	bne.n	8100c50 <MFRC522_ToCard+0x1b2>
		{
			status = MI_OK;
 8100bb2:	2300      	movs	r3, #0
 8100bb4:	77fb      	strb	r3, [r7, #31]
			if (n & irqEn & 0x01)
 8100bb6:	7f3a      	ldrb	r2, [r7, #28]
 8100bb8:	7fbb      	ldrb	r3, [r7, #30]
 8100bba:	4013      	ands	r3, r2
 8100bbc:	b2db      	uxtb	r3, r3
 8100bbe:	f003 0301 	and.w	r3, r3, #1
 8100bc2:	2b00      	cmp	r3, #0
 8100bc4:	d001      	beq.n	8100bca <MFRC522_ToCard+0x12c>
			{
				status = MI_NOTAGERR;             // ??
 8100bc6:	2301      	movs	r3, #1
 8100bc8:	77fb      	strb	r3, [r7, #31]
			}

			if (command == PCD_TRANSCEIVE)
 8100bca:	7bfb      	ldrb	r3, [r7, #15]
 8100bcc:	2b0c      	cmp	r3, #12
 8100bce:	d141      	bne.n	8100c54 <MFRC522_ToCard+0x1b6>
			{
				n = MFRC522_Read_Data(FIFOLevelReg, nss_num);
 8100bd0:	8ebb      	ldrh	r3, [r7, #52]	; 0x34
 8100bd2:	4619      	mov	r1, r3
 8100bd4:	200a      	movs	r0, #10
 8100bd6:	f7ff fe69 	bl	81008ac <MFRC522_Read_Data>
 8100bda:	4603      	mov	r3, r0
 8100bdc:	773b      	strb	r3, [r7, #28]
				lastBits = MFRC522_Read_Data(ControlReg, nss_num) & 0x07;
 8100bde:	8ebb      	ldrh	r3, [r7, #52]	; 0x34
 8100be0:	4619      	mov	r1, r3
 8100be2:	200c      	movs	r0, #12
 8100be4:	f7ff fe62 	bl	81008ac <MFRC522_Read_Data>
 8100be8:	4603      	mov	r3, r0
 8100bea:	f003 0307 	and.w	r3, r3, #7
 8100bee:	75fb      	strb	r3, [r7, #23]
				if (lastBits)
 8100bf0:	7dfb      	ldrb	r3, [r7, #23]
 8100bf2:	2b00      	cmp	r3, #0
 8100bf4:	d008      	beq.n	8100c08 <MFRC522_ToCard+0x16a>
				{
					*backLen = (n-1)*8 + lastBits;
 8100bf6:	7f3b      	ldrb	r3, [r7, #28]
 8100bf8:	3b01      	subs	r3, #1
 8100bfa:	00da      	lsls	r2, r3, #3
 8100bfc:	7dfb      	ldrb	r3, [r7, #23]
 8100bfe:	4413      	add	r3, r2
 8100c00:	461a      	mov	r2, r3
 8100c02:	6b3b      	ldr	r3, [r7, #48]	; 0x30
 8100c04:	601a      	str	r2, [r3, #0]
 8100c06:	e004      	b.n	8100c12 <MFRC522_ToCard+0x174>
				}
				else
				{
					*backLen = n*8;
 8100c08:	7f3b      	ldrb	r3, [r7, #28]
 8100c0a:	00db      	lsls	r3, r3, #3
 8100c0c:	461a      	mov	r2, r3
 8100c0e:	6b3b      	ldr	r3, [r7, #48]	; 0x30
 8100c10:	601a      	str	r2, [r3, #0]
				}

				if (n == 0)
 8100c12:	7f3b      	ldrb	r3, [r7, #28]
 8100c14:	2b00      	cmp	r3, #0
 8100c16:	d101      	bne.n	8100c1c <MFRC522_ToCard+0x17e>
				{
					n = 1;
 8100c18:	2301      	movs	r3, #1
 8100c1a:	773b      	strb	r3, [r7, #28]
				}
				if (n > MAX_LEN)
 8100c1c:	7f3b      	ldrb	r3, [r7, #28]
 8100c1e:	2b10      	cmp	r3, #16
 8100c20:	d901      	bls.n	8100c26 <MFRC522_ToCard+0x188>
				{
					n = MAX_LEN;
 8100c22:	2310      	movs	r3, #16
 8100c24:	773b      	strb	r3, [r7, #28]
				}

				// Reading the received data in FIFO
				for (i=0; i<n; i++)
 8100c26:	2300      	movs	r3, #0
 8100c28:	61bb      	str	r3, [r7, #24]
 8100c2a:	e00c      	b.n	8100c46 <MFRC522_ToCard+0x1a8>
				{
					backData[i] = MFRC522_Read_Data(FIFODataReg, nss_num);
 8100c2c:	687a      	ldr	r2, [r7, #4]
 8100c2e:	69bb      	ldr	r3, [r7, #24]
 8100c30:	18d4      	adds	r4, r2, r3
 8100c32:	8ebb      	ldrh	r3, [r7, #52]	; 0x34
 8100c34:	4619      	mov	r1, r3
 8100c36:	2009      	movs	r0, #9
 8100c38:	f7ff fe38 	bl	81008ac <MFRC522_Read_Data>
 8100c3c:	4603      	mov	r3, r0
 8100c3e:	7023      	strb	r3, [r4, #0]
				for (i=0; i<n; i++)
 8100c40:	69bb      	ldr	r3, [r7, #24]
 8100c42:	3301      	adds	r3, #1
 8100c44:	61bb      	str	r3, [r7, #24]
 8100c46:	7f3b      	ldrb	r3, [r7, #28]
 8100c48:	69ba      	ldr	r2, [r7, #24]
 8100c4a:	429a      	cmp	r2, r3
 8100c4c:	d3ee      	bcc.n	8100c2c <MFRC522_ToCard+0x18e>
 8100c4e:	e001      	b.n	8100c54 <MFRC522_ToCard+0x1b6>
				}
			}
		}
		else {
			//printf("~~~ buffer overflow, collerr, crcerr, or protecolerr\r\n");
			status = MI_ERR;
 8100c50:	2302      	movs	r3, #2
 8100c52:	77fb      	strb	r3, [r7, #31]
	}
	else {
		//printf("~~~ request timed out\r\n");
	}

	return status;
 8100c54:	7ffb      	ldrb	r3, [r7, #31]
}
 8100c56:	4618      	mov	r0, r3
 8100c58:	3724      	adds	r7, #36	; 0x24
 8100c5a:	46bd      	mov	sp, r7
 8100c5c:	bd90      	pop	{r4, r7, pc}

08100c5e <MFRC522_Anticoll>:
 * Description: Anti-collision detection, reading selected card serial number card
 * Input parameters: serNum - returns 4 bytes card serial number, the first 5 bytes for the checksum byte
 * Return value: the successful return MI_OK
 */
uint8_t MFRC522_Anticoll(uint8_t *serNum, uint16_t nss_num)
{
 8100c5e:	b580      	push	{r7, lr}
 8100c60:	b086      	sub	sp, #24
 8100c62:	af02      	add	r7, sp, #8
 8100c64:	6078      	str	r0, [r7, #4]
 8100c66:	460b      	mov	r3, r1
 8100c68:	807b      	strh	r3, [r7, #2]
	uint8_t status;
	uint8_t i;
	uint8_t serNumCheck=0;
 8100c6a:	2300      	movs	r3, #0
 8100c6c:	737b      	strb	r3, [r7, #13]
	uint unLen;


	//ClearBitMask(Status2Reg, 0x08);		//TempSensclear
	//ClearBitMask(CollReg,0x80);			//ValuesAfterColl
	MFRC522_Write_Data(BitFramingReg, 0x00, nss_num);		//TxLastBists = BitFramingReg[2..0]
 8100c6e:	887b      	ldrh	r3, [r7, #2]
 8100c70:	461a      	mov	r2, r3
 8100c72:	2100      	movs	r1, #0
 8100c74:	200d      	movs	r0, #13
 8100c76:	f7ff fded 	bl	8100854 <MFRC522_Write_Data>

	serNum[0] = PICC_ANTICOLL;
 8100c7a:	687b      	ldr	r3, [r7, #4]
 8100c7c:	2293      	movs	r2, #147	; 0x93
 8100c7e:	701a      	strb	r2, [r3, #0]
	serNum[1] = 0x20;
 8100c80:	687b      	ldr	r3, [r7, #4]
 8100c82:	3301      	adds	r3, #1
 8100c84:	2220      	movs	r2, #32
 8100c86:	701a      	strb	r2, [r3, #0]
	status = MFRC522_ToCard(PCD_TRANSCEIVE, serNum, 2, serNum, &unLen, nss_num);
 8100c88:	887b      	ldrh	r3, [r7, #2]
 8100c8a:	9301      	str	r3, [sp, #4]
 8100c8c:	f107 0308 	add.w	r3, r7, #8
 8100c90:	9300      	str	r3, [sp, #0]
 8100c92:	687b      	ldr	r3, [r7, #4]
 8100c94:	2202      	movs	r2, #2
 8100c96:	6879      	ldr	r1, [r7, #4]
 8100c98:	200c      	movs	r0, #12
 8100c9a:	f7ff ff00 	bl	8100a9e <MFRC522_ToCard>
 8100c9e:	4603      	mov	r3, r0
 8100ca0:	73fb      	strb	r3, [r7, #15]

	if (status == MI_OK)
 8100ca2:	7bfb      	ldrb	r3, [r7, #15]
 8100ca4:	2b00      	cmp	r3, #0
 8100ca6:	d118      	bne.n	8100cda <MFRC522_Anticoll+0x7c>
	{
		//Check card serial number
		for (i=0; i<4; i++)
 8100ca8:	2300      	movs	r3, #0
 8100caa:	73bb      	strb	r3, [r7, #14]
 8100cac:	e009      	b.n	8100cc2 <MFRC522_Anticoll+0x64>
		{
			serNumCheck ^= serNum[i];
 8100cae:	7bbb      	ldrb	r3, [r7, #14]
 8100cb0:	687a      	ldr	r2, [r7, #4]
 8100cb2:	4413      	add	r3, r2
 8100cb4:	781a      	ldrb	r2, [r3, #0]
 8100cb6:	7b7b      	ldrb	r3, [r7, #13]
 8100cb8:	4053      	eors	r3, r2
 8100cba:	737b      	strb	r3, [r7, #13]
		for (i=0; i<4; i++)
 8100cbc:	7bbb      	ldrb	r3, [r7, #14]
 8100cbe:	3301      	adds	r3, #1
 8100cc0:	73bb      	strb	r3, [r7, #14]
 8100cc2:	7bbb      	ldrb	r3, [r7, #14]
 8100cc4:	2b03      	cmp	r3, #3
 8100cc6:	d9f2      	bls.n	8100cae <MFRC522_Anticoll+0x50>
		}
		if (serNumCheck != serNum[i])
 8100cc8:	7bbb      	ldrb	r3, [r7, #14]
 8100cca:	687a      	ldr	r2, [r7, #4]
 8100ccc:	4413      	add	r3, r2
 8100cce:	781b      	ldrb	r3, [r3, #0]
 8100cd0:	7b7a      	ldrb	r2, [r7, #13]
 8100cd2:	429a      	cmp	r2, r3
 8100cd4:	d001      	beq.n	8100cda <MFRC522_Anticoll+0x7c>
		{
			status = MI_ERR;
 8100cd6:	2302      	movs	r3, #2
 8100cd8:	73fb      	strb	r3, [r7, #15]
		}
	}

	//SetBitMask(CollReg, 0x80);		//ValuesAfterColl=1

	return status;
 8100cda:	7bfb      	ldrb	r3, [r7, #15]
}
 8100cdc:	4618      	mov	r0, r3
 8100cde:	3710      	adds	r7, #16
 8100ce0:	46bd      	mov	sp, r7
 8100ce2:	bd80      	pop	{r7, pc}

08100ce4 <main>:
/**
 * @brief  The application entry point.
 * @retval int
 */
int main(void)
{
 8100ce4:	b590      	push	{r4, r7, lr}
 8100ce6:	b087      	sub	sp, #28
 8100ce8:	af00      	add	r7, sp, #0

	/* USER CODE END 1 */

	/* USER CODE BEGIN Boot_Mode_Sequence_1 */
	/*HW semaphore Clock enable*/
	__HAL_RCC_HSEM_CLK_ENABLE();
 8100cea:	4b73      	ldr	r3, [pc, #460]	; (8100eb8 <main+0x1d4>)
 8100cec:	f8d3 30e0 	ldr.w	r3, [r3, #224]	; 0xe0
 8100cf0:	4a71      	ldr	r2, [pc, #452]	; (8100eb8 <main+0x1d4>)
 8100cf2:	f043 7300 	orr.w	r3, r3, #33554432	; 0x2000000
 8100cf6:	f8c2 30e0 	str.w	r3, [r2, #224]	; 0xe0
 8100cfa:	4b6f      	ldr	r3, [pc, #444]	; (8100eb8 <main+0x1d4>)
 8100cfc:	f8d3 30e0 	ldr.w	r3, [r3, #224]	; 0xe0
 8100d00:	f003 7300 	and.w	r3, r3, #33554432	; 0x2000000
 8100d04:	607b      	str	r3, [r7, #4]
 8100d06:	687b      	ldr	r3, [r7, #4]
	/* Activate HSEM notification for Cortex-M4*/
	HAL_HSEM_ActivateNotification(__HAL_HSEM_SEMID_TO_MASK(HSEM_ID_0));
 8100d08:	2001      	movs	r0, #1
 8100d0a:	f002 ff71 	bl	8103bf0 <HAL_HSEM_ActivateNotification>
	/*
  Domain D2 goes to STOP mode (Cortex-M4 in deep-sleep) waiting for Cortex-M7 to
  perform system initialization (system clock config, external memory configuration.. )
	 */
	HAL_PWREx_ClearPendingEvent();
 8100d0e:	f002 fffb 	bl	8103d08 <HAL_PWREx_ClearPendingEvent>
	HAL_PWREx_EnterSTOPMode(PWR_MAINREGULATOR_ON, PWR_STOPENTRY_WFE, PWR_D2_DOMAIN);
 8100d12:	2201      	movs	r2, #1
 8100d14:	2102      	movs	r1, #2
 8100d16:	2000      	movs	r0, #0
 8100d18:	f002 ff7c 	bl	8103c14 <HAL_PWREx_EnterSTOPMode>
	/* Clear HSEM flag */
	__HAL_HSEM_CLEAR_FLAG(__HAL_HSEM_SEMID_TO_MASK(HSEM_ID_0));
 8100d1c:	4b67      	ldr	r3, [pc, #412]	; (8100ebc <main+0x1d8>)
 8100d1e:	681b      	ldr	r3, [r3, #0]
 8100d20:	091b      	lsrs	r3, r3, #4
 8100d22:	f003 030f 	and.w	r3, r3, #15
 8100d26:	2b07      	cmp	r3, #7
 8100d28:	d108      	bne.n	8100d3c <main+0x58>
 8100d2a:	4b65      	ldr	r3, [pc, #404]	; (8100ec0 <main+0x1dc>)
 8100d2c:	f8d3 3104 	ldr.w	r3, [r3, #260]	; 0x104
 8100d30:	4a63      	ldr	r2, [pc, #396]	; (8100ec0 <main+0x1dc>)
 8100d32:	f043 0301 	orr.w	r3, r3, #1
 8100d36:	f8c2 3104 	str.w	r3, [r2, #260]	; 0x104
 8100d3a:	e007      	b.n	8100d4c <main+0x68>
 8100d3c:	4b60      	ldr	r3, [pc, #384]	; (8100ec0 <main+0x1dc>)
 8100d3e:	f8d3 3114 	ldr.w	r3, [r3, #276]	; 0x114
 8100d42:	4a5f      	ldr	r2, [pc, #380]	; (8100ec0 <main+0x1dc>)
 8100d44:	f043 0301 	orr.w	r3, r3, #1
 8100d48:	f8c2 3114 	str.w	r3, [r2, #276]	; 0x114

	/* USER CODE END Boot_Mode_Sequence_1 */
	/* MCU Configuration--------------------------------------------------------*/

	/* Reset of all peripherals, Initializes the Flash interface and the Systick. */
	HAL_Init();
 8100d4c:	f000 fc6a 	bl	8101624 <HAL_Init>
	/* USER CODE BEGIN SysInit */

	/* USER CODE END SysInit */

	/* Initialize all configured peripherals */
	MX_GPIO_Init();
 8100d50:	f000 fa56 	bl	8101200 <MX_GPIO_Init>
	MX_DMA_Init();
 8100d54:	f000 fa2c 	bl	81011b0 <MX_DMA_Init>
	MX_SPI1_Init();
 8100d58:	f000 f9d4 	bl	8101104 <MX_SPI1_Init>
	/* USER CODE BEGIN 2 */

	// MC14515 Handle Init
	MC14515.STPort = GPIOC;
 8100d5c:	4b59      	ldr	r3, [pc, #356]	; (8100ec4 <main+0x1e0>)
 8100d5e:	4a5a      	ldr	r2, [pc, #360]	; (8100ec8 <main+0x1e4>)
 8100d60:	601a      	str	r2, [r3, #0]
	MC14515.STPin = GPIO_PIN_6;
 8100d62:	4b58      	ldr	r3, [pc, #352]	; (8100ec4 <main+0x1e0>)
 8100d64:	2240      	movs	r2, #64	; 0x40
 8100d66:	831a      	strh	r2, [r3, #24]
	MC14515.INHPort = GPIOB;
 8100d68:	4b56      	ldr	r3, [pc, #344]	; (8100ec4 <main+0x1e0>)
 8100d6a:	4a58      	ldr	r2, [pc, #352]	; (8100ecc <main+0x1e8>)
 8100d6c:	605a      	str	r2, [r3, #4]
	MC14515.INHPin = GPIO_PIN_8;
 8100d6e:	4b55      	ldr	r3, [pc, #340]	; (8100ec4 <main+0x1e0>)
 8100d70:	f44f 7280 	mov.w	r2, #256	; 0x100
 8100d74:	835a      	strh	r2, [r3, #26]
	MC14515.D1Port = GPIOB;
 8100d76:	4b53      	ldr	r3, [pc, #332]	; (8100ec4 <main+0x1e0>)
 8100d78:	4a54      	ldr	r2, [pc, #336]	; (8100ecc <main+0x1e8>)
 8100d7a:	609a      	str	r2, [r3, #8]
	MC14515.D1Pin = GPIO_PIN_15;
 8100d7c:	4b51      	ldr	r3, [pc, #324]	; (8100ec4 <main+0x1e0>)
 8100d7e:	f44f 4200 	mov.w	r2, #32768	; 0x8000
 8100d82:	839a      	strh	r2, [r3, #28]
	MC14515.D2Port = GPIOB;
 8100d84:	4b4f      	ldr	r3, [pc, #316]	; (8100ec4 <main+0x1e0>)
 8100d86:	4a51      	ldr	r2, [pc, #324]	; (8100ecc <main+0x1e8>)
 8100d88:	60da      	str	r2, [r3, #12]
	MC14515.D2Pin = GPIO_PIN_12;
 8100d8a:	4b4e      	ldr	r3, [pc, #312]	; (8100ec4 <main+0x1e0>)
 8100d8c:	f44f 5280 	mov.w	r2, #4096	; 0x1000
 8100d90:	83da      	strh	r2, [r3, #30]
	MC14515.D3Port = GPIOB;
 8100d92:	4b4c      	ldr	r3, [pc, #304]	; (8100ec4 <main+0x1e0>)
 8100d94:	4a4d      	ldr	r2, [pc, #308]	; (8100ecc <main+0x1e8>)
 8100d96:	611a      	str	r2, [r3, #16]
	MC14515.D3Pin = GPIO_PIN_9;
 8100d98:	4b4a      	ldr	r3, [pc, #296]	; (8100ec4 <main+0x1e0>)
 8100d9a:	f44f 7200 	mov.w	r2, #512	; 0x200
 8100d9e:	841a      	strh	r2, [r3, #32]
	MC14515.D4Port = GPIOC;
 8100da0:	4b48      	ldr	r3, [pc, #288]	; (8100ec4 <main+0x1e0>)
 8100da2:	4a49      	ldr	r2, [pc, #292]	; (8100ec8 <main+0x1e4>)
 8100da4:	615a      	str	r2, [r3, #20]
	MC14515.D4Pin = GPIO_PIN_7;
 8100da6:	4b47      	ldr	r3, [pc, #284]	; (8100ec4 <main+0x1e0>)
 8100da8:	2280      	movs	r2, #128	; 0x80
 8100daa:	845a      	strh	r2, [r3, #34]	; 0x22

	// Reset MC14515
	MC14515_Set_Output_All_High(&MC14515);
 8100dac:	4845      	ldr	r0, [pc, #276]	; (8100ec4 <main+0x1e0>)
 8100dae:	f7ff fd31 	bl	8100814 <MC14515_Set_Output_All_High>

	// Reset MFRC522
	HAL_GPIO_WritePin(RC522_Rst_GPIO_Port, RC522_Rst_Pin, GPIO_PIN_SET);
 8100db2:	2201      	movs	r2, #1
 8100db4:	2120      	movs	r1, #32
 8100db6:	4845      	ldr	r0, [pc, #276]	; (8100ecc <main+0x1e8>)
 8100db8:	f002 fee6 	bl	8103b88 <HAL_GPIO_WritePin>
	HAL_Delay(10);
 8100dbc:	200a      	movs	r0, #10
 8100dbe:	f000 fce5 	bl	810178c <HAL_Delay>

	// Init MFRC522
	for (int i = 0; i < MFRC522_SLAVE_MAX; ++i)
 8100dc2:	2300      	movs	r3, #0
 8100dc4:	617b      	str	r3, [r7, #20]
 8100dc6:	e007      	b.n	8100dd8 <main+0xf4>
	{
		MFRC522_Init(i);
 8100dc8:	697b      	ldr	r3, [r7, #20]
 8100dca:	b29b      	uxth	r3, r3
 8100dcc:	4618      	mov	r0, r3
 8100dce:	f7ff fe06 	bl	81009de <MFRC522_Init>
	for (int i = 0; i < MFRC522_SLAVE_MAX; ++i)
 8100dd2:	697b      	ldr	r3, [r7, #20]
 8100dd4:	3301      	adds	r3, #1
 8100dd6:	617b      	str	r3, [r7, #20]
 8100dd8:	697b      	ldr	r3, [r7, #20]
 8100dda:	2b0b      	cmp	r3, #11
 8100ddc:	ddf4      	ble.n	8100dc8 <main+0xe4>
	}

	// RFID Handle Init
	ptrRFIDMain = &RFIDMain;
 8100dde:	4b3c      	ldr	r3, [pc, #240]	; (8100ed0 <main+0x1ec>)
 8100de0:	4a3c      	ldr	r2, [pc, #240]	; (8100ed4 <main+0x1f0>)
 8100de2:	601a      	str	r2, [r3, #0]
	status = MFRC522_Read_Data(VersionReg,slave_num);
 8100de4:	4b3c      	ldr	r3, [pc, #240]	; (8100ed8 <main+0x1f4>)
 8100de6:	881b      	ldrh	r3, [r3, #0]
 8100de8:	4619      	mov	r1, r3
 8100dea:	2037      	movs	r0, #55	; 0x37
 8100dec:	f7ff fd5e 	bl	81008ac <MFRC522_Read_Data>
 8100df0:	4603      	mov	r3, r0
 8100df2:	461a      	mov	r2, r3
 8100df4:	4b39      	ldr	r3, [pc, #228]	; (8100edc <main+0x1f8>)
 8100df6:	701a      	strb	r2, [r3, #0]
	ptrRFIDMain->status = status;
 8100df8:	4b35      	ldr	r3, [pc, #212]	; (8100ed0 <main+0x1ec>)
 8100dfa:	681b      	ldr	r3, [r3, #0]
 8100dfc:	4a37      	ldr	r2, [pc, #220]	; (8100edc <main+0x1f8>)
 8100dfe:	7812      	ldrb	r2, [r2, #0]
 8100e00:	709a      	strb	r2, [r3, #2]
	for (uint8_t  i = 0; i < RFID_NUM_MAX; ++i)
 8100e02:	2300      	movs	r3, #0
 8100e04:	74fb      	strb	r3, [r7, #19]
 8100e06:	e016      	b.n	8100e36 <main+0x152>
	{
		ptrRFID = &RFIDMain.RFID[i];
 8100e08:	7cfa      	ldrb	r2, [r7, #19]
 8100e0a:	4613      	mov	r3, r2
 8100e0c:	005b      	lsls	r3, r3, #1
 8100e0e:	4413      	add	r3, r2
 8100e10:	011b      	lsls	r3, r3, #4
 8100e12:	3328      	adds	r3, #40	; 0x28
 8100e14:	4a2f      	ldr	r2, [pc, #188]	; (8100ed4 <main+0x1f0>)
 8100e16:	4413      	add	r3, r2
 8100e18:	4a31      	ldr	r2, [pc, #196]	; (8100ee0 <main+0x1fc>)
 8100e1a:	6013      	str	r3, [r2, #0]
		ptrRFID->slaveAddr = i;
 8100e1c:	4b30      	ldr	r3, [pc, #192]	; (8100ee0 <main+0x1fc>)
 8100e1e:	681b      	ldr	r3, [r3, #0]
 8100e20:	7cfa      	ldrb	r2, [r7, #19]
 8100e22:	b292      	uxth	r2, r2
 8100e24:	801a      	strh	r2, [r3, #0]
		ptrRFID->status = status;
 8100e26:	4b2e      	ldr	r3, [pc, #184]	; (8100ee0 <main+0x1fc>)
 8100e28:	681b      	ldr	r3, [r3, #0]
 8100e2a:	4a2c      	ldr	r2, [pc, #176]	; (8100edc <main+0x1f8>)
 8100e2c:	7812      	ldrb	r2, [r2, #0]
 8100e2e:	709a      	strb	r2, [r3, #2]
	for (uint8_t  i = 0; i < RFID_NUM_MAX; ++i)
 8100e30:	7cfb      	ldrb	r3, [r7, #19]
 8100e32:	3301      	adds	r3, #1
 8100e34:	74fb      	strb	r3, [r7, #19]
 8100e36:	7cfb      	ldrb	r3, [r7, #19]
 8100e38:	2b0b      	cmp	r3, #11
 8100e3a:	d9e5      	bls.n	8100e08 <main+0x124>
		//		RFIDMain.RFID[i].status = status;
		//		RFIDMain.RFID[11].status = status;
		//		RFIDMain.RFID[i].status = 1;
	}
	testvar = 0;
 8100e3c:	4b29      	ldr	r3, [pc, #164]	; (8100ee4 <main+0x200>)
 8100e3e:	2200      	movs	r2, #0
 8100e40:	601a      	str	r2, [r3, #0]

	/* Infinite loop */
	/* USER CODE BEGIN WHILE */
	while (1)
	{
		if(HAL_GetTick() - timemsM4 > 200)
 8100e42:	f000 fc97 	bl	8101774 <HAL_GetTick>
 8100e46:	4602      	mov	r2, r0
 8100e48:	4b27      	ldr	r3, [pc, #156]	; (8100ee8 <main+0x204>)
 8100e4a:	681b      	ldr	r3, [r3, #0]
 8100e4c:	1ad3      	subs	r3, r2, r3
 8100e4e:	2bc8      	cmp	r3, #200	; 0xc8
 8100e50:	f240 8129 	bls.w	81010a6 <main+0x3c2>
		{
			timemsM4 = HAL_GetTick();
 8100e54:	f000 fc8e 	bl	8101774 <HAL_GetTick>
 8100e58:	4603      	mov	r3, r0
 8100e5a:	4a23      	ldr	r2, [pc, #140]	; (8100ee8 <main+0x204>)
 8100e5c:	6013      	str	r3, [r2, #0]
			// Update Slave number and Update RFID PTR
			slave_num = (slave_num + 1) % MFRC522_SLAVE_MAX ;
 8100e5e:	4b1e      	ldr	r3, [pc, #120]	; (8100ed8 <main+0x1f4>)
 8100e60:	881b      	ldrh	r3, [r3, #0]
 8100e62:	1c5a      	adds	r2, r3, #1
 8100e64:	4b21      	ldr	r3, [pc, #132]	; (8100eec <main+0x208>)
 8100e66:	fb83 1302 	smull	r1, r3, r3, r2
 8100e6a:	1059      	asrs	r1, r3, #1
 8100e6c:	17d3      	asrs	r3, r2, #31
 8100e6e:	1ac9      	subs	r1, r1, r3
 8100e70:	460b      	mov	r3, r1
 8100e72:	005b      	lsls	r3, r3, #1
 8100e74:	440b      	add	r3, r1
 8100e76:	009b      	lsls	r3, r3, #2
 8100e78:	1ad1      	subs	r1, r2, r3
 8100e7a:	b28a      	uxth	r2, r1
 8100e7c:	4b16      	ldr	r3, [pc, #88]	; (8100ed8 <main+0x1f4>)
 8100e7e:	801a      	strh	r2, [r3, #0]
			ptrRFIDMain->slaveNum = slave_num;
 8100e80:	4b13      	ldr	r3, [pc, #76]	; (8100ed0 <main+0x1ec>)
 8100e82:	681b      	ldr	r3, [r3, #0]
 8100e84:	4a14      	ldr	r2, [pc, #80]	; (8100ed8 <main+0x1f4>)
 8100e86:	8812      	ldrh	r2, [r2, #0]
 8100e88:	801a      	strh	r2, [r3, #0]
			ptrRFID = &RFIDMain.RFID[RFIDMain.slaveNum];
 8100e8a:	4b12      	ldr	r3, [pc, #72]	; (8100ed4 <main+0x1f0>)
 8100e8c:	881b      	ldrh	r3, [r3, #0]
 8100e8e:	461a      	mov	r2, r3
 8100e90:	4613      	mov	r3, r2
 8100e92:	005b      	lsls	r3, r3, #1
 8100e94:	4413      	add	r3, r2
 8100e96:	011b      	lsls	r3, r3, #4
 8100e98:	3328      	adds	r3, #40	; 0x28
 8100e9a:	4a0e      	ldr	r2, [pc, #56]	; (8100ed4 <main+0x1f0>)
 8100e9c:	4413      	add	r3, r2
 8100e9e:	4a10      	ldr	r2, [pc, #64]	; (8100ee0 <main+0x1fc>)
 8100ea0:	6013      	str	r3, [r2, #0]
			if(hspi1.State == HAL_SPI_STATE_READY)
 8100ea2:	4b13      	ldr	r3, [pc, #76]	; (8100ef0 <main+0x20c>)
 8100ea4:	f893 3081 	ldrb.w	r3, [r3, #129]	; 0x81
 8100ea8:	b2db      	uxtb	r3, r3
 8100eaa:	2b01      	cmp	r3, #1
 8100eac:	f040 80fb 	bne.w	81010a6 <main+0x3c2>
			{
				for (int i = 0; i < 16; i++)
 8100eb0:	2300      	movs	r3, #0
 8100eb2:	60fb      	str	r3, [r7, #12]
 8100eb4:	e031      	b.n	8100f1a <main+0x236>
 8100eb6:	bf00      	nop
 8100eb8:	58024400 	.word	0x58024400
 8100ebc:	e000ed00 	.word	0xe000ed00
 8100ec0:	58026400 	.word	0x58026400
 8100ec4:	100001a4 	.word	0x100001a4
 8100ec8:	58020800 	.word	0x58020800
 8100ecc:	58020400 	.word	0x58020400
 8100ed0:	10000430 	.word	0x10000430
 8100ed4:	100001c8 	.word	0x100001c8
 8100ed8:	10000448 	.word	0x10000448
 8100edc:	1000044a 	.word	0x1000044a
 8100ee0:	10000434 	.word	0x10000434
 8100ee4:	10000460 	.word	0x10000460
 8100ee8:	10000440 	.word	0x10000440
 8100eec:	2aaaaaab 	.word	0x2aaaaaab
 8100ef0:	1000002c 	.word	0x1000002c
				{
					// Clear cardstr
					cardstr[i] = 0;
 8100ef4:	4a78      	ldr	r2, [pc, #480]	; (81010d8 <main+0x3f4>)
 8100ef6:	68fb      	ldr	r3, [r7, #12]
 8100ef8:	4413      	add	r3, r2
 8100efa:	2200      	movs	r2, #0
 8100efc:	701a      	strb	r2, [r3, #0]
					ptrRFIDMain->cardStr[i] = cardstr[i];
 8100efe:	4b77      	ldr	r3, [pc, #476]	; (81010dc <main+0x3f8>)
 8100f00:	681a      	ldr	r2, [r3, #0]
 8100f02:	4975      	ldr	r1, [pc, #468]	; (81010d8 <main+0x3f4>)
 8100f04:	68fb      	ldr	r3, [r7, #12]
 8100f06:	440b      	add	r3, r1
 8100f08:	7819      	ldrb	r1, [r3, #0]
 8100f0a:	68fb      	ldr	r3, [r7, #12]
 8100f0c:	4413      	add	r3, r2
 8100f0e:	3303      	adds	r3, #3
 8100f10:	460a      	mov	r2, r1
 8100f12:	701a      	strb	r2, [r3, #0]
				for (int i = 0; i < 16; i++)
 8100f14:	68fb      	ldr	r3, [r7, #12]
 8100f16:	3301      	adds	r3, #1
 8100f18:	60fb      	str	r3, [r7, #12]
 8100f1a:	68fb      	ldr	r3, [r7, #12]
 8100f1c:	2b0f      	cmp	r3, #15
 8100f1e:	dde9      	ble.n	8100ef4 <main+0x210>
				}
				status = 99;
 8100f20:	4b6f      	ldr	r3, [pc, #444]	; (81010e0 <main+0x3fc>)
 8100f22:	2263      	movs	r2, #99	; 0x63
 8100f24:	701a      	strb	r2, [r3, #0]
				ptrRFIDMain->status = status;
 8100f26:	4b6d      	ldr	r3, [pc, #436]	; (81010dc <main+0x3f8>)
 8100f28:	681b      	ldr	r3, [r3, #0]
 8100f2a:	4a6d      	ldr	r2, [pc, #436]	; (81010e0 <main+0x3fc>)
 8100f2c:	7812      	ldrb	r2, [r2, #0]
 8100f2e:	709a      	strb	r2, [r3, #2]
				ptrRFID->status =status;
 8100f30:	4b6c      	ldr	r3, [pc, #432]	; (81010e4 <main+0x400>)
 8100f32:	681b      	ldr	r3, [r3, #0]
 8100f34:	4a6a      	ldr	r2, [pc, #424]	; (81010e0 <main+0x3fc>)
 8100f36:	7812      	ldrb	r2, [r2, #0]
 8100f38:	709a      	strb	r2, [r3, #2]
				// Find cards
				status = MFRC522_Request(PICC_REQIDL, cardstr,slave_num);
 8100f3a:	4b6b      	ldr	r3, [pc, #428]	; (81010e8 <main+0x404>)
 8100f3c:	881b      	ldrh	r3, [r3, #0]
 8100f3e:	461a      	mov	r2, r3
 8100f40:	4965      	ldr	r1, [pc, #404]	; (81010d8 <main+0x3f4>)
 8100f42:	2026      	movs	r0, #38	; 0x26
 8100f44:	f7ff fd80 	bl	8100a48 <MFRC522_Request>
 8100f48:	4603      	mov	r3, r0
 8100f4a:	461a      	mov	r2, r3
 8100f4c:	4b64      	ldr	r3, [pc, #400]	; (81010e0 <main+0x3fc>)
 8100f4e:	701a      	strb	r2, [r3, #0]
				ptrRFIDMain->status = status;
 8100f50:	4b62      	ldr	r3, [pc, #392]	; (81010dc <main+0x3f8>)
 8100f52:	681b      	ldr	r3, [r3, #0]
 8100f54:	4a62      	ldr	r2, [pc, #392]	; (81010e0 <main+0x3fc>)
 8100f56:	7812      	ldrb	r2, [r2, #0]
 8100f58:	709a      	strb	r2, [r3, #2]
				ptrRFID->status =status;
 8100f5a:	4b62      	ldr	r3, [pc, #392]	; (81010e4 <main+0x400>)
 8100f5c:	681b      	ldr	r3, [r3, #0]
 8100f5e:	4a60      	ldr	r2, [pc, #384]	; (81010e0 <main+0x3fc>)
 8100f60:	7812      	ldrb	r2, [r2, #0]
 8100f62:	709a      	strb	r2, [r3, #2]
				if(status == MI_OK)
 8100f64:	4b5e      	ldr	r3, [pc, #376]	; (81010e0 <main+0x3fc>)
 8100f66:	781b      	ldrb	r3, [r3, #0]
 8100f68:	2b00      	cmp	r3, #0
 8100f6a:	f040 809c 	bne.w	81010a6 <main+0x3c2>
				{
					status = MFRC522_Anticoll(cardstr,slave_num);
 8100f6e:	4b5e      	ldr	r3, [pc, #376]	; (81010e8 <main+0x404>)
 8100f70:	881b      	ldrh	r3, [r3, #0]
 8100f72:	4619      	mov	r1, r3
 8100f74:	4858      	ldr	r0, [pc, #352]	; (81010d8 <main+0x3f4>)
 8100f76:	f7ff fe72 	bl	8100c5e <MFRC522_Anticoll>
 8100f7a:	4603      	mov	r3, r0
 8100f7c:	461a      	mov	r2, r3
 8100f7e:	4b58      	ldr	r3, [pc, #352]	; (81010e0 <main+0x3fc>)
 8100f80:	701a      	strb	r2, [r3, #0]
					ptrRFIDMain->status = status;
 8100f82:	4b56      	ldr	r3, [pc, #344]	; (81010dc <main+0x3f8>)
 8100f84:	681b      	ldr	r3, [r3, #0]
 8100f86:	4a56      	ldr	r2, [pc, #344]	; (81010e0 <main+0x3fc>)
 8100f88:	7812      	ldrb	r2, [r2, #0]
 8100f8a:	709a      	strb	r2, [r3, #2]
					ptrRFID->status =status;
 8100f8c:	4b55      	ldr	r3, [pc, #340]	; (81010e4 <main+0x400>)
 8100f8e:	681b      	ldr	r3, [r3, #0]
 8100f90:	4a53      	ldr	r2, [pc, #332]	; (81010e0 <main+0x3fc>)
 8100f92:	7812      	ldrb	r2, [r2, #0]
 8100f94:	709a      	strb	r2, [r3, #2]
					if(status == MI_OK)
 8100f96:	4b52      	ldr	r3, [pc, #328]	; (81010e0 <main+0x3fc>)
 8100f98:	781b      	ldrb	r3, [r3, #0]
 8100f9a:	2b00      	cmp	r3, #0
 8100f9c:	f040 8083 	bne.w	81010a6 <main+0x3c2>
					{
						// Update Card PTR
						ptrCard =  &RFIDMain.RFID[RFIDMain.slaveNum].detectedCard;
 8100fa0:	4b52      	ldr	r3, [pc, #328]	; (81010ec <main+0x408>)
 8100fa2:	881b      	ldrh	r3, [r3, #0]
 8100fa4:	461a      	mov	r2, r3
 8100fa6:	4613      	mov	r3, r2
 8100fa8:	005b      	lsls	r3, r3, #1
 8100faa:	4413      	add	r3, r2
 8100fac:	011b      	lsls	r3, r3, #4
 8100fae:	3328      	adds	r3, #40	; 0x28
 8100fb0:	4a4e      	ldr	r2, [pc, #312]	; (81010ec <main+0x408>)
 8100fb2:	4413      	add	r3, r2
 8100fb4:	3304      	adds	r3, #4
 8100fb6:	4a4e      	ldr	r2, [pc, #312]	; (81010f0 <main+0x40c>)
 8100fb8:	6013      	str	r3, [r2, #0]
						// Update detected Card
						ptrCard->Cardbit.bit0 = cardstr[0];
 8100fba:	4b4d      	ldr	r3, [pc, #308]	; (81010f0 <main+0x40c>)
 8100fbc:	681b      	ldr	r3, [r3, #0]
 8100fbe:	4a46      	ldr	r2, [pc, #280]	; (81010d8 <main+0x3f4>)
 8100fc0:	7812      	ldrb	r2, [r2, #0]
 8100fc2:	701a      	strb	r2, [r3, #0]
						ptrCard->Cardbit.bit1 = cardstr[1];
 8100fc4:	4b4a      	ldr	r3, [pc, #296]	; (81010f0 <main+0x40c>)
 8100fc6:	681b      	ldr	r3, [r3, #0]
 8100fc8:	4a43      	ldr	r2, [pc, #268]	; (81010d8 <main+0x3f4>)
 8100fca:	7852      	ldrb	r2, [r2, #1]
 8100fcc:	705a      	strb	r2, [r3, #1]
						ptrCard->Cardbit.bit2 = cardstr[2];
 8100fce:	4b48      	ldr	r3, [pc, #288]	; (81010f0 <main+0x40c>)
 8100fd0:	681b      	ldr	r3, [r3, #0]
 8100fd2:	4a41      	ldr	r2, [pc, #260]	; (81010d8 <main+0x3f4>)
 8100fd4:	7892      	ldrb	r2, [r2, #2]
 8100fd6:	709a      	strb	r2, [r3, #2]
						ptrCard->Cardbit.bit3 = cardstr[3];
 8100fd8:	4b45      	ldr	r3, [pc, #276]	; (81010f0 <main+0x40c>)
 8100fda:	681b      	ldr	r3, [r3, #0]
 8100fdc:	4a3e      	ldr	r2, [pc, #248]	; (81010d8 <main+0x3f4>)
 8100fde:	78d2      	ldrb	r2, [r2, #3]
 8100fe0:	70da      	strb	r2, [r3, #3]
						// Update Card Memory
						for (int i = CARD_BUFF_LEN; i >= 1 ; i--)
 8100fe2:	2304      	movs	r3, #4
 8100fe4:	60bb      	str	r3, [r7, #8]
 8100fe6:	e058      	b.n	810109a <main+0x3b6>
						{
							//							*(ptrYugiohCardMEM + i) = *(ptrYugiohCardMEM + i + 1);
							ptrYugiohCardMEM = &RFIDMain.RFID[RFIDMain.slaveNum].bufferCard[i];
 8100fe8:	4b40      	ldr	r3, [pc, #256]	; (81010ec <main+0x408>)
 8100fea:	881b      	ldrh	r3, [r3, #0]
 8100fec:	461a      	mov	r2, r3
 8100fee:	4613      	mov	r3, r2
 8100ff0:	005b      	lsls	r3, r3, #1
 8100ff2:	4413      	add	r3, r2
 8100ff4:	005b      	lsls	r3, r3, #1
 8100ff6:	68ba      	ldr	r2, [r7, #8]
 8100ff8:	4413      	add	r3, r2
 8100ffa:	3307      	adds	r3, #7
 8100ffc:	00db      	lsls	r3, r3, #3
 8100ffe:	4a3b      	ldr	r2, [pc, #236]	; (81010ec <main+0x408>)
 8101000:	4413      	add	r3, r2
 8101002:	4a3c      	ldr	r2, [pc, #240]	; (81010f4 <main+0x410>)
 8101004:	6013      	str	r3, [r2, #0]
							ptrYugiohCardMEM->cardData = RFIDMain.RFID[RFIDMain.slaveNum].bufferCard[i-1].cardData;
 8101006:	4b39      	ldr	r3, [pc, #228]	; (81010ec <main+0x408>)
 8101008:	881b      	ldrh	r3, [r3, #0]
 810100a:	461c      	mov	r4, r3
 810100c:	68bb      	ldr	r3, [r7, #8]
 810100e:	1e59      	subs	r1, r3, #1
 8101010:	4b38      	ldr	r3, [pc, #224]	; (81010f4 <main+0x410>)
 8101012:	681a      	ldr	r2, [r3, #0]
 8101014:	4835      	ldr	r0, [pc, #212]	; (81010ec <main+0x408>)
 8101016:	4623      	mov	r3, r4
 8101018:	005b      	lsls	r3, r3, #1
 810101a:	4423      	add	r3, r4
 810101c:	005b      	lsls	r3, r3, #1
 810101e:	440b      	add	r3, r1
 8101020:	3307      	adds	r3, #7
 8101022:	00db      	lsls	r3, r3, #3
 8101024:	4403      	add	r3, r0
 8101026:	685b      	ldr	r3, [r3, #4]
 8101028:	6053      	str	r3, [r2, #4]
							ptrYugiohCardMEM->cardSignature = RFIDMain.RFID[RFIDMain.slaveNum].bufferCard[i-1].cardSignature;
 810102a:	4b30      	ldr	r3, [pc, #192]	; (81010ec <main+0x408>)
 810102c:	881b      	ldrh	r3, [r3, #0]
 810102e:	461c      	mov	r4, r3
 8101030:	68bb      	ldr	r3, [r7, #8]
 8101032:	1e59      	subs	r1, r3, #1
 8101034:	4b2f      	ldr	r3, [pc, #188]	; (81010f4 <main+0x410>)
 8101036:	681a      	ldr	r2, [r3, #0]
 8101038:	482c      	ldr	r0, [pc, #176]	; (81010ec <main+0x408>)
 810103a:	4623      	mov	r3, r4
 810103c:	005b      	lsls	r3, r3, #1
 810103e:	4423      	add	r3, r4
 8101040:	005b      	lsls	r3, r3, #1
 8101042:	440b      	add	r3, r1
 8101044:	3307      	adds	r3, #7
 8101046:	f810 3033 	ldrb.w	r3, [r0, r3, lsl #3]
 810104a:	7013      	strb	r3, [r2, #0]
							ptrYugiohCardMEM->cardState = RFIDMain.RFID[RFIDMain.slaveNum].bufferCard[i-1].cardState;
 810104c:	4b27      	ldr	r3, [pc, #156]	; (81010ec <main+0x408>)
 810104e:	881b      	ldrh	r3, [r3, #0]
 8101050:	461c      	mov	r4, r3
 8101052:	68bb      	ldr	r3, [r7, #8]
 8101054:	1e59      	subs	r1, r3, #1
 8101056:	4b27      	ldr	r3, [pc, #156]	; (81010f4 <main+0x410>)
 8101058:	681a      	ldr	r2, [r3, #0]
 810105a:	4824      	ldr	r0, [pc, #144]	; (81010ec <main+0x408>)
 810105c:	4623      	mov	r3, r4
 810105e:	005b      	lsls	r3, r3, #1
 8101060:	4423      	add	r3, r4
 8101062:	005b      	lsls	r3, r3, #1
 8101064:	440b      	add	r3, r1
 8101066:	3307      	adds	r3, #7
 8101068:	00db      	lsls	r3, r3, #3
 810106a:	4403      	add	r3, r0
 810106c:	789b      	ldrb	r3, [r3, #2]
 810106e:	7093      	strb	r3, [r2, #2]
							ptrYugiohCardMEM->cardType = RFIDMain.RFID[RFIDMain.slaveNum].bufferCard[i-1].cardType;
 8101070:	4b1e      	ldr	r3, [pc, #120]	; (81010ec <main+0x408>)
 8101072:	881b      	ldrh	r3, [r3, #0]
 8101074:	461c      	mov	r4, r3
 8101076:	68bb      	ldr	r3, [r7, #8]
 8101078:	1e59      	subs	r1, r3, #1
 810107a:	4b1e      	ldr	r3, [pc, #120]	; (81010f4 <main+0x410>)
 810107c:	681a      	ldr	r2, [r3, #0]
 810107e:	481b      	ldr	r0, [pc, #108]	; (81010ec <main+0x408>)
 8101080:	4623      	mov	r3, r4
 8101082:	005b      	lsls	r3, r3, #1
 8101084:	4423      	add	r3, r4
 8101086:	005b      	lsls	r3, r3, #1
 8101088:	440b      	add	r3, r1
 810108a:	3307      	adds	r3, #7
 810108c:	00db      	lsls	r3, r3, #3
 810108e:	4403      	add	r3, r0
 8101090:	785b      	ldrb	r3, [r3, #1]
 8101092:	7053      	strb	r3, [r2, #1]
						for (int i = CARD_BUFF_LEN; i >= 1 ; i--)
 8101094:	68bb      	ldr	r3, [r7, #8]
 8101096:	3b01      	subs	r3, #1
 8101098:	60bb      	str	r3, [r7, #8]
 810109a:	68bb      	ldr	r3, [r7, #8]
 810109c:	2b00      	cmp	r3, #0
 810109e:	dca3      	bgt.n	8100fe8 <main+0x304>
						}
						YUGIOH_card_register(&RFIDMain);
 81010a0:	4812      	ldr	r0, [pc, #72]	; (81010ec <main+0x408>)
 81010a2:	f7ff f931 	bl	8100308 <YUGIOH_card_register>
			}
		}
		/* USER CODE END WHILE */

		/* USER CODE BEGIN 3 */
		if(HAL_GetTick() - timemsM4_LED > 1000)
 81010a6:	f000 fb65 	bl	8101774 <HAL_GetTick>
 81010aa:	4602      	mov	r2, r0
 81010ac:	4b12      	ldr	r3, [pc, #72]	; (81010f8 <main+0x414>)
 81010ae:	681b      	ldr	r3, [r3, #0]
 81010b0:	1ad3      	subs	r3, r2, r3
 81010b2:	f5b3 7f7a 	cmp.w	r3, #1000	; 0x3e8
 81010b6:	f67f aec4 	bls.w	8100e42 <main+0x15e>
		{
			testvar += 1;
 81010ba:	4b10      	ldr	r3, [pc, #64]	; (81010fc <main+0x418>)
 81010bc:	681b      	ldr	r3, [r3, #0]
 81010be:	3301      	adds	r3, #1
 81010c0:	4a0e      	ldr	r2, [pc, #56]	; (81010fc <main+0x418>)
 81010c2:	6013      	str	r3, [r2, #0]
			timemsM4_LED = HAL_GetTick();
 81010c4:	f000 fb56 	bl	8101774 <HAL_GetTick>
 81010c8:	4603      	mov	r3, r0
 81010ca:	4a0b      	ldr	r2, [pc, #44]	; (81010f8 <main+0x414>)
 81010cc:	6013      	str	r3, [r2, #0]
			HAL_GPIO_TogglePin(LD2_GPIO_Port, LD2_Pin);
 81010ce:	2102      	movs	r1, #2
 81010d0:	480b      	ldr	r0, [pc, #44]	; (8101100 <main+0x41c>)
 81010d2:	f002 fd72 	bl	8103bba <HAL_GPIO_TogglePin>
		if(HAL_GetTick() - timemsM4 > 200)
 81010d6:	e6b4      	b.n	8100e42 <main+0x15e>
 81010d8:	1000044c 	.word	0x1000044c
 81010dc:	10000430 	.word	0x10000430
 81010e0:	1000044a 	.word	0x1000044a
 81010e4:	10000434 	.word	0x10000434
 81010e8:	10000448 	.word	0x10000448
 81010ec:	100001c8 	.word	0x100001c8
 81010f0:	10000438 	.word	0x10000438
 81010f4:	1000043c 	.word	0x1000043c
 81010f8:	10000444 	.word	0x10000444
 81010fc:	10000460 	.word	0x10000460
 8101100:	58021000 	.word	0x58021000

08101104 <MX_SPI1_Init>:
 * @brief SPI1 Initialization Function
 * @param None
 * @retval None
 */
static void MX_SPI1_Init(void)
{
 8101104:	b580      	push	{r7, lr}
 8101106:	af00      	add	r7, sp, #0

	/* USER CODE BEGIN SPI1_Init 1 */

	/* USER CODE END SPI1_Init 1 */
	/* SPI1 parameter configuration*/
	hspi1.Instance = SPI1;
 8101108:	4b27      	ldr	r3, [pc, #156]	; (81011a8 <MX_SPI1_Init+0xa4>)
 810110a:	4a28      	ldr	r2, [pc, #160]	; (81011ac <MX_SPI1_Init+0xa8>)
 810110c:	601a      	str	r2, [r3, #0]
	hspi1.Init.Mode = SPI_MODE_MASTER;
 810110e:	4b26      	ldr	r3, [pc, #152]	; (81011a8 <MX_SPI1_Init+0xa4>)
 8101110:	f44f 0280 	mov.w	r2, #4194304	; 0x400000
 8101114:	605a      	str	r2, [r3, #4]
	hspi1.Init.Direction = SPI_DIRECTION_2LINES;
 8101116:	4b24      	ldr	r3, [pc, #144]	; (81011a8 <MX_SPI1_Init+0xa4>)
 8101118:	2200      	movs	r2, #0
 810111a:	609a      	str	r2, [r3, #8]
	hspi1.Init.DataSize = SPI_DATASIZE_8BIT;
 810111c:	4b22      	ldr	r3, [pc, #136]	; (81011a8 <MX_SPI1_Init+0xa4>)
 810111e:	2207      	movs	r2, #7
 8101120:	60da      	str	r2, [r3, #12]
	hspi1.Init.CLKPolarity = SPI_POLARITY_LOW;
 8101122:	4b21      	ldr	r3, [pc, #132]	; (81011a8 <MX_SPI1_Init+0xa4>)
 8101124:	2200      	movs	r2, #0
 8101126:	611a      	str	r2, [r3, #16]
	hspi1.Init.CLKPhase = SPI_PHASE_1EDGE;
 8101128:	4b1f      	ldr	r3, [pc, #124]	; (81011a8 <MX_SPI1_Init+0xa4>)
 810112a:	2200      	movs	r2, #0
 810112c:	615a      	str	r2, [r3, #20]
	hspi1.Init.NSS = SPI_NSS_HARD_OUTPUT;
 810112e:	4b1e      	ldr	r3, [pc, #120]	; (81011a8 <MX_SPI1_Init+0xa4>)
 8101130:	f04f 5200 	mov.w	r2, #536870912	; 0x20000000
 8101134:	619a      	str	r2, [r3, #24]
	hspi1.Init.BaudRatePrescaler = SPI_BAUDRATEPRESCALER_16;
 8101136:	4b1c      	ldr	r3, [pc, #112]	; (81011a8 <MX_SPI1_Init+0xa4>)
 8101138:	f04f 5240 	mov.w	r2, #805306368	; 0x30000000
 810113c:	61da      	str	r2, [r3, #28]
	hspi1.Init.FirstBit = SPI_FIRSTBIT_MSB;
 810113e:	4b1a      	ldr	r3, [pc, #104]	; (81011a8 <MX_SPI1_Init+0xa4>)
 8101140:	2200      	movs	r2, #0
 8101142:	621a      	str	r2, [r3, #32]
	hspi1.Init.TIMode = SPI_TIMODE_DISABLE;
 8101144:	4b18      	ldr	r3, [pc, #96]	; (81011a8 <MX_SPI1_Init+0xa4>)
 8101146:	2200      	movs	r2, #0
 8101148:	625a      	str	r2, [r3, #36]	; 0x24
	hspi1.Init.CRCCalculation = SPI_CRCCALCULATION_DISABLE;
 810114a:	4b17      	ldr	r3, [pc, #92]	; (81011a8 <MX_SPI1_Init+0xa4>)
 810114c:	2200      	movs	r2, #0
 810114e:	629a      	str	r2, [r3, #40]	; 0x28
	hspi1.Init.CRCPolynomial = 0x0;
 8101150:	4b15      	ldr	r3, [pc, #84]	; (81011a8 <MX_SPI1_Init+0xa4>)
 8101152:	2200      	movs	r2, #0
 8101154:	62da      	str	r2, [r3, #44]	; 0x2c
	hspi1.Init.NSSPMode = SPI_NSS_PULSE_ENABLE;
 8101156:	4b14      	ldr	r3, [pc, #80]	; (81011a8 <MX_SPI1_Init+0xa4>)
 8101158:	f04f 4280 	mov.w	r2, #1073741824	; 0x40000000
 810115c:	635a      	str	r2, [r3, #52]	; 0x34
	hspi1.Init.NSSPolarity = SPI_NSS_POLARITY_LOW;
 810115e:	4b12      	ldr	r3, [pc, #72]	; (81011a8 <MX_SPI1_Init+0xa4>)
 8101160:	2200      	movs	r2, #0
 8101162:	639a      	str	r2, [r3, #56]	; 0x38
	hspi1.Init.FifoThreshold = SPI_FIFO_THRESHOLD_01DATA;
 8101164:	4b10      	ldr	r3, [pc, #64]	; (81011a8 <MX_SPI1_Init+0xa4>)
 8101166:	2200      	movs	r2, #0
 8101168:	63da      	str	r2, [r3, #60]	; 0x3c
	hspi1.Init.TxCRCInitializationPattern = SPI_CRC_INITIALIZATION_ALL_ZERO_PATTERN;
 810116a:	4b0f      	ldr	r3, [pc, #60]	; (81011a8 <MX_SPI1_Init+0xa4>)
 810116c:	2200      	movs	r2, #0
 810116e:	641a      	str	r2, [r3, #64]	; 0x40
	hspi1.Init.RxCRCInitializationPattern = SPI_CRC_INITIALIZATION_ALL_ZERO_PATTERN;
 8101170:	4b0d      	ldr	r3, [pc, #52]	; (81011a8 <MX_SPI1_Init+0xa4>)
 8101172:	2200      	movs	r2, #0
 8101174:	645a      	str	r2, [r3, #68]	; 0x44
	hspi1.Init.MasterSSIdleness = SPI_MASTER_SS_IDLENESS_00CYCLE;
 8101176:	4b0c      	ldr	r3, [pc, #48]	; (81011a8 <MX_SPI1_Init+0xa4>)
 8101178:	2200      	movs	r2, #0
 810117a:	649a      	str	r2, [r3, #72]	; 0x48
	hspi1.Init.MasterInterDataIdleness = SPI_MASTER_INTERDATA_IDLENESS_00CYCLE;
 810117c:	4b0a      	ldr	r3, [pc, #40]	; (81011a8 <MX_SPI1_Init+0xa4>)
 810117e:	2200      	movs	r2, #0
 8101180:	64da      	str	r2, [r3, #76]	; 0x4c
	hspi1.Init.MasterReceiverAutoSusp = SPI_MASTER_RX_AUTOSUSP_DISABLE;
 8101182:	4b09      	ldr	r3, [pc, #36]	; (81011a8 <MX_SPI1_Init+0xa4>)
 8101184:	2200      	movs	r2, #0
 8101186:	651a      	str	r2, [r3, #80]	; 0x50
	hspi1.Init.MasterKeepIOState = SPI_MASTER_KEEP_IO_STATE_DISABLE;
 8101188:	4b07      	ldr	r3, [pc, #28]	; (81011a8 <MX_SPI1_Init+0xa4>)
 810118a:	2200      	movs	r2, #0
 810118c:	655a      	str	r2, [r3, #84]	; 0x54
	hspi1.Init.IOSwap = SPI_IO_SWAP_DISABLE;
 810118e:	4b06      	ldr	r3, [pc, #24]	; (81011a8 <MX_SPI1_Init+0xa4>)
 8101190:	2200      	movs	r2, #0
 8101192:	659a      	str	r2, [r3, #88]	; 0x58
	if (HAL_SPI_Init(&hspi1) != HAL_OK)
 8101194:	4804      	ldr	r0, [pc, #16]	; (81011a8 <MX_SPI1_Init+0xa4>)
 8101196:	f002 ff3f 	bl	8104018 <HAL_SPI_Init>
 810119a:	4603      	mov	r3, r0
 810119c:	2b00      	cmp	r3, #0
 810119e:	d001      	beq.n	81011a4 <MX_SPI1_Init+0xa0>
	{
		Error_Handler();
 81011a0:	f000 f8d8 	bl	8101354 <Error_Handler>
	}
	/* USER CODE BEGIN SPI1_Init 2 */

	/* USER CODE END SPI1_Init 2 */

}
 81011a4:	bf00      	nop
 81011a6:	bd80      	pop	{r7, pc}
 81011a8:	1000002c 	.word	0x1000002c
 81011ac:	40013000 	.word	0x40013000

081011b0 <MX_DMA_Init>:

/**
 * Enable DMA controller clock
 */
static void MX_DMA_Init(void)
{
 81011b0:	b580      	push	{r7, lr}
 81011b2:	b082      	sub	sp, #8
 81011b4:	af00      	add	r7, sp, #0

	/* DMA controller clock enable */
	__HAL_RCC_DMA1_CLK_ENABLE();
 81011b6:	4b11      	ldr	r3, [pc, #68]	; (81011fc <MX_DMA_Init+0x4c>)
 81011b8:	f8d3 30d8 	ldr.w	r3, [r3, #216]	; 0xd8
 81011bc:	4a0f      	ldr	r2, [pc, #60]	; (81011fc <MX_DMA_Init+0x4c>)
 81011be:	f043 0301 	orr.w	r3, r3, #1
 81011c2:	f8c2 30d8 	str.w	r3, [r2, #216]	; 0xd8
 81011c6:	4b0d      	ldr	r3, [pc, #52]	; (81011fc <MX_DMA_Init+0x4c>)
 81011c8:	f8d3 30d8 	ldr.w	r3, [r3, #216]	; 0xd8
 81011cc:	f003 0301 	and.w	r3, r3, #1
 81011d0:	607b      	str	r3, [r7, #4]
 81011d2:	687b      	ldr	r3, [r7, #4]

	/* DMA interrupt init */
	/* DMA1_Stream0_IRQn interrupt configuration */
	HAL_NVIC_SetPriority(DMA1_Stream0_IRQn, 0, 0);
 81011d4:	2200      	movs	r2, #0
 81011d6:	2100      	movs	r1, #0
 81011d8:	200b      	movs	r0, #11
 81011da:	f000 fbd6 	bl	810198a <HAL_NVIC_SetPriority>
	HAL_NVIC_EnableIRQ(DMA1_Stream0_IRQn);
 81011de:	200b      	movs	r0, #11
 81011e0:	f000 fbed 	bl	81019be <HAL_NVIC_EnableIRQ>
	/* DMA1_Stream3_IRQn interrupt configuration */
	HAL_NVIC_SetPriority(DMA1_Stream3_IRQn, 0, 0);
 81011e4:	2200      	movs	r2, #0
 81011e6:	2100      	movs	r1, #0
 81011e8:	200e      	movs	r0, #14
 81011ea:	f000 fbce 	bl	810198a <HAL_NVIC_SetPriority>
	HAL_NVIC_EnableIRQ(DMA1_Stream3_IRQn);
 81011ee:	200e      	movs	r0, #14
 81011f0:	f000 fbe5 	bl	81019be <HAL_NVIC_EnableIRQ>

}
 81011f4:	bf00      	nop
 81011f6:	3708      	adds	r7, #8
 81011f8:	46bd      	mov	sp, r7
 81011fa:	bd80      	pop	{r7, pc}
 81011fc:	58024400 	.word	0x58024400

08101200 <MX_GPIO_Init>:
 * @brief GPIO Initialization Function
 * @param None
 * @retval None
 */
static void MX_GPIO_Init(void)
{
 8101200:	b580      	push	{r7, lr}
 8101202:	b08a      	sub	sp, #40	; 0x28
 8101204:	af00      	add	r7, sp, #0
	GPIO_InitTypeDef GPIO_InitStruct = {0};
 8101206:	f107 0314 	add.w	r3, r7, #20
 810120a:	2200      	movs	r2, #0
 810120c:	601a      	str	r2, [r3, #0]
 810120e:	605a      	str	r2, [r3, #4]
 8101210:	609a      	str	r2, [r3, #8]
 8101212:	60da      	str	r2, [r3, #12]
 8101214:	611a      	str	r2, [r3, #16]

	/* GPIO Ports Clock Enable */
	__HAL_RCC_GPIOC_CLK_ENABLE();
 8101216:	4b4b      	ldr	r3, [pc, #300]	; (8101344 <MX_GPIO_Init+0x144>)
 8101218:	f8d3 30e0 	ldr.w	r3, [r3, #224]	; 0xe0
 810121c:	4a49      	ldr	r2, [pc, #292]	; (8101344 <MX_GPIO_Init+0x144>)
 810121e:	f043 0304 	orr.w	r3, r3, #4
 8101222:	f8c2 30e0 	str.w	r3, [r2, #224]	; 0xe0
 8101226:	4b47      	ldr	r3, [pc, #284]	; (8101344 <MX_GPIO_Init+0x144>)
 8101228:	f8d3 30e0 	ldr.w	r3, [r3, #224]	; 0xe0
 810122c:	f003 0304 	and.w	r3, r3, #4
 8101230:	613b      	str	r3, [r7, #16]
 8101232:	693b      	ldr	r3, [r7, #16]
	__HAL_RCC_GPIOA_CLK_ENABLE();
 8101234:	4b43      	ldr	r3, [pc, #268]	; (8101344 <MX_GPIO_Init+0x144>)
 8101236:	f8d3 30e0 	ldr.w	r3, [r3, #224]	; 0xe0
 810123a:	4a42      	ldr	r2, [pc, #264]	; (8101344 <MX_GPIO_Init+0x144>)
 810123c:	f043 0301 	orr.w	r3, r3, #1
 8101240:	f8c2 30e0 	str.w	r3, [r2, #224]	; 0xe0
 8101244:	4b3f      	ldr	r3, [pc, #252]	; (8101344 <MX_GPIO_Init+0x144>)
 8101246:	f8d3 30e0 	ldr.w	r3, [r3, #224]	; 0xe0
 810124a:	f003 0301 	and.w	r3, r3, #1
 810124e:	60fb      	str	r3, [r7, #12]
 8101250:	68fb      	ldr	r3, [r7, #12]
	__HAL_RCC_GPIOB_CLK_ENABLE();
 8101252:	4b3c      	ldr	r3, [pc, #240]	; (8101344 <MX_GPIO_Init+0x144>)
 8101254:	f8d3 30e0 	ldr.w	r3, [r3, #224]	; 0xe0
 8101258:	4a3a      	ldr	r2, [pc, #232]	; (8101344 <MX_GPIO_Init+0x144>)
 810125a:	f043 0302 	orr.w	r3, r3, #2
 810125e:	f8c2 30e0 	str.w	r3, [r2, #224]	; 0xe0
 8101262:	4b38      	ldr	r3, [pc, #224]	; (8101344 <MX_GPIO_Init+0x144>)
 8101264:	f8d3 30e0 	ldr.w	r3, [r3, #224]	; 0xe0
 8101268:	f003 0302 	and.w	r3, r3, #2
 810126c:	60bb      	str	r3, [r7, #8]
 810126e:	68bb      	ldr	r3, [r7, #8]
	__HAL_RCC_GPIOD_CLK_ENABLE();
 8101270:	4b34      	ldr	r3, [pc, #208]	; (8101344 <MX_GPIO_Init+0x144>)
 8101272:	f8d3 30e0 	ldr.w	r3, [r3, #224]	; 0xe0
 8101276:	4a33      	ldr	r2, [pc, #204]	; (8101344 <MX_GPIO_Init+0x144>)
 8101278:	f043 0308 	orr.w	r3, r3, #8
 810127c:	f8c2 30e0 	str.w	r3, [r2, #224]	; 0xe0
 8101280:	4b30      	ldr	r3, [pc, #192]	; (8101344 <MX_GPIO_Init+0x144>)
 8101282:	f8d3 30e0 	ldr.w	r3, [r3, #224]	; 0xe0
 8101286:	f003 0308 	and.w	r3, r3, #8
 810128a:	607b      	str	r3, [r7, #4]
 810128c:	687b      	ldr	r3, [r7, #4]
	__HAL_RCC_GPIOE_CLK_ENABLE();
 810128e:	4b2d      	ldr	r3, [pc, #180]	; (8101344 <MX_GPIO_Init+0x144>)
 8101290:	f8d3 30e0 	ldr.w	r3, [r3, #224]	; 0xe0
 8101294:	4a2b      	ldr	r2, [pc, #172]	; (8101344 <MX_GPIO_Init+0x144>)
 8101296:	f043 0310 	orr.w	r3, r3, #16
 810129a:	f8c2 30e0 	str.w	r3, [r2, #224]	; 0xe0
 810129e:	4b29      	ldr	r3, [pc, #164]	; (8101344 <MX_GPIO_Init+0x144>)
 81012a0:	f8d3 30e0 	ldr.w	r3, [r3, #224]	; 0xe0
 81012a4:	f003 0310 	and.w	r3, r3, #16
 81012a8:	603b      	str	r3, [r7, #0]
 81012aa:	683b      	ldr	r3, [r7, #0]

	/*Configure GPIO pin Output Level */
	HAL_GPIO_WritePin(GPIOB, LD1_Pin|MC14515_D2_Pin|MC14515_D1_Pin|RC522_Rst_Pin
 81012ac:	2200      	movs	r2, #0
 81012ae:	f249 3121 	movw	r1, #37665	; 0x9321
 81012b2:	4825      	ldr	r0, [pc, #148]	; (8101348 <MX_GPIO_Init+0x148>)
 81012b4:	f002 fc68 	bl	8103b88 <HAL_GPIO_WritePin>
			|MC14515_INH_Pin|MC14515_D3_Pin, GPIO_PIN_RESET);

	/*Configure GPIO pin Output Level */
	HAL_GPIO_WritePin(GPIOC, MC14515_ST_Pin|MC14515_D4_Pin, GPIO_PIN_RESET);
 81012b8:	2200      	movs	r2, #0
 81012ba:	21c0      	movs	r1, #192	; 0xc0
 81012bc:	4823      	ldr	r0, [pc, #140]	; (810134c <MX_GPIO_Init+0x14c>)
 81012be:	f002 fc63 	bl	8103b88 <HAL_GPIO_WritePin>

	/*Configure GPIO pin Output Level */
	HAL_GPIO_WritePin(LD2_GPIO_Port, LD2_Pin, GPIO_PIN_RESET);
 81012c2:	2200      	movs	r2, #0
 81012c4:	2102      	movs	r1, #2
 81012c6:	4822      	ldr	r0, [pc, #136]	; (8101350 <MX_GPIO_Init+0x150>)
 81012c8:	f002 fc5e 	bl	8103b88 <HAL_GPIO_WritePin>

	/*Configure GPIO pin : B1_Pin */
	GPIO_InitStruct.Pin = B1_Pin;
 81012cc:	f44f 5300 	mov.w	r3, #8192	; 0x2000
 81012d0:	617b      	str	r3, [r7, #20]
	GPIO_InitStruct.Mode = GPIO_MODE_INPUT;
 81012d2:	2300      	movs	r3, #0
 81012d4:	61bb      	str	r3, [r7, #24]
	GPIO_InitStruct.Pull = GPIO_NOPULL;
 81012d6:	2300      	movs	r3, #0
 81012d8:	61fb      	str	r3, [r7, #28]
	HAL_GPIO_Init(B1_GPIO_Port, &GPIO_InitStruct);
 81012da:	f107 0314 	add.w	r3, r7, #20
 81012de:	4619      	mov	r1, r3
 81012e0:	481a      	ldr	r0, [pc, #104]	; (810134c <MX_GPIO_Init+0x14c>)
 81012e2:	f002 faa1 	bl	8103828 <HAL_GPIO_Init>

	/*Configure GPIO pins : LD1_Pin MC14515_D2_Pin MC14515_D1_Pin RC522_Rst_Pin
                           MC14515_INH_Pin MC14515_D3_Pin */
	GPIO_InitStruct.Pin = LD1_Pin|MC14515_D2_Pin|MC14515_D1_Pin|RC522_Rst_Pin
 81012e6:	f249 3321 	movw	r3, #37665	; 0x9321
 81012ea:	617b      	str	r3, [r7, #20]
			|MC14515_INH_Pin|MC14515_D3_Pin;
	GPIO_InitStruct.Mode = GPIO_MODE_OUTPUT_PP;
 81012ec:	2301      	movs	r3, #1
 81012ee:	61bb      	str	r3, [r7, #24]
	GPIO_InitStruct.Pull = GPIO_NOPULL;
 81012f0:	2300      	movs	r3, #0
 81012f2:	61fb      	str	r3, [r7, #28]
	GPIO_InitStruct.Speed = GPIO_SPEED_FREQ_LOW;
 81012f4:	2300      	movs	r3, #0
 81012f6:	623b      	str	r3, [r7, #32]
	HAL_GPIO_Init(GPIOB, &GPIO_InitStruct);
 81012f8:	f107 0314 	add.w	r3, r7, #20
 81012fc:	4619      	mov	r1, r3
 81012fe:	4812      	ldr	r0, [pc, #72]	; (8101348 <MX_GPIO_Init+0x148>)
 8101300:	f002 fa92 	bl	8103828 <HAL_GPIO_Init>

	/*Configure GPIO pins : MC14515_ST_Pin MC14515_D4_Pin */
	GPIO_InitStruct.Pin = MC14515_ST_Pin|MC14515_D4_Pin;
 8101304:	23c0      	movs	r3, #192	; 0xc0
 8101306:	617b      	str	r3, [r7, #20]
	GPIO_InitStruct.Mode = GPIO_MODE_OUTPUT_PP;
 8101308:	2301      	movs	r3, #1
 810130a:	61bb      	str	r3, [r7, #24]
	GPIO_InitStruct.Pull = GPIO_NOPULL;
 810130c:	2300      	movs	r3, #0
 810130e:	61fb      	str	r3, [r7, #28]
	GPIO_InitStruct.Speed = GPIO_SPEED_FREQ_LOW;
 8101310:	2300      	movs	r3, #0
 8101312:	623b      	str	r3, [r7, #32]
	HAL_GPIO_Init(GPIOC, &GPIO_InitStruct);
 8101314:	f107 0314 	add.w	r3, r7, #20
 8101318:	4619      	mov	r1, r3
 810131a:	480c      	ldr	r0, [pc, #48]	; (810134c <MX_GPIO_Init+0x14c>)
 810131c:	f002 fa84 	bl	8103828 <HAL_GPIO_Init>

	/*Configure GPIO pin : LD2_Pin */
	GPIO_InitStruct.Pin = LD2_Pin;
 8101320:	2302      	movs	r3, #2
 8101322:	617b      	str	r3, [r7, #20]
	GPIO_InitStruct.Mode = GPIO_MODE_OUTPUT_PP;
 8101324:	2301      	movs	r3, #1
 8101326:	61bb      	str	r3, [r7, #24]
	GPIO_InitStruct.Pull = GPIO_NOPULL;
 8101328:	2300      	movs	r3, #0
 810132a:	61fb      	str	r3, [r7, #28]
	GPIO_InitStruct.Speed = GPIO_SPEED_FREQ_LOW;
 810132c:	2300      	movs	r3, #0
 810132e:	623b      	str	r3, [r7, #32]
	HAL_GPIO_Init(LD2_GPIO_Port, &GPIO_InitStruct);
 8101330:	f107 0314 	add.w	r3, r7, #20
 8101334:	4619      	mov	r1, r3
 8101336:	4806      	ldr	r0, [pc, #24]	; (8101350 <MX_GPIO_Init+0x150>)
 8101338:	f002 fa76 	bl	8103828 <HAL_GPIO_Init>

}
 810133c:	bf00      	nop
 810133e:	3728      	adds	r7, #40	; 0x28
 8101340:	46bd      	mov	sp, r7
 8101342:	bd80      	pop	{r7, pc}
 8101344:	58024400 	.word	0x58024400
 8101348:	58020400 	.word	0x58020400
 810134c:	58020800 	.word	0x58020800
 8101350:	58021000 	.word	0x58021000

08101354 <Error_Handler>:
/**
 * @brief  This function is executed in case of error occurrence.
 * @retval None
 */
void Error_Handler(void)
{
 8101354:	b480      	push	{r7}
 8101356:	af00      	add	r7, sp, #0
  \details Disables IRQ interrupts by setting the I-bit in the CPSR.
           Can only be executed in Privileged modes.
 */
__STATIC_FORCEINLINE void __disable_irq(void)
{
  __ASM volatile ("cpsid i" : : : "memory");
 8101358:	b672      	cpsid	i
}
 810135a:	bf00      	nop
	/* USER CODE BEGIN Error_Handler_Debug */
	/* User can add his own implementation to report the HAL error return state */
	__disable_irq();
	while (1)
 810135c:	e7fe      	b.n	810135c <Error_Handler+0x8>
	...

08101360 <HAL_MspInit>:
/* USER CODE END 0 */
/**
  * Initializes the Global MSP.
  */
void HAL_MspInit(void)
{
 8101360:	b480      	push	{r7}
 8101362:	b083      	sub	sp, #12
 8101364:	af00      	add	r7, sp, #0
  /* USER CODE BEGIN MspInit 0 */

  /* USER CODE END MspInit 0 */

  __HAL_RCC_SYSCFG_CLK_ENABLE();
 8101366:	4b0a      	ldr	r3, [pc, #40]	; (8101390 <HAL_MspInit+0x30>)
 8101368:	f8d3 30f4 	ldr.w	r3, [r3, #244]	; 0xf4
 810136c:	4a08      	ldr	r2, [pc, #32]	; (8101390 <HAL_MspInit+0x30>)
 810136e:	f043 0302 	orr.w	r3, r3, #2
 8101372:	f8c2 30f4 	str.w	r3, [r2, #244]	; 0xf4
 8101376:	4b06      	ldr	r3, [pc, #24]	; (8101390 <HAL_MspInit+0x30>)
 8101378:	f8d3 30f4 	ldr.w	r3, [r3, #244]	; 0xf4
 810137c:	f003 0302 	and.w	r3, r3, #2
 8101380:	607b      	str	r3, [r7, #4]
 8101382:	687b      	ldr	r3, [r7, #4]
  /* System interrupt init*/

  /* USER CODE BEGIN MspInit 1 */

  /* USER CODE END MspInit 1 */
}
 8101384:	bf00      	nop
 8101386:	370c      	adds	r7, #12
 8101388:	46bd      	mov	sp, r7
 810138a:	f85d 7b04 	ldr.w	r7, [sp], #4
 810138e:	4770      	bx	lr
 8101390:	58024400 	.word	0x58024400

08101394 <HAL_SPI_MspInit>:
* This function configures the hardware resources used in this example
* @param hspi: SPI handle pointer
* @retval None
*/
void HAL_SPI_MspInit(SPI_HandleTypeDef* hspi)
{
 8101394:	b580      	push	{r7, lr}
 8101396:	b08a      	sub	sp, #40	; 0x28
 8101398:	af00      	add	r7, sp, #0
 810139a:	6078      	str	r0, [r7, #4]
  GPIO_InitTypeDef GPIO_InitStruct = {0};
 810139c:	f107 0314 	add.w	r3, r7, #20
 81013a0:	2200      	movs	r2, #0
 81013a2:	601a      	str	r2, [r3, #0]
 81013a4:	605a      	str	r2, [r3, #4]
 81013a6:	609a      	str	r2, [r3, #8]
 81013a8:	60da      	str	r2, [r3, #12]
 81013aa:	611a      	str	r2, [r3, #16]
  if(hspi->Instance==SPI1)
 81013ac:	687b      	ldr	r3, [r7, #4]
 81013ae:	681b      	ldr	r3, [r3, #0]
 81013b0:	4a5b      	ldr	r2, [pc, #364]	; (8101520 <HAL_SPI_MspInit+0x18c>)
 81013b2:	4293      	cmp	r3, r2
 81013b4:	f040 80af 	bne.w	8101516 <HAL_SPI_MspInit+0x182>
  {
  /* USER CODE BEGIN SPI1_MspInit 0 */

  /* USER CODE END SPI1_MspInit 0 */
    /* Peripheral clock enable */
    __HAL_RCC_SPI1_CLK_ENABLE();
 81013b8:	4b5a      	ldr	r3, [pc, #360]	; (8101524 <HAL_SPI_MspInit+0x190>)
 81013ba:	f8d3 30f0 	ldr.w	r3, [r3, #240]	; 0xf0
 81013be:	4a59      	ldr	r2, [pc, #356]	; (8101524 <HAL_SPI_MspInit+0x190>)
 81013c0:	f443 5380 	orr.w	r3, r3, #4096	; 0x1000
 81013c4:	f8c2 30f0 	str.w	r3, [r2, #240]	; 0xf0
 81013c8:	4b56      	ldr	r3, [pc, #344]	; (8101524 <HAL_SPI_MspInit+0x190>)
 81013ca:	f8d3 30f0 	ldr.w	r3, [r3, #240]	; 0xf0
 81013ce:	f403 5380 	and.w	r3, r3, #4096	; 0x1000
 81013d2:	613b      	str	r3, [r7, #16]
 81013d4:	693b      	ldr	r3, [r7, #16]

    __HAL_RCC_GPIOA_CLK_ENABLE();
 81013d6:	4b53      	ldr	r3, [pc, #332]	; (8101524 <HAL_SPI_MspInit+0x190>)
 81013d8:	f8d3 30e0 	ldr.w	r3, [r3, #224]	; 0xe0
 81013dc:	4a51      	ldr	r2, [pc, #324]	; (8101524 <HAL_SPI_MspInit+0x190>)
 81013de:	f043 0301 	orr.w	r3, r3, #1
 81013e2:	f8c2 30e0 	str.w	r3, [r2, #224]	; 0xe0
 81013e6:	4b4f      	ldr	r3, [pc, #316]	; (8101524 <HAL_SPI_MspInit+0x190>)
 81013e8:	f8d3 30e0 	ldr.w	r3, [r3, #224]	; 0xe0
 81013ec:	f003 0301 	and.w	r3, r3, #1
 81013f0:	60fb      	str	r3, [r7, #12]
 81013f2:	68fb      	ldr	r3, [r7, #12]
    __HAL_RCC_GPIOD_CLK_ENABLE();
 81013f4:	4b4b      	ldr	r3, [pc, #300]	; (8101524 <HAL_SPI_MspInit+0x190>)
 81013f6:	f8d3 30e0 	ldr.w	r3, [r3, #224]	; 0xe0
 81013fa:	4a4a      	ldr	r2, [pc, #296]	; (8101524 <HAL_SPI_MspInit+0x190>)
 81013fc:	f043 0308 	orr.w	r3, r3, #8
 8101400:	f8c2 30e0 	str.w	r3, [r2, #224]	; 0xe0
 8101404:	4b47      	ldr	r3, [pc, #284]	; (8101524 <HAL_SPI_MspInit+0x190>)
 8101406:	f8d3 30e0 	ldr.w	r3, [r3, #224]	; 0xe0
 810140a:	f003 0308 	and.w	r3, r3, #8
 810140e:	60bb      	str	r3, [r7, #8]
 8101410:	68bb      	ldr	r3, [r7, #8]
    PA4     ------> SPI1_NSS
    PA5     ------> SPI1_SCK
    PA6     ------> SPI1_MISO
    PD7     ------> SPI1_MOSI
    */
    GPIO_InitStruct.Pin = GPIO_PIN_4|GPIO_PIN_5|GPIO_PIN_6;
 8101412:	2370      	movs	r3, #112	; 0x70
 8101414:	617b      	str	r3, [r7, #20]
    GPIO_InitStruct.Mode = GPIO_MODE_AF_PP;
 8101416:	2302      	movs	r3, #2
 8101418:	61bb      	str	r3, [r7, #24]
    GPIO_InitStruct.Pull = GPIO_NOPULL;
 810141a:	2300      	movs	r3, #0
 810141c:	61fb      	str	r3, [r7, #28]
    GPIO_InitStruct.Speed = GPIO_SPEED_FREQ_LOW;
 810141e:	2300      	movs	r3, #0
 8101420:	623b      	str	r3, [r7, #32]
    GPIO_InitStruct.Alternate = GPIO_AF5_SPI1;
 8101422:	2305      	movs	r3, #5
 8101424:	627b      	str	r3, [r7, #36]	; 0x24
    HAL_GPIO_Init(GPIOA, &GPIO_InitStruct);
 8101426:	f107 0314 	add.w	r3, r7, #20
 810142a:	4619      	mov	r1, r3
 810142c:	483e      	ldr	r0, [pc, #248]	; (8101528 <HAL_SPI_MspInit+0x194>)
 810142e:	f002 f9fb 	bl	8103828 <HAL_GPIO_Init>

    GPIO_InitStruct.Pin = GPIO_PIN_7;
 8101432:	2380      	movs	r3, #128	; 0x80
 8101434:	617b      	str	r3, [r7, #20]
    GPIO_InitStruct.Mode = GPIO_MODE_AF_PP;
 8101436:	2302      	movs	r3, #2
 8101438:	61bb      	str	r3, [r7, #24]
    GPIO_InitStruct.Pull = GPIO_NOPULL;
 810143a:	2300      	movs	r3, #0
 810143c:	61fb      	str	r3, [r7, #28]
    GPIO_InitStruct.Speed = GPIO_SPEED_FREQ_LOW;
 810143e:	2300      	movs	r3, #0
 8101440:	623b      	str	r3, [r7, #32]
    GPIO_InitStruct.Alternate = GPIO_AF5_SPI1;
 8101442:	2305      	movs	r3, #5
 8101444:	627b      	str	r3, [r7, #36]	; 0x24
    HAL_GPIO_Init(GPIOD, &GPIO_InitStruct);
 8101446:	f107 0314 	add.w	r3, r7, #20
 810144a:	4619      	mov	r1, r3
 810144c:	4837      	ldr	r0, [pc, #220]	; (810152c <HAL_SPI_MspInit+0x198>)
 810144e:	f002 f9eb 	bl	8103828 <HAL_GPIO_Init>

    /* SPI1 DMA Init */
    /* SPI1_RX Init */
    hdma_spi1_rx.Instance = DMA1_Stream0;
 8101452:	4b37      	ldr	r3, [pc, #220]	; (8101530 <HAL_SPI_MspInit+0x19c>)
 8101454:	4a37      	ldr	r2, [pc, #220]	; (8101534 <HAL_SPI_MspInit+0x1a0>)
 8101456:	601a      	str	r2, [r3, #0]
    hdma_spi1_rx.Init.Request = DMA_REQUEST_SPI1_RX;
 8101458:	4b35      	ldr	r3, [pc, #212]	; (8101530 <HAL_SPI_MspInit+0x19c>)
 810145a:	2225      	movs	r2, #37	; 0x25
 810145c:	605a      	str	r2, [r3, #4]
    hdma_spi1_rx.Init.Direction = DMA_PERIPH_TO_MEMORY;
 810145e:	4b34      	ldr	r3, [pc, #208]	; (8101530 <HAL_SPI_MspInit+0x19c>)
 8101460:	2200      	movs	r2, #0
 8101462:	609a      	str	r2, [r3, #8]
    hdma_spi1_rx.Init.PeriphInc = DMA_PINC_DISABLE;
 8101464:	4b32      	ldr	r3, [pc, #200]	; (8101530 <HAL_SPI_MspInit+0x19c>)
 8101466:	2200      	movs	r2, #0
 8101468:	60da      	str	r2, [r3, #12]
    hdma_spi1_rx.Init.MemInc = DMA_MINC_ENABLE;
 810146a:	4b31      	ldr	r3, [pc, #196]	; (8101530 <HAL_SPI_MspInit+0x19c>)
 810146c:	f44f 6280 	mov.w	r2, #1024	; 0x400
 8101470:	611a      	str	r2, [r3, #16]
    hdma_spi1_rx.Init.PeriphDataAlignment = DMA_PDATAALIGN_BYTE;
 8101472:	4b2f      	ldr	r3, [pc, #188]	; (8101530 <HAL_SPI_MspInit+0x19c>)
 8101474:	2200      	movs	r2, #0
 8101476:	615a      	str	r2, [r3, #20]
    hdma_spi1_rx.Init.MemDataAlignment = DMA_MDATAALIGN_BYTE;
 8101478:	4b2d      	ldr	r3, [pc, #180]	; (8101530 <HAL_SPI_MspInit+0x19c>)
 810147a:	2200      	movs	r2, #0
 810147c:	619a      	str	r2, [r3, #24]
    hdma_spi1_rx.Init.Mode = DMA_NORMAL;
 810147e:	4b2c      	ldr	r3, [pc, #176]	; (8101530 <HAL_SPI_MspInit+0x19c>)
 8101480:	2200      	movs	r2, #0
 8101482:	61da      	str	r2, [r3, #28]
    hdma_spi1_rx.Init.Priority = DMA_PRIORITY_LOW;
 8101484:	4b2a      	ldr	r3, [pc, #168]	; (8101530 <HAL_SPI_MspInit+0x19c>)
 8101486:	2200      	movs	r2, #0
 8101488:	621a      	str	r2, [r3, #32]
    hdma_spi1_rx.Init.FIFOMode = DMA_FIFOMODE_DISABLE;
 810148a:	4b29      	ldr	r3, [pc, #164]	; (8101530 <HAL_SPI_MspInit+0x19c>)
 810148c:	2200      	movs	r2, #0
 810148e:	625a      	str	r2, [r3, #36]	; 0x24
    if (HAL_DMA_Init(&hdma_spi1_rx) != HAL_OK)
 8101490:	4827      	ldr	r0, [pc, #156]	; (8101530 <HAL_SPI_MspInit+0x19c>)
 8101492:	f000 fac3 	bl	8101a1c <HAL_DMA_Init>
 8101496:	4603      	mov	r3, r0
 8101498:	2b00      	cmp	r3, #0
 810149a:	d001      	beq.n	81014a0 <HAL_SPI_MspInit+0x10c>
    {
      Error_Handler();
 810149c:	f7ff ff5a 	bl	8101354 <Error_Handler>
    }

    __HAL_LINKDMA(hspi,hdmarx,hdma_spi1_rx);
 81014a0:	687b      	ldr	r3, [r7, #4]
 81014a2:	4a23      	ldr	r2, [pc, #140]	; (8101530 <HAL_SPI_MspInit+0x19c>)
 81014a4:	67da      	str	r2, [r3, #124]	; 0x7c
 81014a6:	4a22      	ldr	r2, [pc, #136]	; (8101530 <HAL_SPI_MspInit+0x19c>)
 81014a8:	687b      	ldr	r3, [r7, #4]
 81014aa:	6393      	str	r3, [r2, #56]	; 0x38

    /* SPI1_TX Init */
    hdma_spi1_tx.Instance = DMA1_Stream3;
 81014ac:	4b22      	ldr	r3, [pc, #136]	; (8101538 <HAL_SPI_MspInit+0x1a4>)
 81014ae:	4a23      	ldr	r2, [pc, #140]	; (810153c <HAL_SPI_MspInit+0x1a8>)
 81014b0:	601a      	str	r2, [r3, #0]
    hdma_spi1_tx.Init.Request = DMA_REQUEST_SPI1_TX;
 81014b2:	4b21      	ldr	r3, [pc, #132]	; (8101538 <HAL_SPI_MspInit+0x1a4>)
 81014b4:	2226      	movs	r2, #38	; 0x26
 81014b6:	605a      	str	r2, [r3, #4]
    hdma_spi1_tx.Init.Direction = DMA_MEMORY_TO_PERIPH;
 81014b8:	4b1f      	ldr	r3, [pc, #124]	; (8101538 <HAL_SPI_MspInit+0x1a4>)
 81014ba:	2240      	movs	r2, #64	; 0x40
 81014bc:	609a      	str	r2, [r3, #8]
    hdma_spi1_tx.Init.PeriphInc = DMA_PINC_DISABLE;
 81014be:	4b1e      	ldr	r3, [pc, #120]	; (8101538 <HAL_SPI_MspInit+0x1a4>)
 81014c0:	2200      	movs	r2, #0
 81014c2:	60da      	str	r2, [r3, #12]
    hdma_spi1_tx.Init.MemInc = DMA_MINC_ENABLE;
 81014c4:	4b1c      	ldr	r3, [pc, #112]	; (8101538 <HAL_SPI_MspInit+0x1a4>)
 81014c6:	f44f 6280 	mov.w	r2, #1024	; 0x400
 81014ca:	611a      	str	r2, [r3, #16]
    hdma_spi1_tx.Init.PeriphDataAlignment = DMA_PDATAALIGN_BYTE;
 81014cc:	4b1a      	ldr	r3, [pc, #104]	; (8101538 <HAL_SPI_MspInit+0x1a4>)
 81014ce:	2200      	movs	r2, #0
 81014d0:	615a      	str	r2, [r3, #20]
    hdma_spi1_tx.Init.MemDataAlignment = DMA_MDATAALIGN_BYTE;
 81014d2:	4b19      	ldr	r3, [pc, #100]	; (8101538 <HAL_SPI_MspInit+0x1a4>)
 81014d4:	2200      	movs	r2, #0
 81014d6:	619a      	str	r2, [r3, #24]
    hdma_spi1_tx.Init.Mode = DMA_NORMAL;
 81014d8:	4b17      	ldr	r3, [pc, #92]	; (8101538 <HAL_SPI_MspInit+0x1a4>)
 81014da:	2200      	movs	r2, #0
 81014dc:	61da      	str	r2, [r3, #28]
    hdma_spi1_tx.Init.Priority = DMA_PRIORITY_LOW;
 81014de:	4b16      	ldr	r3, [pc, #88]	; (8101538 <HAL_SPI_MspInit+0x1a4>)
 81014e0:	2200      	movs	r2, #0
 81014e2:	621a      	str	r2, [r3, #32]
    hdma_spi1_tx.Init.FIFOMode = DMA_FIFOMODE_DISABLE;
 81014e4:	4b14      	ldr	r3, [pc, #80]	; (8101538 <HAL_SPI_MspInit+0x1a4>)
 81014e6:	2200      	movs	r2, #0
 81014e8:	625a      	str	r2, [r3, #36]	; 0x24
    if (HAL_DMA_Init(&hdma_spi1_tx) != HAL_OK)
 81014ea:	4813      	ldr	r0, [pc, #76]	; (8101538 <HAL_SPI_MspInit+0x1a4>)
 81014ec:	f000 fa96 	bl	8101a1c <HAL_DMA_Init>
 81014f0:	4603      	mov	r3, r0
 81014f2:	2b00      	cmp	r3, #0
 81014f4:	d001      	beq.n	81014fa <HAL_SPI_MspInit+0x166>
    {
      Error_Handler();
 81014f6:	f7ff ff2d 	bl	8101354 <Error_Handler>
    }

    __HAL_LINKDMA(hspi,hdmatx,hdma_spi1_tx);
 81014fa:	687b      	ldr	r3, [r7, #4]
 81014fc:	4a0e      	ldr	r2, [pc, #56]	; (8101538 <HAL_SPI_MspInit+0x1a4>)
 81014fe:	679a      	str	r2, [r3, #120]	; 0x78
 8101500:	4a0d      	ldr	r2, [pc, #52]	; (8101538 <HAL_SPI_MspInit+0x1a4>)
 8101502:	687b      	ldr	r3, [r7, #4]
 8101504:	6393      	str	r3, [r2, #56]	; 0x38

    /* SPI1 interrupt Init */
    HAL_NVIC_SetPriority(SPI1_IRQn, 0, 0);
 8101506:	2200      	movs	r2, #0
 8101508:	2100      	movs	r1, #0
 810150a:	2023      	movs	r0, #35	; 0x23
 810150c:	f000 fa3d 	bl	810198a <HAL_NVIC_SetPriority>
    HAL_NVIC_EnableIRQ(SPI1_IRQn);
 8101510:	2023      	movs	r0, #35	; 0x23
 8101512:	f000 fa54 	bl	81019be <HAL_NVIC_EnableIRQ>
  /* USER CODE BEGIN SPI1_MspInit 1 */

  /* USER CODE END SPI1_MspInit 1 */
  }

}
 8101516:	bf00      	nop
 8101518:	3728      	adds	r7, #40	; 0x28
 810151a:	46bd      	mov	sp, r7
 810151c:	bd80      	pop	{r7, pc}
 810151e:	bf00      	nop
 8101520:	40013000 	.word	0x40013000
 8101524:	58024400 	.word	0x58024400
 8101528:	58020000 	.word	0x58020000
 810152c:	58020c00 	.word	0x58020c00
 8101530:	100000b4 	.word	0x100000b4
 8101534:	40020010 	.word	0x40020010
 8101538:	1000012c 	.word	0x1000012c
 810153c:	40020058 	.word	0x40020058

08101540 <NMI_Handler>:
/******************************************************************************/
/**
  * @brief This function handles Non maskable interrupt.
  */
void NMI_Handler(void)
{
 8101540:	b480      	push	{r7}
 8101542:	af00      	add	r7, sp, #0
  /* USER CODE BEGIN NonMaskableInt_IRQn 0 */

  /* USER CODE END NonMaskableInt_IRQn 0 */
  /* USER CODE BEGIN NonMaskableInt_IRQn 1 */
  while (1)
 8101544:	e7fe      	b.n	8101544 <NMI_Handler+0x4>

08101546 <HardFault_Handler>:

/**
  * @brief This function handles Hard fault interrupt.
  */
void HardFault_Handler(void)
{
 8101546:	b480      	push	{r7}
 8101548:	af00      	add	r7, sp, #0
  /* USER CODE BEGIN HardFault_IRQn 0 */

  /* USER CODE END HardFault_IRQn 0 */
  while (1)
 810154a:	e7fe      	b.n	810154a <HardFault_Handler+0x4>

0810154c <MemManage_Handler>:

/**
  * @brief This function handles Memory management fault.
  */
void MemManage_Handler(void)
{
 810154c:	b480      	push	{r7}
 810154e:	af00      	add	r7, sp, #0
  /* USER CODE BEGIN MemoryManagement_IRQn 0 */

  /* USER CODE END MemoryManagement_IRQn 0 */
  while (1)
 8101550:	e7fe      	b.n	8101550 <MemManage_Handler+0x4>

08101552 <BusFault_Handler>:

/**
  * @brief This function handles Pre-fetch fault, memory access fault.
  */
void BusFault_Handler(void)
{
 8101552:	b480      	push	{r7}
 8101554:	af00      	add	r7, sp, #0
  /* USER CODE BEGIN BusFault_IRQn 0 */

  /* USER CODE END BusFault_IRQn 0 */
  while (1)
 8101556:	e7fe      	b.n	8101556 <BusFault_Handler+0x4>

08101558 <UsageFault_Handler>:

/**
  * @brief This function handles Undefined instruction or illegal state.
  */
void UsageFault_Handler(void)
{
 8101558:	b480      	push	{r7}
 810155a:	af00      	add	r7, sp, #0
  /* USER CODE BEGIN UsageFault_IRQn 0 */

  /* USER CODE END UsageFault_IRQn 0 */
  while (1)
 810155c:	e7fe      	b.n	810155c <UsageFault_Handler+0x4>

0810155e <SVC_Handler>:

/**
  * @brief This function handles System service call via SWI instruction.
  */
void SVC_Handler(void)
{
 810155e:	b480      	push	{r7}
 8101560:	af00      	add	r7, sp, #0

  /* USER CODE END SVCall_IRQn 0 */
  /* USER CODE BEGIN SVCall_IRQn 1 */

  /* USER CODE END SVCall_IRQn 1 */
}
 8101562:	bf00      	nop
 8101564:	46bd      	mov	sp, r7
 8101566:	f85d 7b04 	ldr.w	r7, [sp], #4
 810156a:	4770      	bx	lr

0810156c <DebugMon_Handler>:

/**
  * @brief This function handles Debug monitor.
  */
void DebugMon_Handler(void)
{
 810156c:	b480      	push	{r7}
 810156e:	af00      	add	r7, sp, #0

  /* USER CODE END DebugMonitor_IRQn 0 */
  /* USER CODE BEGIN DebugMonitor_IRQn 1 */

  /* USER CODE END DebugMonitor_IRQn 1 */
}
 8101570:	bf00      	nop
 8101572:	46bd      	mov	sp, r7
 8101574:	f85d 7b04 	ldr.w	r7, [sp], #4
 8101578:	4770      	bx	lr

0810157a <PendSV_Handler>:

/**
  * @brief This function handles Pendable request for system service.
  */
void PendSV_Handler(void)
{
 810157a:	b480      	push	{r7}
 810157c:	af00      	add	r7, sp, #0

  /* USER CODE END PendSV_IRQn 0 */
  /* USER CODE BEGIN PendSV_IRQn 1 */

  /* USER CODE END PendSV_IRQn 1 */
}
 810157e:	bf00      	nop
 8101580:	46bd      	mov	sp, r7
 8101582:	f85d 7b04 	ldr.w	r7, [sp], #4
 8101586:	4770      	bx	lr

08101588 <SysTick_Handler>:

/**
  * @brief This function handles System tick timer.
  */
void SysTick_Handler(void)
{
 8101588:	b580      	push	{r7, lr}
 810158a:	af00      	add	r7, sp, #0
  /* USER CODE BEGIN SysTick_IRQn 0 */

  /* USER CODE END SysTick_IRQn 0 */
  HAL_IncTick();
 810158c:	f000 f8de 	bl	810174c <HAL_IncTick>
  /* USER CODE BEGIN SysTick_IRQn 1 */

  /* USER CODE END SysTick_IRQn 1 */
}
 8101590:	bf00      	nop
 8101592:	bd80      	pop	{r7, pc}

08101594 <DMA1_Stream0_IRQHandler>:

/**
  * @brief This function handles DMA1 stream0 global interrupt.
  */
void DMA1_Stream0_IRQHandler(void)
{
 8101594:	b580      	push	{r7, lr}
 8101596:	af00      	add	r7, sp, #0
  /* USER CODE BEGIN DMA1_Stream0_IRQn 0 */

  /* USER CODE END DMA1_Stream0_IRQn 0 */
  HAL_DMA_IRQHandler(&hdma_spi1_rx);
 8101598:	4802      	ldr	r0, [pc, #8]	; (81015a4 <DMA1_Stream0_IRQHandler+0x10>)
 810159a:	f000 ffdf 	bl	810255c <HAL_DMA_IRQHandler>
  /* USER CODE BEGIN DMA1_Stream0_IRQn 1 */

  /* USER CODE END DMA1_Stream0_IRQn 1 */
}
 810159e:	bf00      	nop
 81015a0:	bd80      	pop	{r7, pc}
 81015a2:	bf00      	nop
 81015a4:	100000b4 	.word	0x100000b4

081015a8 <DMA1_Stream3_IRQHandler>:

/**
  * @brief This function handles DMA1 stream3 global interrupt.
  */
void DMA1_Stream3_IRQHandler(void)
{
 81015a8:	b580      	push	{r7, lr}
 81015aa:	af00      	add	r7, sp, #0
  /* USER CODE BEGIN DMA1_Stream3_IRQn 0 */

  /* USER CODE END DMA1_Stream3_IRQn 0 */
  HAL_DMA_IRQHandler(&hdma_spi1_tx);
 81015ac:	4802      	ldr	r0, [pc, #8]	; (81015b8 <DMA1_Stream3_IRQHandler+0x10>)
 81015ae:	f000 ffd5 	bl	810255c <HAL_DMA_IRQHandler>
  /* USER CODE BEGIN DMA1_Stream3_IRQn 1 */

  /* USER CODE END DMA1_Stream3_IRQn 1 */
}
 81015b2:	bf00      	nop
 81015b4:	bd80      	pop	{r7, pc}
 81015b6:	bf00      	nop
 81015b8:	1000012c 	.word	0x1000012c

081015bc <SPI1_IRQHandler>:

/**
  * @brief This function handles SPI1 global interrupt.
  */
void SPI1_IRQHandler(void)
{
 81015bc:	b580      	push	{r7, lr}
 81015be:	af00      	add	r7, sp, #0
  /* USER CODE BEGIN SPI1_IRQn 0 */

  /* USER CODE END SPI1_IRQn 0 */
  HAL_SPI_IRQHandler(&hspi1);
 81015c0:	4802      	ldr	r0, [pc, #8]	; (81015cc <SPI1_IRQHandler+0x10>)
 81015c2:	f003 fa43 	bl	8104a4c <HAL_SPI_IRQHandler>
  /* USER CODE BEGIN SPI1_IRQn 1 */

  /* USER CODE END SPI1_IRQn 1 */
}
 81015c6:	bf00      	nop
 81015c8:	bd80      	pop	{r7, pc}
 81015ca:	bf00      	nop
 81015cc:	1000002c 	.word	0x1000002c

081015d0 <Reset_Handler>:

    .section  .text.Reset_Handler
  .weak  Reset_Handler
  .type  Reset_Handler, %function
Reset_Handler:
  ldr   sp, =_estack      /* set stack pointer */
 81015d0:	f8df d034 	ldr.w	sp, [pc, #52]	; 8101608 <LoopFillZerobss+0xe>

/* Call the clock system initialization function.*/
  bl  SystemInit
 81015d4:	f7fe fe80 	bl	81002d8 <SystemInit>

/* Copy the data segment initializers from flash to SRAM */
  ldr r0, =_sdata
 81015d8:	480c      	ldr	r0, [pc, #48]	; (810160c <LoopFillZerobss+0x12>)
  ldr r1, =_edata
 81015da:	490d      	ldr	r1, [pc, #52]	; (8101610 <LoopFillZerobss+0x16>)
  ldr r2, =_sidata
 81015dc:	4a0d      	ldr	r2, [pc, #52]	; (8101614 <LoopFillZerobss+0x1a>)
  movs r3, #0
 81015de:	2300      	movs	r3, #0
  b LoopCopyDataInit
 81015e0:	e002      	b.n	81015e8 <LoopCopyDataInit>

081015e2 <CopyDataInit>:

CopyDataInit:
  ldr r4, [r2, r3]
 81015e2:	58d4      	ldr	r4, [r2, r3]
  str r4, [r0, r3]
 81015e4:	50c4      	str	r4, [r0, r3]
  adds r3, r3, #4
 81015e6:	3304      	adds	r3, #4

081015e8 <LoopCopyDataInit>:

LoopCopyDataInit:
  adds r4, r0, r3
 81015e8:	18c4      	adds	r4, r0, r3
  cmp r4, r1
 81015ea:	428c      	cmp	r4, r1
  bcc CopyDataInit
 81015ec:	d3f9      	bcc.n	81015e2 <CopyDataInit>
/* Zero fill the bss segment. */
  ldr r2, =_sbss
 81015ee:	4a0a      	ldr	r2, [pc, #40]	; (8101618 <LoopFillZerobss+0x1e>)
  ldr r4, =_ebss
 81015f0:	4c0a      	ldr	r4, [pc, #40]	; (810161c <LoopFillZerobss+0x22>)
  movs r3, #0
 81015f2:	2300      	movs	r3, #0
  b LoopFillZerobss
 81015f4:	e001      	b.n	81015fa <LoopFillZerobss>

081015f6 <FillZerobss>:

FillZerobss:
  str  r3, [r2]
 81015f6:	6013      	str	r3, [r2, #0]
  adds r2, r2, #4
 81015f8:	3204      	adds	r2, #4

081015fa <LoopFillZerobss>:

LoopFillZerobss:
  cmp r2, r4
 81015fa:	42a2      	cmp	r2, r4
  bcc FillZerobss
 81015fc:	d3fb      	bcc.n	81015f6 <FillZerobss>

/* Call static constructors */
    bl __libc_init_array
 81015fe:	f003 fd1d 	bl	810503c <__libc_init_array>
/* Call the application's entry point.*/
  bl  main
 8101602:	f7ff fb6f 	bl	8100ce4 <main>
  bx  lr
 8101606:	4770      	bx	lr
  ldr   sp, =_estack      /* set stack pointer */
 8101608:	10048000 	.word	0x10048000
  ldr r0, =_sdata
 810160c:	10000000 	.word	0x10000000
  ldr r1, =_edata
 8101610:	10000010 	.word	0x10000010
  ldr r2, =_sidata
 8101614:	081050bc 	.word	0x081050bc
  ldr r2, =_sbss
 8101618:	10000010 	.word	0x10000010
  ldr r4, =_ebss
 810161c:	10000468 	.word	0x10000468

08101620 <ADC3_IRQHandler>:
 * @retval None
*/
    .section  .text.Default_Handler,"ax",%progbits
Default_Handler:
Infinite_Loop:
  b  Infinite_Loop
 8101620:	e7fe      	b.n	8101620 <ADC3_IRQHandler>
	...

08101624 <HAL_Init>:
  *         need to ensure that the SysTick time base is always set to 1 millisecond
  *         to have correct HAL operation.
  * @retval HAL status
  */
HAL_StatusTypeDef HAL_Init(void)
{
 8101624:	b580      	push	{r7, lr}
 8101626:	b082      	sub	sp, #8
 8101628:	af00      	add	r7, sp, #0

uint32_t common_system_clock;

#if defined(DUAL_CORE) && defined(CORE_CM4)
   /* Configure Cortex-M4 Instruction cache through ART accelerator */
   __HAL_RCC_ART_CLK_ENABLE();                   /* Enable the Cortex-M4 ART Clock */
 810162a:	4b28      	ldr	r3, [pc, #160]	; (81016cc <HAL_Init+0xa8>)
 810162c:	f8d3 30d8 	ldr.w	r3, [r3, #216]	; 0xd8
 8101630:	4a26      	ldr	r2, [pc, #152]	; (81016cc <HAL_Init+0xa8>)
 8101632:	f443 4380 	orr.w	r3, r3, #16384	; 0x4000
 8101636:	f8c2 30d8 	str.w	r3, [r2, #216]	; 0xd8
 810163a:	4b24      	ldr	r3, [pc, #144]	; (81016cc <HAL_Init+0xa8>)
 810163c:	f8d3 30d8 	ldr.w	r3, [r3, #216]	; 0xd8
 8101640:	f403 4380 	and.w	r3, r3, #16384	; 0x4000
 8101644:	603b      	str	r3, [r7, #0]
 8101646:	683b      	ldr	r3, [r7, #0]
   __HAL_ART_CONFIG_BASE_ADDRESS(0x08100000UL);  /* Configure the Cortex-M4 ART Base address to the Flash Bank 2 : */
 8101648:	4b21      	ldr	r3, [pc, #132]	; (81016d0 <HAL_Init+0xac>)
 810164a:	681b      	ldr	r3, [r3, #0]
 810164c:	f423 237f 	bic.w	r3, r3, #1044480	; 0xff000
 8101650:	f423 6370 	bic.w	r3, r3, #3840	; 0xf00
 8101654:	4a1e      	ldr	r2, [pc, #120]	; (81016d0 <HAL_Init+0xac>)
 8101656:	f443 4301 	orr.w	r3, r3, #33024	; 0x8100
 810165a:	6013      	str	r3, [r2, #0]
   __HAL_ART_ENABLE();                           /* Enable the Cortex-M4 ART */
 810165c:	4b1c      	ldr	r3, [pc, #112]	; (81016d0 <HAL_Init+0xac>)
 810165e:	681b      	ldr	r3, [r3, #0]
 8101660:	4a1b      	ldr	r2, [pc, #108]	; (81016d0 <HAL_Init+0xac>)
 8101662:	f043 0301 	orr.w	r3, r3, #1
 8101666:	6013      	str	r3, [r2, #0]
#endif /* DUAL_CORE &&  CORE_CM4 */

  /* Set Interrupt Group Priority */
  HAL_NVIC_SetPriorityGrouping(NVIC_PRIORITYGROUP_4);
 8101668:	2003      	movs	r0, #3
 810166a:	f000 f983 	bl	8101974 <HAL_NVIC_SetPriorityGrouping>

  /* Update the SystemCoreClock global variable */
#if defined(RCC_D1CFGR_D1CPRE)
  common_system_clock = HAL_RCC_GetSysClockFreq() >> ((D1CorePrescTable[(RCC->D1CFGR & RCC_D1CFGR_D1CPRE)>> RCC_D1CFGR_D1CPRE_Pos]) & 0x1FU);
 810166e:	f002 fb59 	bl	8103d24 <HAL_RCC_GetSysClockFreq>
 8101672:	4602      	mov	r2, r0
 8101674:	4b15      	ldr	r3, [pc, #84]	; (81016cc <HAL_Init+0xa8>)
 8101676:	699b      	ldr	r3, [r3, #24]
 8101678:	0a1b      	lsrs	r3, r3, #8
 810167a:	f003 030f 	and.w	r3, r3, #15
 810167e:	4915      	ldr	r1, [pc, #84]	; (81016d4 <HAL_Init+0xb0>)
 8101680:	5ccb      	ldrb	r3, [r1, r3]
 8101682:	f003 031f 	and.w	r3, r3, #31
 8101686:	fa22 f303 	lsr.w	r3, r2, r3
 810168a:	607b      	str	r3, [r7, #4]
  common_system_clock = HAL_RCC_GetSysClockFreq() >> ((D1CorePrescTable[(RCC->CDCFGR1 & RCC_CDCFGR1_CDCPRE)>> RCC_CDCFGR1_CDCPRE_Pos]) & 0x1FU);
#endif

  /* Update the SystemD2Clock global variable */
#if defined(RCC_D1CFGR_HPRE)
  SystemD2Clock = (common_system_clock >> ((D1CorePrescTable[(RCC->D1CFGR & RCC_D1CFGR_HPRE)>> RCC_D1CFGR_HPRE_Pos]) & 0x1FU));
 810168c:	4b0f      	ldr	r3, [pc, #60]	; (81016cc <HAL_Init+0xa8>)
 810168e:	699b      	ldr	r3, [r3, #24]
 8101690:	f003 030f 	and.w	r3, r3, #15
 8101694:	4a0f      	ldr	r2, [pc, #60]	; (81016d4 <HAL_Init+0xb0>)
 8101696:	5cd3      	ldrb	r3, [r2, r3]
 8101698:	f003 031f 	and.w	r3, r3, #31
 810169c:	687a      	ldr	r2, [r7, #4]
 810169e:	fa22 f303 	lsr.w	r3, r2, r3
 81016a2:	4a0d      	ldr	r2, [pc, #52]	; (81016d8 <HAL_Init+0xb4>)
 81016a4:	6013      	str	r3, [r2, #0]
#else
  SystemD2Clock = (common_system_clock >> ((D1CorePrescTable[(RCC->CDCFGR1 & RCC_CDCFGR1_HPRE)>> RCC_CDCFGR1_HPRE_Pos]) & 0x1FU));
#endif

#if defined(DUAL_CORE) && defined(CORE_CM4)
  SystemCoreClock = SystemD2Clock;
 81016a6:	4b0c      	ldr	r3, [pc, #48]	; (81016d8 <HAL_Init+0xb4>)
 81016a8:	681b      	ldr	r3, [r3, #0]
 81016aa:	4a0c      	ldr	r2, [pc, #48]	; (81016dc <HAL_Init+0xb8>)
 81016ac:	6013      	str	r3, [r2, #0]
#else
  SystemCoreClock = common_system_clock;
#endif /* DUAL_CORE && CORE_CM4 */

  /* Use systick as time base source and configure 1ms tick (default clock after Reset is HSI) */
  if(HAL_InitTick(TICK_INT_PRIORITY) != HAL_OK)
 81016ae:	2000      	movs	r0, #0
 81016b0:	f000 f816 	bl	81016e0 <HAL_InitTick>
 81016b4:	4603      	mov	r3, r0
 81016b6:	2b00      	cmp	r3, #0
 81016b8:	d001      	beq.n	81016be <HAL_Init+0x9a>
  {
    return HAL_ERROR;
 81016ba:	2301      	movs	r3, #1
 81016bc:	e002      	b.n	81016c4 <HAL_Init+0xa0>
  }

  /* Init the low level hardware */
  HAL_MspInit();
 81016be:	f7ff fe4f 	bl	8101360 <HAL_MspInit>

  /* Return function status */
  return HAL_OK;
 81016c2:	2300      	movs	r3, #0
}
 81016c4:	4618      	mov	r0, r3
 81016c6:	3708      	adds	r7, #8
 81016c8:	46bd      	mov	sp, r7
 81016ca:	bd80      	pop	{r7, pc}
 81016cc:	58024400 	.word	0x58024400
 81016d0:	40024400 	.word	0x40024400
 81016d4:	0810509c 	.word	0x0810509c
 81016d8:	10000004 	.word	0x10000004
 81016dc:	10000000 	.word	0x10000000

081016e0 <HAL_InitTick>:
  *       implementation  in user file.
  * @param TickPriority: Tick interrupt priority.
  * @retval HAL status
  */
__weak HAL_StatusTypeDef HAL_InitTick(uint32_t TickPriority)
{
 81016e0:	b580      	push	{r7, lr}
 81016e2:	b082      	sub	sp, #8
 81016e4:	af00      	add	r7, sp, #0
 81016e6:	6078      	str	r0, [r7, #4]
  /* Check uwTickFreq for MisraC 2012 (even if uwTickFreq is a enum type that don't take the value zero)*/
  if((uint32_t)uwTickFreq == 0UL)
 81016e8:	4b15      	ldr	r3, [pc, #84]	; (8101740 <HAL_InitTick+0x60>)
 81016ea:	781b      	ldrb	r3, [r3, #0]
 81016ec:	2b00      	cmp	r3, #0
 81016ee:	d101      	bne.n	81016f4 <HAL_InitTick+0x14>
  {
    return HAL_ERROR;
 81016f0:	2301      	movs	r3, #1
 81016f2:	e021      	b.n	8101738 <HAL_InitTick+0x58>
  }

    /* Configure the SysTick to have interrupt in 1ms time basis*/
    if (HAL_SYSTICK_Config(SystemCoreClock / (1000UL / (uint32_t)uwTickFreq)) > 0U)
 81016f4:	4b13      	ldr	r3, [pc, #76]	; (8101744 <HAL_InitTick+0x64>)
 81016f6:	681a      	ldr	r2, [r3, #0]
 81016f8:	4b11      	ldr	r3, [pc, #68]	; (8101740 <HAL_InitTick+0x60>)
 81016fa:	781b      	ldrb	r3, [r3, #0]
 81016fc:	4619      	mov	r1, r3
 81016fe:	f44f 737a 	mov.w	r3, #1000	; 0x3e8
 8101702:	fbb3 f3f1 	udiv	r3, r3, r1
 8101706:	fbb2 f3f3 	udiv	r3, r2, r3
 810170a:	4618      	mov	r0, r3
 810170c:	f000 f965 	bl	81019da <HAL_SYSTICK_Config>
 8101710:	4603      	mov	r3, r0
 8101712:	2b00      	cmp	r3, #0
 8101714:	d001      	beq.n	810171a <HAL_InitTick+0x3a>
    {
      return HAL_ERROR;
 8101716:	2301      	movs	r3, #1
 8101718:	e00e      	b.n	8101738 <HAL_InitTick+0x58>
    }

  /* Configure the SysTick IRQ priority */
  if (TickPriority < (1UL << __NVIC_PRIO_BITS))
 810171a:	687b      	ldr	r3, [r7, #4]
 810171c:	2b0f      	cmp	r3, #15
 810171e:	d80a      	bhi.n	8101736 <HAL_InitTick+0x56>
  {
    HAL_NVIC_SetPriority(SysTick_IRQn, TickPriority, 0U);
 8101720:	2200      	movs	r2, #0
 8101722:	6879      	ldr	r1, [r7, #4]
 8101724:	f04f 30ff 	mov.w	r0, #4294967295
 8101728:	f000 f92f 	bl	810198a <HAL_NVIC_SetPriority>
    uwTickPrio = TickPriority;
 810172c:	4a06      	ldr	r2, [pc, #24]	; (8101748 <HAL_InitTick+0x68>)
 810172e:	687b      	ldr	r3, [r7, #4]
 8101730:	6013      	str	r3, [r2, #0]
  {
    return HAL_ERROR;
  }

  /* Return function status */
  return HAL_OK;
 8101732:	2300      	movs	r3, #0
 8101734:	e000      	b.n	8101738 <HAL_InitTick+0x58>
    return HAL_ERROR;
 8101736:	2301      	movs	r3, #1
}
 8101738:	4618      	mov	r0, r3
 810173a:	3708      	adds	r7, #8
 810173c:	46bd      	mov	sp, r7
 810173e:	bd80      	pop	{r7, pc}
 8101740:	1000000c 	.word	0x1000000c
 8101744:	10000000 	.word	0x10000000
 8101748:	10000008 	.word	0x10000008

0810174c <HAL_IncTick>:
 * @note This function is declared as __weak to be overwritten in case of other
  *      implementations in user file.
  * @retval None
  */
__weak void HAL_IncTick(void)
{
 810174c:	b480      	push	{r7}
 810174e:	af00      	add	r7, sp, #0
  uwTick += (uint32_t)uwTickFreq;
 8101750:	4b06      	ldr	r3, [pc, #24]	; (810176c <HAL_IncTick+0x20>)
 8101752:	781b      	ldrb	r3, [r3, #0]
 8101754:	461a      	mov	r2, r3
 8101756:	4b06      	ldr	r3, [pc, #24]	; (8101770 <HAL_IncTick+0x24>)
 8101758:	681b      	ldr	r3, [r3, #0]
 810175a:	4413      	add	r3, r2
 810175c:	4a04      	ldr	r2, [pc, #16]	; (8101770 <HAL_IncTick+0x24>)
 810175e:	6013      	str	r3, [r2, #0]
}
 8101760:	bf00      	nop
 8101762:	46bd      	mov	sp, r7
 8101764:	f85d 7b04 	ldr.w	r7, [sp], #4
 8101768:	4770      	bx	lr
 810176a:	bf00      	nop
 810176c:	1000000c 	.word	0x1000000c
 8101770:	10000464 	.word	0x10000464

08101774 <HAL_GetTick>:
  * @note This function is declared as __weak to be overwritten in case of other
  *       implementations in user file.
  * @retval tick value
  */
__weak uint32_t HAL_GetTick(void)
{
 8101774:	b480      	push	{r7}
 8101776:	af00      	add	r7, sp, #0
  return uwTick;
 8101778:	4b03      	ldr	r3, [pc, #12]	; (8101788 <HAL_GetTick+0x14>)
 810177a:	681b      	ldr	r3, [r3, #0]
}
 810177c:	4618      	mov	r0, r3
 810177e:	46bd      	mov	sp, r7
 8101780:	f85d 7b04 	ldr.w	r7, [sp], #4
 8101784:	4770      	bx	lr
 8101786:	bf00      	nop
 8101788:	10000464 	.word	0x10000464

0810178c <HAL_Delay>:
  *       implementations in user file.
  * @param Delay  specifies the delay time length, in milliseconds.
  * @retval None
  */
__weak void HAL_Delay(uint32_t Delay)
{
 810178c:	b580      	push	{r7, lr}
 810178e:	b084      	sub	sp, #16
 8101790:	af00      	add	r7, sp, #0
 8101792:	6078      	str	r0, [r7, #4]
  uint32_t tickstart = HAL_GetTick();
 8101794:	f7ff ffee 	bl	8101774 <HAL_GetTick>
 8101798:	60b8      	str	r0, [r7, #8]
  uint32_t wait = Delay;
 810179a:	687b      	ldr	r3, [r7, #4]
 810179c:	60fb      	str	r3, [r7, #12]

  /* Add a freq to guarantee minimum wait */
  if (wait < HAL_MAX_DELAY)
 810179e:	68fb      	ldr	r3, [r7, #12]
 81017a0:	f1b3 3fff 	cmp.w	r3, #4294967295
 81017a4:	d005      	beq.n	81017b2 <HAL_Delay+0x26>
  {
    wait += (uint32_t)(uwTickFreq);
 81017a6:	4b0a      	ldr	r3, [pc, #40]	; (81017d0 <HAL_Delay+0x44>)
 81017a8:	781b      	ldrb	r3, [r3, #0]
 81017aa:	461a      	mov	r2, r3
 81017ac:	68fb      	ldr	r3, [r7, #12]
 81017ae:	4413      	add	r3, r2
 81017b0:	60fb      	str	r3, [r7, #12]
  }

  while ((HAL_GetTick() - tickstart) < wait)
 81017b2:	bf00      	nop
 81017b4:	f7ff ffde 	bl	8101774 <HAL_GetTick>
 81017b8:	4602      	mov	r2, r0
 81017ba:	68bb      	ldr	r3, [r7, #8]
 81017bc:	1ad3      	subs	r3, r2, r3
 81017be:	68fa      	ldr	r2, [r7, #12]
 81017c0:	429a      	cmp	r2, r3
 81017c2:	d8f7      	bhi.n	81017b4 <HAL_Delay+0x28>
  {
  }
}
 81017c4:	bf00      	nop
 81017c6:	bf00      	nop
 81017c8:	3710      	adds	r7, #16
 81017ca:	46bd      	mov	sp, r7
 81017cc:	bd80      	pop	{r7, pc}
 81017ce:	bf00      	nop
 81017d0:	1000000c 	.word	0x1000000c

081017d4 <__NVIC_SetPriorityGrouping>:
           In case of a conflict between priority grouping and available
           priority bits (__NVIC_PRIO_BITS), the smallest possible priority group is set.
  \param [in]      PriorityGroup  Priority grouping field.
 */
__STATIC_INLINE void __NVIC_SetPriorityGrouping(uint32_t PriorityGroup)
{
 81017d4:	b480      	push	{r7}
 81017d6:	b085      	sub	sp, #20
 81017d8:	af00      	add	r7, sp, #0
 81017da:	6078      	str	r0, [r7, #4]
  uint32_t reg_value;
  uint32_t PriorityGroupTmp = (PriorityGroup & (uint32_t)0x07UL);             /* only values 0..7 are used          */
 81017dc:	687b      	ldr	r3, [r7, #4]
 81017de:	f003 0307 	and.w	r3, r3, #7
 81017e2:	60fb      	str	r3, [r7, #12]

  reg_value  =  SCB->AIRCR;                                                   /* read old register configuration    */
 81017e4:	4b0c      	ldr	r3, [pc, #48]	; (8101818 <__NVIC_SetPriorityGrouping+0x44>)
 81017e6:	68db      	ldr	r3, [r3, #12]
 81017e8:	60bb      	str	r3, [r7, #8]
  reg_value &= ~((uint32_t)(SCB_AIRCR_VECTKEY_Msk | SCB_AIRCR_PRIGROUP_Msk)); /* clear bits to change               */
 81017ea:	68ba      	ldr	r2, [r7, #8]
 81017ec:	f64f 03ff 	movw	r3, #63743	; 0xf8ff
 81017f0:	4013      	ands	r3, r2
 81017f2:	60bb      	str	r3, [r7, #8]
  reg_value  =  (reg_value                                   |
                ((uint32_t)0x5FAUL << SCB_AIRCR_VECTKEY_Pos) |
                (PriorityGroupTmp << SCB_AIRCR_PRIGROUP_Pos)  );              /* Insert write key and priority group */
 81017f4:	68fb      	ldr	r3, [r7, #12]
 81017f6:	021a      	lsls	r2, r3, #8
                ((uint32_t)0x5FAUL << SCB_AIRCR_VECTKEY_Pos) |
 81017f8:	68bb      	ldr	r3, [r7, #8]
 81017fa:	4313      	orrs	r3, r2
  reg_value  =  (reg_value                                   |
 81017fc:	f043 63bf 	orr.w	r3, r3, #100139008	; 0x5f80000
 8101800:	f443 3300 	orr.w	r3, r3, #131072	; 0x20000
 8101804:	60bb      	str	r3, [r7, #8]
  SCB->AIRCR =  reg_value;
 8101806:	4a04      	ldr	r2, [pc, #16]	; (8101818 <__NVIC_SetPriorityGrouping+0x44>)
 8101808:	68bb      	ldr	r3, [r7, #8]
 810180a:	60d3      	str	r3, [r2, #12]
}
 810180c:	bf00      	nop
 810180e:	3714      	adds	r7, #20
 8101810:	46bd      	mov	sp, r7
 8101812:	f85d 7b04 	ldr.w	r7, [sp], #4
 8101816:	4770      	bx	lr
 8101818:	e000ed00 	.word	0xe000ed00

0810181c <__NVIC_GetPriorityGrouping>:
  \brief   Get Priority Grouping
  \details Reads the priority grouping field from the NVIC Interrupt Controller.
  \return                Priority grouping field (SCB->AIRCR [10:8] PRIGROUP field).
 */
__STATIC_INLINE uint32_t __NVIC_GetPriorityGrouping(void)
{
 810181c:	b480      	push	{r7}
 810181e:	af00      	add	r7, sp, #0
  return ((uint32_t)((SCB->AIRCR & SCB_AIRCR_PRIGROUP_Msk) >> SCB_AIRCR_PRIGROUP_Pos));
 8101820:	4b04      	ldr	r3, [pc, #16]	; (8101834 <__NVIC_GetPriorityGrouping+0x18>)
 8101822:	68db      	ldr	r3, [r3, #12]
 8101824:	0a1b      	lsrs	r3, r3, #8
 8101826:	f003 0307 	and.w	r3, r3, #7
}
 810182a:	4618      	mov	r0, r3
 810182c:	46bd      	mov	sp, r7
 810182e:	f85d 7b04 	ldr.w	r7, [sp], #4
 8101832:	4770      	bx	lr
 8101834:	e000ed00 	.word	0xe000ed00

08101838 <__NVIC_EnableIRQ>:
  \details Enables a device specific interrupt in the NVIC interrupt controller.
  \param [in]      IRQn  Device specific interrupt number.
  \note    IRQn must not be negative.
 */
__STATIC_INLINE void __NVIC_EnableIRQ(IRQn_Type IRQn)
{
 8101838:	b480      	push	{r7}
 810183a:	b083      	sub	sp, #12
 810183c:	af00      	add	r7, sp, #0
 810183e:	4603      	mov	r3, r0
 8101840:	80fb      	strh	r3, [r7, #6]
  if ((int32_t)(IRQn) >= 0)
 8101842:	f9b7 3006 	ldrsh.w	r3, [r7, #6]
 8101846:	2b00      	cmp	r3, #0
 8101848:	db0b      	blt.n	8101862 <__NVIC_EnableIRQ+0x2a>
  {
    __COMPILER_BARRIER();
    NVIC->ISER[(((uint32_t)IRQn) >> 5UL)] = (uint32_t)(1UL << (((uint32_t)IRQn) & 0x1FUL));
 810184a:	88fb      	ldrh	r3, [r7, #6]
 810184c:	f003 021f 	and.w	r2, r3, #31
 8101850:	4907      	ldr	r1, [pc, #28]	; (8101870 <__NVIC_EnableIRQ+0x38>)
 8101852:	f9b7 3006 	ldrsh.w	r3, [r7, #6]
 8101856:	095b      	lsrs	r3, r3, #5
 8101858:	2001      	movs	r0, #1
 810185a:	fa00 f202 	lsl.w	r2, r0, r2
 810185e:	f841 2023 	str.w	r2, [r1, r3, lsl #2]
    __COMPILER_BARRIER();
  }
}
 8101862:	bf00      	nop
 8101864:	370c      	adds	r7, #12
 8101866:	46bd      	mov	sp, r7
 8101868:	f85d 7b04 	ldr.w	r7, [sp], #4
 810186c:	4770      	bx	lr
 810186e:	bf00      	nop
 8101870:	e000e100 	.word	0xe000e100

08101874 <__NVIC_SetPriority>:
  \param [in]      IRQn  Interrupt number.
  \param [in]  priority  Priority to set.
  \note    The priority cannot be set for every processor exception.
 */
__STATIC_INLINE void __NVIC_SetPriority(IRQn_Type IRQn, uint32_t priority)
{
 8101874:	b480      	push	{r7}
 8101876:	b083      	sub	sp, #12
 8101878:	af00      	add	r7, sp, #0
 810187a:	4603      	mov	r3, r0
 810187c:	6039      	str	r1, [r7, #0]
 810187e:	80fb      	strh	r3, [r7, #6]
  if ((int32_t)(IRQn) >= 0)
 8101880:	f9b7 3006 	ldrsh.w	r3, [r7, #6]
 8101884:	2b00      	cmp	r3, #0
 8101886:	db0a      	blt.n	810189e <__NVIC_SetPriority+0x2a>
  {
    NVIC->IP[((uint32_t)IRQn)]               = (uint8_t)((priority << (8U - __NVIC_PRIO_BITS)) & (uint32_t)0xFFUL);
 8101888:	683b      	ldr	r3, [r7, #0]
 810188a:	b2da      	uxtb	r2, r3
 810188c:	490c      	ldr	r1, [pc, #48]	; (81018c0 <__NVIC_SetPriority+0x4c>)
 810188e:	f9b7 3006 	ldrsh.w	r3, [r7, #6]
 8101892:	0112      	lsls	r2, r2, #4
 8101894:	b2d2      	uxtb	r2, r2
 8101896:	440b      	add	r3, r1
 8101898:	f883 2300 	strb.w	r2, [r3, #768]	; 0x300
  }
  else
  {
    SCB->SHP[(((uint32_t)IRQn) & 0xFUL)-4UL] = (uint8_t)((priority << (8U - __NVIC_PRIO_BITS)) & (uint32_t)0xFFUL);
  }
}
 810189c:	e00a      	b.n	81018b4 <__NVIC_SetPriority+0x40>
    SCB->SHP[(((uint32_t)IRQn) & 0xFUL)-4UL] = (uint8_t)((priority << (8U - __NVIC_PRIO_BITS)) & (uint32_t)0xFFUL);
 810189e:	683b      	ldr	r3, [r7, #0]
 81018a0:	b2da      	uxtb	r2, r3
 81018a2:	4908      	ldr	r1, [pc, #32]	; (81018c4 <__NVIC_SetPriority+0x50>)
 81018a4:	88fb      	ldrh	r3, [r7, #6]
 81018a6:	f003 030f 	and.w	r3, r3, #15
 81018aa:	3b04      	subs	r3, #4
 81018ac:	0112      	lsls	r2, r2, #4
 81018ae:	b2d2      	uxtb	r2, r2
 81018b0:	440b      	add	r3, r1
 81018b2:	761a      	strb	r2, [r3, #24]
}
 81018b4:	bf00      	nop
 81018b6:	370c      	adds	r7, #12
 81018b8:	46bd      	mov	sp, r7
 81018ba:	f85d 7b04 	ldr.w	r7, [sp], #4
 81018be:	4770      	bx	lr
 81018c0:	e000e100 	.word	0xe000e100
 81018c4:	e000ed00 	.word	0xe000ed00

081018c8 <NVIC_EncodePriority>:
  \param [in]   PreemptPriority  Preemptive priority value (starting from 0).
  \param [in]       SubPriority  Subpriority value (starting from 0).
  \return                        Encoded priority. Value can be used in the function \ref NVIC_SetPriority().
 */
__STATIC_INLINE uint32_t NVIC_EncodePriority (uint32_t PriorityGroup, uint32_t PreemptPriority, uint32_t SubPriority)
{
 81018c8:	b480      	push	{r7}
 81018ca:	b089      	sub	sp, #36	; 0x24
 81018cc:	af00      	add	r7, sp, #0
 81018ce:	60f8      	str	r0, [r7, #12]
 81018d0:	60b9      	str	r1, [r7, #8]
 81018d2:	607a      	str	r2, [r7, #4]
  uint32_t PriorityGroupTmp = (PriorityGroup & (uint32_t)0x07UL);   /* only values 0..7 are used          */
 81018d4:	68fb      	ldr	r3, [r7, #12]
 81018d6:	f003 0307 	and.w	r3, r3, #7
 81018da:	61fb      	str	r3, [r7, #28]
  uint32_t PreemptPriorityBits;
  uint32_t SubPriorityBits;

  PreemptPriorityBits = ((7UL - PriorityGroupTmp) > (uint32_t)(__NVIC_PRIO_BITS)) ? (uint32_t)(__NVIC_PRIO_BITS) : (uint32_t)(7UL - PriorityGroupTmp);
 81018dc:	69fb      	ldr	r3, [r7, #28]
 81018de:	f1c3 0307 	rsb	r3, r3, #7
 81018e2:	2b04      	cmp	r3, #4
 81018e4:	bf28      	it	cs
 81018e6:	2304      	movcs	r3, #4
 81018e8:	61bb      	str	r3, [r7, #24]
  SubPriorityBits     = ((PriorityGroupTmp + (uint32_t)(__NVIC_PRIO_BITS)) < (uint32_t)7UL) ? (uint32_t)0UL : (uint32_t)((PriorityGroupTmp - 7UL) + (uint32_t)(__NVIC_PRIO_BITS));
 81018ea:	69fb      	ldr	r3, [r7, #28]
 81018ec:	3304      	adds	r3, #4
 81018ee:	2b06      	cmp	r3, #6
 81018f0:	d902      	bls.n	81018f8 <NVIC_EncodePriority+0x30>
 81018f2:	69fb      	ldr	r3, [r7, #28]
 81018f4:	3b03      	subs	r3, #3
 81018f6:	e000      	b.n	81018fa <NVIC_EncodePriority+0x32>
 81018f8:	2300      	movs	r3, #0
 81018fa:	617b      	str	r3, [r7, #20]

  return (
           ((PreemptPriority & (uint32_t)((1UL << (PreemptPriorityBits)) - 1UL)) << SubPriorityBits) |
 81018fc:	f04f 32ff 	mov.w	r2, #4294967295
 8101900:	69bb      	ldr	r3, [r7, #24]
 8101902:	fa02 f303 	lsl.w	r3, r2, r3
 8101906:	43da      	mvns	r2, r3
 8101908:	68bb      	ldr	r3, [r7, #8]
 810190a:	401a      	ands	r2, r3
 810190c:	697b      	ldr	r3, [r7, #20]
 810190e:	409a      	lsls	r2, r3
           ((SubPriority     & (uint32_t)((1UL << (SubPriorityBits    )) - 1UL)))
 8101910:	f04f 31ff 	mov.w	r1, #4294967295
 8101914:	697b      	ldr	r3, [r7, #20]
 8101916:	fa01 f303 	lsl.w	r3, r1, r3
 810191a:	43d9      	mvns	r1, r3
 810191c:	687b      	ldr	r3, [r7, #4]
 810191e:	400b      	ands	r3, r1
           ((PreemptPriority & (uint32_t)((1UL << (PreemptPriorityBits)) - 1UL)) << SubPriorityBits) |
 8101920:	4313      	orrs	r3, r2
         );
}
 8101922:	4618      	mov	r0, r3
 8101924:	3724      	adds	r7, #36	; 0x24
 8101926:	46bd      	mov	sp, r7
 8101928:	f85d 7b04 	ldr.w	r7, [sp], #4
 810192c:	4770      	bx	lr
	...

08101930 <SysTick_Config>:
  \note    When the variable <b>__Vendor_SysTickConfig</b> is set to 1, then the
           function <b>SysTick_Config</b> is not included. In this case, the file <b><i>device</i>.h</b>
           must contain a vendor-specific implementation of this function.
 */
__STATIC_INLINE uint32_t SysTick_Config(uint32_t ticks)
{
 8101930:	b580      	push	{r7, lr}
 8101932:	b082      	sub	sp, #8
 8101934:	af00      	add	r7, sp, #0
 8101936:	6078      	str	r0, [r7, #4]
  if ((ticks - 1UL) > SysTick_LOAD_RELOAD_Msk)
 8101938:	687b      	ldr	r3, [r7, #4]
 810193a:	3b01      	subs	r3, #1
 810193c:	f1b3 7f80 	cmp.w	r3, #16777216	; 0x1000000
 8101940:	d301      	bcc.n	8101946 <SysTick_Config+0x16>
  {
    return (1UL);                                                   /* Reload value impossible */
 8101942:	2301      	movs	r3, #1
 8101944:	e00f      	b.n	8101966 <SysTick_Config+0x36>
  }

  SysTick->LOAD  = (uint32_t)(ticks - 1UL);                         /* set reload register */
 8101946:	4a0a      	ldr	r2, [pc, #40]	; (8101970 <SysTick_Config+0x40>)
 8101948:	687b      	ldr	r3, [r7, #4]
 810194a:	3b01      	subs	r3, #1
 810194c:	6053      	str	r3, [r2, #4]
  NVIC_SetPriority (SysTick_IRQn, (1UL << __NVIC_PRIO_BITS) - 1UL); /* set Priority for Systick Interrupt */
 810194e:	210f      	movs	r1, #15
 8101950:	f04f 30ff 	mov.w	r0, #4294967295
 8101954:	f7ff ff8e 	bl	8101874 <__NVIC_SetPriority>
  SysTick->VAL   = 0UL;                                             /* Load the SysTick Counter Value */
 8101958:	4b05      	ldr	r3, [pc, #20]	; (8101970 <SysTick_Config+0x40>)
 810195a:	2200      	movs	r2, #0
 810195c:	609a      	str	r2, [r3, #8]
  SysTick->CTRL  = SysTick_CTRL_CLKSOURCE_Msk |
 810195e:	4b04      	ldr	r3, [pc, #16]	; (8101970 <SysTick_Config+0x40>)
 8101960:	2207      	movs	r2, #7
 8101962:	601a      	str	r2, [r3, #0]
                   SysTick_CTRL_TICKINT_Msk   |
                   SysTick_CTRL_ENABLE_Msk;                         /* Enable SysTick IRQ and SysTick Timer */
  return (0UL);                                                     /* Function successful */
 8101964:	2300      	movs	r3, #0
}
 8101966:	4618      	mov	r0, r3
 8101968:	3708      	adds	r7, #8
 810196a:	46bd      	mov	sp, r7
 810196c:	bd80      	pop	{r7, pc}
 810196e:	bf00      	nop
 8101970:	e000e010 	.word	0xe000e010

08101974 <HAL_NVIC_SetPriorityGrouping>:
  * @note   When the NVIC_PriorityGroup_0 is selected, IRQ preemption is no more possible.
  *         The pending IRQ priority will be managed only by the subpriority.
  * @retval None
  */
void HAL_NVIC_SetPriorityGrouping(uint32_t PriorityGroup)
{
 8101974:	b580      	push	{r7, lr}
 8101976:	b082      	sub	sp, #8
 8101978:	af00      	add	r7, sp, #0
 810197a:	6078      	str	r0, [r7, #4]
  /* Check the parameters */
  assert_param(IS_NVIC_PRIORITY_GROUP(PriorityGroup));

  /* Set the PRIGROUP[10:8] bits according to the PriorityGroup parameter value */
  NVIC_SetPriorityGrouping(PriorityGroup);
 810197c:	6878      	ldr	r0, [r7, #4]
 810197e:	f7ff ff29 	bl	81017d4 <__NVIC_SetPriorityGrouping>
}
 8101982:	bf00      	nop
 8101984:	3708      	adds	r7, #8
 8101986:	46bd      	mov	sp, r7
 8101988:	bd80      	pop	{r7, pc}

0810198a <HAL_NVIC_SetPriority>:
  *         This parameter can be a value between 0 and 15
  *         A lower priority value indicates a higher priority.
  * @retval None
  */
void HAL_NVIC_SetPriority(IRQn_Type IRQn, uint32_t PreemptPriority, uint32_t SubPriority)
{
 810198a:	b580      	push	{r7, lr}
 810198c:	b086      	sub	sp, #24
 810198e:	af00      	add	r7, sp, #0
 8101990:	4603      	mov	r3, r0
 8101992:	60b9      	str	r1, [r7, #8]
 8101994:	607a      	str	r2, [r7, #4]
 8101996:	81fb      	strh	r3, [r7, #14]

  /* Check the parameters */
  assert_param(IS_NVIC_SUB_PRIORITY(SubPriority));
  assert_param(IS_NVIC_PREEMPTION_PRIORITY(PreemptPriority));

  prioritygroup = NVIC_GetPriorityGrouping();
 8101998:	f7ff ff40 	bl	810181c <__NVIC_GetPriorityGrouping>
 810199c:	6178      	str	r0, [r7, #20]

  NVIC_SetPriority(IRQn, NVIC_EncodePriority(prioritygroup, PreemptPriority, SubPriority));
 810199e:	687a      	ldr	r2, [r7, #4]
 81019a0:	68b9      	ldr	r1, [r7, #8]
 81019a2:	6978      	ldr	r0, [r7, #20]
 81019a4:	f7ff ff90 	bl	81018c8 <NVIC_EncodePriority>
 81019a8:	4602      	mov	r2, r0
 81019aa:	f9b7 300e 	ldrsh.w	r3, [r7, #14]
 81019ae:	4611      	mov	r1, r2
 81019b0:	4618      	mov	r0, r3
 81019b2:	f7ff ff5f 	bl	8101874 <__NVIC_SetPriority>
}
 81019b6:	bf00      	nop
 81019b8:	3718      	adds	r7, #24
 81019ba:	46bd      	mov	sp, r7
 81019bc:	bd80      	pop	{r7, pc}

081019be <HAL_NVIC_EnableIRQ>:
  *         This parameter can be an enumerator of IRQn_Type enumeration
  *         (For the complete STM32 Devices IRQ Channels list, please refer to the appropriate CMSIS device file (stm32h7xxxx.h))
  * @retval None
  */
void HAL_NVIC_EnableIRQ(IRQn_Type IRQn)
{
 81019be:	b580      	push	{r7, lr}
 81019c0:	b082      	sub	sp, #8
 81019c2:	af00      	add	r7, sp, #0
 81019c4:	4603      	mov	r3, r0
 81019c6:	80fb      	strh	r3, [r7, #6]
  /* Check the parameters */
  assert_param(IS_NVIC_DEVICE_IRQ(IRQn));

  /* Enable interrupt */
  NVIC_EnableIRQ(IRQn);
 81019c8:	f9b7 3006 	ldrsh.w	r3, [r7, #6]
 81019cc:	4618      	mov	r0, r3
 81019ce:	f7ff ff33 	bl	8101838 <__NVIC_EnableIRQ>
}
 81019d2:	bf00      	nop
 81019d4:	3708      	adds	r7, #8
 81019d6:	46bd      	mov	sp, r7
 81019d8:	bd80      	pop	{r7, pc}

081019da <HAL_SYSTICK_Config>:
  * @param  TicksNumb Specifies the ticks Number of ticks between two interrupts.
  * @retval status   - 0  Function succeeded.
  *                  - 1  Function failed.
  */
uint32_t HAL_SYSTICK_Config(uint32_t TicksNumb)
{
 81019da:	b580      	push	{r7, lr}
 81019dc:	b082      	sub	sp, #8
 81019de:	af00      	add	r7, sp, #0
 81019e0:	6078      	str	r0, [r7, #4]
   return SysTick_Config(TicksNumb);
 81019e2:	6878      	ldr	r0, [r7, #4]
 81019e4:	f7ff ffa4 	bl	8101930 <SysTick_Config>
 81019e8:	4603      	mov	r3, r0
}
 81019ea:	4618      	mov	r0, r3
 81019ec:	3708      	adds	r7, #8
 81019ee:	46bd      	mov	sp, r7
 81019f0:	bd80      	pop	{r7, pc}
	...

081019f4 <HAL_GetCurrentCPUID>:
/**
  * @brief  Returns the current CPU ID.
  * @retval CPU identifier
  */
uint32_t HAL_GetCurrentCPUID(void)
{
 81019f4:	b480      	push	{r7}
 81019f6:	af00      	add	r7, sp, #0
  if (((SCB->CPUID & 0x000000F0U) >> 4 )== 0x7U)
 81019f8:	4b07      	ldr	r3, [pc, #28]	; (8101a18 <HAL_GetCurrentCPUID+0x24>)
 81019fa:	681b      	ldr	r3, [r3, #0]
 81019fc:	091b      	lsrs	r3, r3, #4
 81019fe:	f003 030f 	and.w	r3, r3, #15
 8101a02:	2b07      	cmp	r3, #7
 8101a04:	d101      	bne.n	8101a0a <HAL_GetCurrentCPUID+0x16>
  {
    return  CM7_CPUID;
 8101a06:	2303      	movs	r3, #3
 8101a08:	e000      	b.n	8101a0c <HAL_GetCurrentCPUID+0x18>
  }
  else
  {
    return CM4_CPUID;
 8101a0a:	2301      	movs	r3, #1
  }
}
 8101a0c:	4618      	mov	r0, r3
 8101a0e:	46bd      	mov	sp, r7
 8101a10:	f85d 7b04 	ldr.w	r7, [sp], #4
 8101a14:	4770      	bx	lr
 8101a16:	bf00      	nop
 8101a18:	e000ed00 	.word	0xe000ed00

08101a1c <HAL_DMA_Init>:
  * @param  hdma: Pointer to a DMA_HandleTypeDef structure that contains
  *               the configuration information for the specified DMA Stream.
  * @retval HAL status
  */
HAL_StatusTypeDef HAL_DMA_Init(DMA_HandleTypeDef *hdma)
{
 8101a1c:	b580      	push	{r7, lr}
 8101a1e:	b086      	sub	sp, #24
 8101a20:	af00      	add	r7, sp, #0
 8101a22:	6078      	str	r0, [r7, #4]
  uint32_t registerValue;
  uint32_t tickstart = HAL_GetTick();
 8101a24:	f7ff fea6 	bl	8101774 <HAL_GetTick>
 8101a28:	6138      	str	r0, [r7, #16]
  DMA_Base_Registers *regs_dma;
  BDMA_Base_Registers *regs_bdma;

  /* Check the DMA peripheral handle */
  if(hdma == NULL)
 8101a2a:	687b      	ldr	r3, [r7, #4]
 8101a2c:	2b00      	cmp	r3, #0
 8101a2e:	d101      	bne.n	8101a34 <HAL_DMA_Init+0x18>
  {
    return HAL_ERROR;
 8101a30:	2301      	movs	r3, #1
 8101a32:	e314      	b.n	810205e <HAL_DMA_Init+0x642>
  assert_param(IS_DMA_PERIPHERAL_DATA_SIZE(hdma->Init.PeriphDataAlignment));
  assert_param(IS_DMA_MEMORY_DATA_SIZE(hdma->Init.MemDataAlignment));
  assert_param(IS_DMA_MODE(hdma->Init.Mode));
  assert_param(IS_DMA_PRIORITY(hdma->Init.Priority));

  if(IS_DMA_STREAM_INSTANCE(hdma->Instance) != 0U) /* DMA1 or DMA2 instance */
 8101a34:	687b      	ldr	r3, [r7, #4]
 8101a36:	681b      	ldr	r3, [r3, #0]
 8101a38:	4a66      	ldr	r2, [pc, #408]	; (8101bd4 <HAL_DMA_Init+0x1b8>)
 8101a3a:	4293      	cmp	r3, r2
 8101a3c:	d04a      	beq.n	8101ad4 <HAL_DMA_Init+0xb8>
 8101a3e:	687b      	ldr	r3, [r7, #4]
 8101a40:	681b      	ldr	r3, [r3, #0]
 8101a42:	4a65      	ldr	r2, [pc, #404]	; (8101bd8 <HAL_DMA_Init+0x1bc>)
 8101a44:	4293      	cmp	r3, r2
 8101a46:	d045      	beq.n	8101ad4 <HAL_DMA_Init+0xb8>
 8101a48:	687b      	ldr	r3, [r7, #4]
 8101a4a:	681b      	ldr	r3, [r3, #0]
 8101a4c:	4a63      	ldr	r2, [pc, #396]	; (8101bdc <HAL_DMA_Init+0x1c0>)
 8101a4e:	4293      	cmp	r3, r2
 8101a50:	d040      	beq.n	8101ad4 <HAL_DMA_Init+0xb8>
 8101a52:	687b      	ldr	r3, [r7, #4]
 8101a54:	681b      	ldr	r3, [r3, #0]
 8101a56:	4a62      	ldr	r2, [pc, #392]	; (8101be0 <HAL_DMA_Init+0x1c4>)
 8101a58:	4293      	cmp	r3, r2
 8101a5a:	d03b      	beq.n	8101ad4 <HAL_DMA_Init+0xb8>
 8101a5c:	687b      	ldr	r3, [r7, #4]
 8101a5e:	681b      	ldr	r3, [r3, #0]
 8101a60:	4a60      	ldr	r2, [pc, #384]	; (8101be4 <HAL_DMA_Init+0x1c8>)
 8101a62:	4293      	cmp	r3, r2
 8101a64:	d036      	beq.n	8101ad4 <HAL_DMA_Init+0xb8>
 8101a66:	687b      	ldr	r3, [r7, #4]
 8101a68:	681b      	ldr	r3, [r3, #0]
 8101a6a:	4a5f      	ldr	r2, [pc, #380]	; (8101be8 <HAL_DMA_Init+0x1cc>)
 8101a6c:	4293      	cmp	r3, r2
 8101a6e:	d031      	beq.n	8101ad4 <HAL_DMA_Init+0xb8>
 8101a70:	687b      	ldr	r3, [r7, #4]
 8101a72:	681b      	ldr	r3, [r3, #0]
 8101a74:	4a5d      	ldr	r2, [pc, #372]	; (8101bec <HAL_DMA_Init+0x1d0>)
 8101a76:	4293      	cmp	r3, r2
 8101a78:	d02c      	beq.n	8101ad4 <HAL_DMA_Init+0xb8>
 8101a7a:	687b      	ldr	r3, [r7, #4]
 8101a7c:	681b      	ldr	r3, [r3, #0]
 8101a7e:	4a5c      	ldr	r2, [pc, #368]	; (8101bf0 <HAL_DMA_Init+0x1d4>)
 8101a80:	4293      	cmp	r3, r2
 8101a82:	d027      	beq.n	8101ad4 <HAL_DMA_Init+0xb8>
 8101a84:	687b      	ldr	r3, [r7, #4]
 8101a86:	681b      	ldr	r3, [r3, #0]
 8101a88:	4a5a      	ldr	r2, [pc, #360]	; (8101bf4 <HAL_DMA_Init+0x1d8>)
 8101a8a:	4293      	cmp	r3, r2
 8101a8c:	d022      	beq.n	8101ad4 <HAL_DMA_Init+0xb8>
 8101a8e:	687b      	ldr	r3, [r7, #4]
 8101a90:	681b      	ldr	r3, [r3, #0]
 8101a92:	4a59      	ldr	r2, [pc, #356]	; (8101bf8 <HAL_DMA_Init+0x1dc>)
 8101a94:	4293      	cmp	r3, r2
 8101a96:	d01d      	beq.n	8101ad4 <HAL_DMA_Init+0xb8>
 8101a98:	687b      	ldr	r3, [r7, #4]
 8101a9a:	681b      	ldr	r3, [r3, #0]
 8101a9c:	4a57      	ldr	r2, [pc, #348]	; (8101bfc <HAL_DMA_Init+0x1e0>)
 8101a9e:	4293      	cmp	r3, r2
 8101aa0:	d018      	beq.n	8101ad4 <HAL_DMA_Init+0xb8>
 8101aa2:	687b      	ldr	r3, [r7, #4]
 8101aa4:	681b      	ldr	r3, [r3, #0]
 8101aa6:	4a56      	ldr	r2, [pc, #344]	; (8101c00 <HAL_DMA_Init+0x1e4>)
 8101aa8:	4293      	cmp	r3, r2
 8101aaa:	d013      	beq.n	8101ad4 <HAL_DMA_Init+0xb8>
 8101aac:	687b      	ldr	r3, [r7, #4]
 8101aae:	681b      	ldr	r3, [r3, #0]
 8101ab0:	4a54      	ldr	r2, [pc, #336]	; (8101c04 <HAL_DMA_Init+0x1e8>)
 8101ab2:	4293      	cmp	r3, r2
 8101ab4:	d00e      	beq.n	8101ad4 <HAL_DMA_Init+0xb8>
 8101ab6:	687b      	ldr	r3, [r7, #4]
 8101ab8:	681b      	ldr	r3, [r3, #0]
 8101aba:	4a53      	ldr	r2, [pc, #332]	; (8101c08 <HAL_DMA_Init+0x1ec>)
 8101abc:	4293      	cmp	r3, r2
 8101abe:	d009      	beq.n	8101ad4 <HAL_DMA_Init+0xb8>
 8101ac0:	687b      	ldr	r3, [r7, #4]
 8101ac2:	681b      	ldr	r3, [r3, #0]
 8101ac4:	4a51      	ldr	r2, [pc, #324]	; (8101c0c <HAL_DMA_Init+0x1f0>)
 8101ac6:	4293      	cmp	r3, r2
 8101ac8:	d004      	beq.n	8101ad4 <HAL_DMA_Init+0xb8>
 8101aca:	687b      	ldr	r3, [r7, #4]
 8101acc:	681b      	ldr	r3, [r3, #0]
 8101ace:	4a50      	ldr	r2, [pc, #320]	; (8101c10 <HAL_DMA_Init+0x1f4>)
 8101ad0:	4293      	cmp	r3, r2
 8101ad2:	d101      	bne.n	8101ad8 <HAL_DMA_Init+0xbc>
 8101ad4:	2301      	movs	r3, #1
 8101ad6:	e000      	b.n	8101ada <HAL_DMA_Init+0xbe>
 8101ad8:	2300      	movs	r3, #0
 8101ada:	2b00      	cmp	r3, #0
 8101adc:	f000 813b 	beq.w	8101d56 <HAL_DMA_Init+0x33a>
      assert_param(IS_DMA_MEMORY_BURST(hdma->Init.MemBurst));
      assert_param(IS_DMA_PERIPHERAL_BURST(hdma->Init.PeriphBurst));
    }

    /* Change DMA peripheral state */
    hdma->State = HAL_DMA_STATE_BUSY;
 8101ae0:	687b      	ldr	r3, [r7, #4]
 8101ae2:	2202      	movs	r2, #2
 8101ae4:	f883 2035 	strb.w	r2, [r3, #53]	; 0x35

    /* Allocate lock resource */
    __HAL_UNLOCK(hdma);
 8101ae8:	687b      	ldr	r3, [r7, #4]
 8101aea:	2200      	movs	r2, #0
 8101aec:	f883 2034 	strb.w	r2, [r3, #52]	; 0x34

    /* Disable the peripheral */
    __HAL_DMA_DISABLE(hdma);
 8101af0:	687b      	ldr	r3, [r7, #4]
 8101af2:	681b      	ldr	r3, [r3, #0]
 8101af4:	4a37      	ldr	r2, [pc, #220]	; (8101bd4 <HAL_DMA_Init+0x1b8>)
 8101af6:	4293      	cmp	r3, r2
 8101af8:	d04a      	beq.n	8101b90 <HAL_DMA_Init+0x174>
 8101afa:	687b      	ldr	r3, [r7, #4]
 8101afc:	681b      	ldr	r3, [r3, #0]
 8101afe:	4a36      	ldr	r2, [pc, #216]	; (8101bd8 <HAL_DMA_Init+0x1bc>)
 8101b00:	4293      	cmp	r3, r2
 8101b02:	d045      	beq.n	8101b90 <HAL_DMA_Init+0x174>
 8101b04:	687b      	ldr	r3, [r7, #4]
 8101b06:	681b      	ldr	r3, [r3, #0]
 8101b08:	4a34      	ldr	r2, [pc, #208]	; (8101bdc <HAL_DMA_Init+0x1c0>)
 8101b0a:	4293      	cmp	r3, r2
 8101b0c:	d040      	beq.n	8101b90 <HAL_DMA_Init+0x174>
 8101b0e:	687b      	ldr	r3, [r7, #4]
 8101b10:	681b      	ldr	r3, [r3, #0]
 8101b12:	4a33      	ldr	r2, [pc, #204]	; (8101be0 <HAL_DMA_Init+0x1c4>)
 8101b14:	4293      	cmp	r3, r2
 8101b16:	d03b      	beq.n	8101b90 <HAL_DMA_Init+0x174>
 8101b18:	687b      	ldr	r3, [r7, #4]
 8101b1a:	681b      	ldr	r3, [r3, #0]
 8101b1c:	4a31      	ldr	r2, [pc, #196]	; (8101be4 <HAL_DMA_Init+0x1c8>)
 8101b1e:	4293      	cmp	r3, r2
 8101b20:	d036      	beq.n	8101b90 <HAL_DMA_Init+0x174>
 8101b22:	687b      	ldr	r3, [r7, #4]
 8101b24:	681b      	ldr	r3, [r3, #0]
 8101b26:	4a30      	ldr	r2, [pc, #192]	; (8101be8 <HAL_DMA_Init+0x1cc>)
 8101b28:	4293      	cmp	r3, r2
 8101b2a:	d031      	beq.n	8101b90 <HAL_DMA_Init+0x174>
 8101b2c:	687b      	ldr	r3, [r7, #4]
 8101b2e:	681b      	ldr	r3, [r3, #0]
 8101b30:	4a2e      	ldr	r2, [pc, #184]	; (8101bec <HAL_DMA_Init+0x1d0>)
 8101b32:	4293      	cmp	r3, r2
 8101b34:	d02c      	beq.n	8101b90 <HAL_DMA_Init+0x174>
 8101b36:	687b      	ldr	r3, [r7, #4]
 8101b38:	681b      	ldr	r3, [r3, #0]
 8101b3a:	4a2d      	ldr	r2, [pc, #180]	; (8101bf0 <HAL_DMA_Init+0x1d4>)
 8101b3c:	4293      	cmp	r3, r2
 8101b3e:	d027      	beq.n	8101b90 <HAL_DMA_Init+0x174>
 8101b40:	687b      	ldr	r3, [r7, #4]
 8101b42:	681b      	ldr	r3, [r3, #0]
 8101b44:	4a2b      	ldr	r2, [pc, #172]	; (8101bf4 <HAL_DMA_Init+0x1d8>)
 8101b46:	4293      	cmp	r3, r2
 8101b48:	d022      	beq.n	8101b90 <HAL_DMA_Init+0x174>
 8101b4a:	687b      	ldr	r3, [r7, #4]
 8101b4c:	681b      	ldr	r3, [r3, #0]
 8101b4e:	4a2a      	ldr	r2, [pc, #168]	; (8101bf8 <HAL_DMA_Init+0x1dc>)
 8101b50:	4293      	cmp	r3, r2
 8101b52:	d01d      	beq.n	8101b90 <HAL_DMA_Init+0x174>
 8101b54:	687b      	ldr	r3, [r7, #4]
 8101b56:	681b      	ldr	r3, [r3, #0]
 8101b58:	4a28      	ldr	r2, [pc, #160]	; (8101bfc <HAL_DMA_Init+0x1e0>)
 8101b5a:	4293      	cmp	r3, r2
 8101b5c:	d018      	beq.n	8101b90 <HAL_DMA_Init+0x174>
 8101b5e:	687b      	ldr	r3, [r7, #4]
 8101b60:	681b      	ldr	r3, [r3, #0]
 8101b62:	4a27      	ldr	r2, [pc, #156]	; (8101c00 <HAL_DMA_Init+0x1e4>)
 8101b64:	4293      	cmp	r3, r2
 8101b66:	d013      	beq.n	8101b90 <HAL_DMA_Init+0x174>
 8101b68:	687b      	ldr	r3, [r7, #4]
 8101b6a:	681b      	ldr	r3, [r3, #0]
 8101b6c:	4a25      	ldr	r2, [pc, #148]	; (8101c04 <HAL_DMA_Init+0x1e8>)
 8101b6e:	4293      	cmp	r3, r2
 8101b70:	d00e      	beq.n	8101b90 <HAL_DMA_Init+0x174>
 8101b72:	687b      	ldr	r3, [r7, #4]
 8101b74:	681b      	ldr	r3, [r3, #0]
 8101b76:	4a24      	ldr	r2, [pc, #144]	; (8101c08 <HAL_DMA_Init+0x1ec>)
 8101b78:	4293      	cmp	r3, r2
 8101b7a:	d009      	beq.n	8101b90 <HAL_DMA_Init+0x174>
 8101b7c:	687b      	ldr	r3, [r7, #4]
 8101b7e:	681b      	ldr	r3, [r3, #0]
 8101b80:	4a22      	ldr	r2, [pc, #136]	; (8101c0c <HAL_DMA_Init+0x1f0>)
 8101b82:	4293      	cmp	r3, r2
 8101b84:	d004      	beq.n	8101b90 <HAL_DMA_Init+0x174>
 8101b86:	687b      	ldr	r3, [r7, #4]
 8101b88:	681b      	ldr	r3, [r3, #0]
 8101b8a:	4a21      	ldr	r2, [pc, #132]	; (8101c10 <HAL_DMA_Init+0x1f4>)
 8101b8c:	4293      	cmp	r3, r2
 8101b8e:	d108      	bne.n	8101ba2 <HAL_DMA_Init+0x186>
 8101b90:	687b      	ldr	r3, [r7, #4]
 8101b92:	681b      	ldr	r3, [r3, #0]
 8101b94:	681a      	ldr	r2, [r3, #0]
 8101b96:	687b      	ldr	r3, [r7, #4]
 8101b98:	681b      	ldr	r3, [r3, #0]
 8101b9a:	f022 0201 	bic.w	r2, r2, #1
 8101b9e:	601a      	str	r2, [r3, #0]
 8101ba0:	e007      	b.n	8101bb2 <HAL_DMA_Init+0x196>
 8101ba2:	687b      	ldr	r3, [r7, #4]
 8101ba4:	681b      	ldr	r3, [r3, #0]
 8101ba6:	681a      	ldr	r2, [r3, #0]
 8101ba8:	687b      	ldr	r3, [r7, #4]
 8101baa:	681b      	ldr	r3, [r3, #0]
 8101bac:	f022 0201 	bic.w	r2, r2, #1
 8101bb0:	601a      	str	r2, [r3, #0]

    /* Check if the DMA Stream is effectively disabled */
    while((((DMA_Stream_TypeDef   *)hdma->Instance)->CR & DMA_SxCR_EN) != 0U)
 8101bb2:	e02f      	b.n	8101c14 <HAL_DMA_Init+0x1f8>
    {
      /* Check for the Timeout */
      if((HAL_GetTick() - tickstart ) > HAL_TIMEOUT_DMA_ABORT)
 8101bb4:	f7ff fdde 	bl	8101774 <HAL_GetTick>
 8101bb8:	4602      	mov	r2, r0
 8101bba:	693b      	ldr	r3, [r7, #16]
 8101bbc:	1ad3      	subs	r3, r2, r3
 8101bbe:	2b05      	cmp	r3, #5
 8101bc0:	d928      	bls.n	8101c14 <HAL_DMA_Init+0x1f8>
      {
        /* Update error code */
        hdma->ErrorCode = HAL_DMA_ERROR_TIMEOUT;
 8101bc2:	687b      	ldr	r3, [r7, #4]
 8101bc4:	2220      	movs	r2, #32
 8101bc6:	655a      	str	r2, [r3, #84]	; 0x54

        /* Change the DMA state */
        hdma->State = HAL_DMA_STATE_ERROR;
 8101bc8:	687b      	ldr	r3, [r7, #4]
 8101bca:	2203      	movs	r2, #3
 8101bcc:	f883 2035 	strb.w	r2, [r3, #53]	; 0x35

        return HAL_ERROR;
 8101bd0:	2301      	movs	r3, #1
 8101bd2:	e244      	b.n	810205e <HAL_DMA_Init+0x642>
 8101bd4:	40020010 	.word	0x40020010
 8101bd8:	40020028 	.word	0x40020028
 8101bdc:	40020040 	.word	0x40020040
 8101be0:	40020058 	.word	0x40020058
 8101be4:	40020070 	.word	0x40020070
 8101be8:	40020088 	.word	0x40020088
 8101bec:	400200a0 	.word	0x400200a0
 8101bf0:	400200b8 	.word	0x400200b8
 8101bf4:	40020410 	.word	0x40020410
 8101bf8:	40020428 	.word	0x40020428
 8101bfc:	40020440 	.word	0x40020440
 8101c00:	40020458 	.word	0x40020458
 8101c04:	40020470 	.word	0x40020470
 8101c08:	40020488 	.word	0x40020488
 8101c0c:	400204a0 	.word	0x400204a0
 8101c10:	400204b8 	.word	0x400204b8
    while((((DMA_Stream_TypeDef   *)hdma->Instance)->CR & DMA_SxCR_EN) != 0U)
 8101c14:	687b      	ldr	r3, [r7, #4]
 8101c16:	681b      	ldr	r3, [r3, #0]
 8101c18:	681b      	ldr	r3, [r3, #0]
 8101c1a:	f003 0301 	and.w	r3, r3, #1
 8101c1e:	2b00      	cmp	r3, #0
 8101c20:	d1c8      	bne.n	8101bb4 <HAL_DMA_Init+0x198>
      }
    }

    /* Get the CR register value */
    registerValue = ((DMA_Stream_TypeDef   *)hdma->Instance)->CR;
 8101c22:	687b      	ldr	r3, [r7, #4]
 8101c24:	681b      	ldr	r3, [r3, #0]
 8101c26:	681b      	ldr	r3, [r3, #0]
 8101c28:	617b      	str	r3, [r7, #20]

    /* Clear CHSEL, MBURST, PBURST, PL, MSIZE, PSIZE, MINC, PINC, CIRC, DIR, CT and DBM bits */
    registerValue &= ((uint32_t)~(DMA_SxCR_MBURST | DMA_SxCR_PBURST | \
 8101c2a:	697a      	ldr	r2, [r7, #20]
 8101c2c:	4b84      	ldr	r3, [pc, #528]	; (8101e40 <HAL_DMA_Init+0x424>)
 8101c2e:	4013      	ands	r3, r2
 8101c30:	617b      	str	r3, [r7, #20]
                        DMA_SxCR_PL    | DMA_SxCR_MSIZE  | DMA_SxCR_PSIZE  | \
                        DMA_SxCR_MINC  | DMA_SxCR_PINC   | DMA_SxCR_CIRC   | \
                        DMA_SxCR_DIR   | DMA_SxCR_CT     | DMA_SxCR_DBM));

    /* Prepare the DMA Stream configuration */
    registerValue |=  hdma->Init.Direction           |
 8101c32:	687b      	ldr	r3, [r7, #4]
 8101c34:	689a      	ldr	r2, [r3, #8]
            hdma->Init.PeriphInc           | hdma->Init.MemInc           |
 8101c36:	687b      	ldr	r3, [r7, #4]
 8101c38:	68db      	ldr	r3, [r3, #12]
    registerValue |=  hdma->Init.Direction           |
 8101c3a:	431a      	orrs	r2, r3
            hdma->Init.PeriphInc           | hdma->Init.MemInc           |
 8101c3c:	687b      	ldr	r3, [r7, #4]
 8101c3e:	691b      	ldr	r3, [r3, #16]
 8101c40:	431a      	orrs	r2, r3
            hdma->Init.PeriphDataAlignment | hdma->Init.MemDataAlignment |
 8101c42:	687b      	ldr	r3, [r7, #4]
 8101c44:	695b      	ldr	r3, [r3, #20]
            hdma->Init.PeriphInc           | hdma->Init.MemInc           |
 8101c46:	431a      	orrs	r2, r3
            hdma->Init.PeriphDataAlignment | hdma->Init.MemDataAlignment |
 8101c48:	687b      	ldr	r3, [r7, #4]
 8101c4a:	699b      	ldr	r3, [r3, #24]
 8101c4c:	431a      	orrs	r2, r3
            hdma->Init.Mode                | hdma->Init.Priority;
 8101c4e:	687b      	ldr	r3, [r7, #4]
 8101c50:	69db      	ldr	r3, [r3, #28]
            hdma->Init.PeriphDataAlignment | hdma->Init.MemDataAlignment |
 8101c52:	431a      	orrs	r2, r3
            hdma->Init.Mode                | hdma->Init.Priority;
 8101c54:	687b      	ldr	r3, [r7, #4]
 8101c56:	6a1b      	ldr	r3, [r3, #32]
 8101c58:	4313      	orrs	r3, r2
    registerValue |=  hdma->Init.Direction           |
 8101c5a:	697a      	ldr	r2, [r7, #20]
 8101c5c:	4313      	orrs	r3, r2
 8101c5e:	617b      	str	r3, [r7, #20]

    /* the Memory burst and peripheral burst are not used when the FIFO is disabled */
    if(hdma->Init.FIFOMode == DMA_FIFOMODE_ENABLE)
 8101c60:	687b      	ldr	r3, [r7, #4]
 8101c62:	6a5b      	ldr	r3, [r3, #36]	; 0x24
 8101c64:	2b04      	cmp	r3, #4
 8101c66:	d107      	bne.n	8101c78 <HAL_DMA_Init+0x25c>
    {
      /* Get memory burst and peripheral burst */
      registerValue |=  hdma->Init.MemBurst | hdma->Init.PeriphBurst;
 8101c68:	687b      	ldr	r3, [r7, #4]
 8101c6a:	6ada      	ldr	r2, [r3, #44]	; 0x2c
 8101c6c:	687b      	ldr	r3, [r7, #4]
 8101c6e:	6b1b      	ldr	r3, [r3, #48]	; 0x30
 8101c70:	4313      	orrs	r3, r2
 8101c72:	697a      	ldr	r2, [r7, #20]
 8101c74:	4313      	orrs	r3, r2
 8101c76:	617b      	str	r3, [r7, #20]
    }

    /* Work around for Errata 2.22: UART/USART- DMA transfer lock: DMA stream could be
                                    lock when transferring data to/from USART/UART */
#if (STM32H7_DEV_ID == 0x450UL)
    if((DBGMCU->IDCODE & 0xFFFF0000U) >= 0x20000000U)
 8101c78:	4b72      	ldr	r3, [pc, #456]	; (8101e44 <HAL_DMA_Init+0x428>)
 8101c7a:	681b      	ldr	r3, [r3, #0]
 8101c7c:	0c1b      	lsrs	r3, r3, #16
 8101c7e:	041b      	lsls	r3, r3, #16
 8101c80:	f1b3 5f00 	cmp.w	r3, #536870912	; 0x20000000
 8101c84:	d328      	bcc.n	8101cd8 <HAL_DMA_Init+0x2bc>
    {
#endif /* STM32H7_DEV_ID == 0x450UL */
      if(IS_DMA_UART_USART_REQUEST(hdma->Init.Request) != 0U)
 8101c86:	687b      	ldr	r3, [r7, #4]
 8101c88:	685b      	ldr	r3, [r3, #4]
 8101c8a:	2b28      	cmp	r3, #40	; 0x28
 8101c8c:	d903      	bls.n	8101c96 <HAL_DMA_Init+0x27a>
 8101c8e:	687b      	ldr	r3, [r7, #4]
 8101c90:	685b      	ldr	r3, [r3, #4]
 8101c92:	2b2e      	cmp	r3, #46	; 0x2e
 8101c94:	d917      	bls.n	8101cc6 <HAL_DMA_Init+0x2aa>
 8101c96:	687b      	ldr	r3, [r7, #4]
 8101c98:	685b      	ldr	r3, [r3, #4]
 8101c9a:	2b3e      	cmp	r3, #62	; 0x3e
 8101c9c:	d903      	bls.n	8101ca6 <HAL_DMA_Init+0x28a>
 8101c9e:	687b      	ldr	r3, [r7, #4]
 8101ca0:	685b      	ldr	r3, [r3, #4]
 8101ca2:	2b42      	cmp	r3, #66	; 0x42
 8101ca4:	d90f      	bls.n	8101cc6 <HAL_DMA_Init+0x2aa>
 8101ca6:	687b      	ldr	r3, [r7, #4]
 8101ca8:	685b      	ldr	r3, [r3, #4]
 8101caa:	2b46      	cmp	r3, #70	; 0x46
 8101cac:	d903      	bls.n	8101cb6 <HAL_DMA_Init+0x29a>
 8101cae:	687b      	ldr	r3, [r7, #4]
 8101cb0:	685b      	ldr	r3, [r3, #4]
 8101cb2:	2b48      	cmp	r3, #72	; 0x48
 8101cb4:	d907      	bls.n	8101cc6 <HAL_DMA_Init+0x2aa>
 8101cb6:	687b      	ldr	r3, [r7, #4]
 8101cb8:	685b      	ldr	r3, [r3, #4]
 8101cba:	2b4e      	cmp	r3, #78	; 0x4e
 8101cbc:	d905      	bls.n	8101cca <HAL_DMA_Init+0x2ae>
 8101cbe:	687b      	ldr	r3, [r7, #4]
 8101cc0:	685b      	ldr	r3, [r3, #4]
 8101cc2:	2b52      	cmp	r3, #82	; 0x52
 8101cc4:	d801      	bhi.n	8101cca <HAL_DMA_Init+0x2ae>
 8101cc6:	2301      	movs	r3, #1
 8101cc8:	e000      	b.n	8101ccc <HAL_DMA_Init+0x2b0>
 8101cca:	2300      	movs	r3, #0
 8101ccc:	2b00      	cmp	r3, #0
 8101cce:	d003      	beq.n	8101cd8 <HAL_DMA_Init+0x2bc>
      {
        registerValue |= DMA_SxCR_TRBUFF;
 8101cd0:	697b      	ldr	r3, [r7, #20]
 8101cd2:	f443 1380 	orr.w	r3, r3, #1048576	; 0x100000
 8101cd6:	617b      	str	r3, [r7, #20]
#if (STM32H7_DEV_ID == 0x450UL)
    }
#endif /* STM32H7_DEV_ID == 0x450UL */

    /* Write to DMA Stream CR register */
    ((DMA_Stream_TypeDef   *)hdma->Instance)->CR = registerValue;
 8101cd8:	687b      	ldr	r3, [r7, #4]
 8101cda:	681b      	ldr	r3, [r3, #0]
 8101cdc:	697a      	ldr	r2, [r7, #20]
 8101cde:	601a      	str	r2, [r3, #0]

    /* Get the FCR register value */
    registerValue = ((DMA_Stream_TypeDef   *)hdma->Instance)->FCR;
 8101ce0:	687b      	ldr	r3, [r7, #4]
 8101ce2:	681b      	ldr	r3, [r3, #0]
 8101ce4:	695b      	ldr	r3, [r3, #20]
 8101ce6:	617b      	str	r3, [r7, #20]

    /* Clear Direct mode and FIFO threshold bits */
    registerValue &= (uint32_t)~(DMA_SxFCR_DMDIS | DMA_SxFCR_FTH);
 8101ce8:	697b      	ldr	r3, [r7, #20]
 8101cea:	f023 0307 	bic.w	r3, r3, #7
 8101cee:	617b      	str	r3, [r7, #20]

    /* Prepare the DMA Stream FIFO configuration */
    registerValue |= hdma->Init.FIFOMode;
 8101cf0:	687b      	ldr	r3, [r7, #4]
 8101cf2:	6a5b      	ldr	r3, [r3, #36]	; 0x24
 8101cf4:	697a      	ldr	r2, [r7, #20]
 8101cf6:	4313      	orrs	r3, r2
 8101cf8:	617b      	str	r3, [r7, #20]

    /* the FIFO threshold is not used when the FIFO mode is disabled */
    if(hdma->Init.FIFOMode == DMA_FIFOMODE_ENABLE)
 8101cfa:	687b      	ldr	r3, [r7, #4]
 8101cfc:	6a5b      	ldr	r3, [r3, #36]	; 0x24
 8101cfe:	2b04      	cmp	r3, #4
 8101d00:	d117      	bne.n	8101d32 <HAL_DMA_Init+0x316>
    {
      /* Get the FIFO threshold */
      registerValue |= hdma->Init.FIFOThreshold;
 8101d02:	687b      	ldr	r3, [r7, #4]
 8101d04:	6a9b      	ldr	r3, [r3, #40]	; 0x28
 8101d06:	697a      	ldr	r2, [r7, #20]
 8101d08:	4313      	orrs	r3, r2
 8101d0a:	617b      	str	r3, [r7, #20]

      /* Check compatibility between FIFO threshold level and size of the memory burst */
      /* for INCR4, INCR8, INCR16 */
      if(hdma->Init.MemBurst != DMA_MBURST_SINGLE)
 8101d0c:	687b      	ldr	r3, [r7, #4]
 8101d0e:	6adb      	ldr	r3, [r3, #44]	; 0x2c
 8101d10:	2b00      	cmp	r3, #0
 8101d12:	d00e      	beq.n	8101d32 <HAL_DMA_Init+0x316>
      {
        if (DMA_CheckFifoParam(hdma) != HAL_OK)
 8101d14:	6878      	ldr	r0, [r7, #4]
 8101d16:	f001 fbfd 	bl	8103514 <DMA_CheckFifoParam>
 8101d1a:	4603      	mov	r3, r0
 8101d1c:	2b00      	cmp	r3, #0
 8101d1e:	d008      	beq.n	8101d32 <HAL_DMA_Init+0x316>
        {
          /* Update error code */
          hdma->ErrorCode = HAL_DMA_ERROR_PARAM;
 8101d20:	687b      	ldr	r3, [r7, #4]
 8101d22:	2240      	movs	r2, #64	; 0x40
 8101d24:	655a      	str	r2, [r3, #84]	; 0x54

          /* Change the DMA state */
          hdma->State = HAL_DMA_STATE_READY;
 8101d26:	687b      	ldr	r3, [r7, #4]
 8101d28:	2201      	movs	r2, #1
 8101d2a:	f883 2035 	strb.w	r2, [r3, #53]	; 0x35

          return HAL_ERROR;
 8101d2e:	2301      	movs	r3, #1
 8101d30:	e195      	b.n	810205e <HAL_DMA_Init+0x642>
        }
      }
    }

    /* Write to DMA Stream FCR */
    ((DMA_Stream_TypeDef   *)hdma->Instance)->FCR = registerValue;
 8101d32:	687b      	ldr	r3, [r7, #4]
 8101d34:	681b      	ldr	r3, [r3, #0]
 8101d36:	697a      	ldr	r2, [r7, #20]
 8101d38:	615a      	str	r2, [r3, #20]

    /* Initialize StreamBaseAddress and StreamIndex parameters to be used to calculate
       DMA steam Base Address needed by HAL_DMA_IRQHandler() and HAL_DMA_PollForTransfer() */
    regs_dma = (DMA_Base_Registers *)DMA_CalcBaseAndBitshift(hdma);
 8101d3a:	6878      	ldr	r0, [r7, #4]
 8101d3c:	f001 fb38 	bl	81033b0 <DMA_CalcBaseAndBitshift>
 8101d40:	4603      	mov	r3, r0
 8101d42:	60bb      	str	r3, [r7, #8]

    /* Clear all interrupt flags */
    regs_dma->IFCR = 0x3FUL << (hdma->StreamIndex & 0x1FU);
 8101d44:	687b      	ldr	r3, [r7, #4]
 8101d46:	6ddb      	ldr	r3, [r3, #92]	; 0x5c
 8101d48:	f003 031f 	and.w	r3, r3, #31
 8101d4c:	223f      	movs	r2, #63	; 0x3f
 8101d4e:	409a      	lsls	r2, r3
 8101d50:	68bb      	ldr	r3, [r7, #8]
 8101d52:	609a      	str	r2, [r3, #8]
 8101d54:	e0cb      	b.n	8101eee <HAL_DMA_Init+0x4d2>
  }
  else if(IS_BDMA_CHANNEL_INSTANCE(hdma->Instance) != 0U) /* BDMA instance(s) */
 8101d56:	687b      	ldr	r3, [r7, #4]
 8101d58:	681b      	ldr	r3, [r3, #0]
 8101d5a:	4a3b      	ldr	r2, [pc, #236]	; (8101e48 <HAL_DMA_Init+0x42c>)
 8101d5c:	4293      	cmp	r3, r2
 8101d5e:	d022      	beq.n	8101da6 <HAL_DMA_Init+0x38a>
 8101d60:	687b      	ldr	r3, [r7, #4]
 8101d62:	681b      	ldr	r3, [r3, #0]
 8101d64:	4a39      	ldr	r2, [pc, #228]	; (8101e4c <HAL_DMA_Init+0x430>)
 8101d66:	4293      	cmp	r3, r2
 8101d68:	d01d      	beq.n	8101da6 <HAL_DMA_Init+0x38a>
 8101d6a:	687b      	ldr	r3, [r7, #4]
 8101d6c:	681b      	ldr	r3, [r3, #0]
 8101d6e:	4a38      	ldr	r2, [pc, #224]	; (8101e50 <HAL_DMA_Init+0x434>)
 8101d70:	4293      	cmp	r3, r2
 8101d72:	d018      	beq.n	8101da6 <HAL_DMA_Init+0x38a>
 8101d74:	687b      	ldr	r3, [r7, #4]
 8101d76:	681b      	ldr	r3, [r3, #0]
 8101d78:	4a36      	ldr	r2, [pc, #216]	; (8101e54 <HAL_DMA_Init+0x438>)
 8101d7a:	4293      	cmp	r3, r2
 8101d7c:	d013      	beq.n	8101da6 <HAL_DMA_Init+0x38a>
 8101d7e:	687b      	ldr	r3, [r7, #4]
 8101d80:	681b      	ldr	r3, [r3, #0]
 8101d82:	4a35      	ldr	r2, [pc, #212]	; (8101e58 <HAL_DMA_Init+0x43c>)
 8101d84:	4293      	cmp	r3, r2
 8101d86:	d00e      	beq.n	8101da6 <HAL_DMA_Init+0x38a>
 8101d88:	687b      	ldr	r3, [r7, #4]
 8101d8a:	681b      	ldr	r3, [r3, #0]
 8101d8c:	4a33      	ldr	r2, [pc, #204]	; (8101e5c <HAL_DMA_Init+0x440>)
 8101d8e:	4293      	cmp	r3, r2
 8101d90:	d009      	beq.n	8101da6 <HAL_DMA_Init+0x38a>
 8101d92:	687b      	ldr	r3, [r7, #4]
 8101d94:	681b      	ldr	r3, [r3, #0]
 8101d96:	4a32      	ldr	r2, [pc, #200]	; (8101e60 <HAL_DMA_Init+0x444>)
 8101d98:	4293      	cmp	r3, r2
 8101d9a:	d004      	beq.n	8101da6 <HAL_DMA_Init+0x38a>
 8101d9c:	687b      	ldr	r3, [r7, #4]
 8101d9e:	681b      	ldr	r3, [r3, #0]
 8101da0:	4a30      	ldr	r2, [pc, #192]	; (8101e64 <HAL_DMA_Init+0x448>)
 8101da2:	4293      	cmp	r3, r2
 8101da4:	d101      	bne.n	8101daa <HAL_DMA_Init+0x38e>
 8101da6:	2301      	movs	r3, #1
 8101da8:	e000      	b.n	8101dac <HAL_DMA_Init+0x390>
 8101daa:	2300      	movs	r3, #0
 8101dac:	2b00      	cmp	r3, #0
 8101dae:	f000 8095 	beq.w	8101edc <HAL_DMA_Init+0x4c0>
  {
    if(IS_BDMA_CHANNEL_DMAMUX_INSTANCE(hdma->Instance) != 0U)
 8101db2:	687b      	ldr	r3, [r7, #4]
 8101db4:	681b      	ldr	r3, [r3, #0]
 8101db6:	4a24      	ldr	r2, [pc, #144]	; (8101e48 <HAL_DMA_Init+0x42c>)
 8101db8:	4293      	cmp	r3, r2
 8101dba:	d021      	beq.n	8101e00 <HAL_DMA_Init+0x3e4>
 8101dbc:	687b      	ldr	r3, [r7, #4]
 8101dbe:	681b      	ldr	r3, [r3, #0]
 8101dc0:	4a22      	ldr	r2, [pc, #136]	; (8101e4c <HAL_DMA_Init+0x430>)
 8101dc2:	4293      	cmp	r3, r2
 8101dc4:	d01c      	beq.n	8101e00 <HAL_DMA_Init+0x3e4>
 8101dc6:	687b      	ldr	r3, [r7, #4]
 8101dc8:	681b      	ldr	r3, [r3, #0]
 8101dca:	4a21      	ldr	r2, [pc, #132]	; (8101e50 <HAL_DMA_Init+0x434>)
 8101dcc:	4293      	cmp	r3, r2
 8101dce:	d017      	beq.n	8101e00 <HAL_DMA_Init+0x3e4>
 8101dd0:	687b      	ldr	r3, [r7, #4]
 8101dd2:	681b      	ldr	r3, [r3, #0]
 8101dd4:	4a1f      	ldr	r2, [pc, #124]	; (8101e54 <HAL_DMA_Init+0x438>)
 8101dd6:	4293      	cmp	r3, r2
 8101dd8:	d012      	beq.n	8101e00 <HAL_DMA_Init+0x3e4>
 8101dda:	687b      	ldr	r3, [r7, #4]
 8101ddc:	681b      	ldr	r3, [r3, #0]
 8101dde:	4a1e      	ldr	r2, [pc, #120]	; (8101e58 <HAL_DMA_Init+0x43c>)
 8101de0:	4293      	cmp	r3, r2
 8101de2:	d00d      	beq.n	8101e00 <HAL_DMA_Init+0x3e4>
 8101de4:	687b      	ldr	r3, [r7, #4]
 8101de6:	681b      	ldr	r3, [r3, #0]
 8101de8:	4a1c      	ldr	r2, [pc, #112]	; (8101e5c <HAL_DMA_Init+0x440>)
 8101dea:	4293      	cmp	r3, r2
 8101dec:	d008      	beq.n	8101e00 <HAL_DMA_Init+0x3e4>
 8101dee:	687b      	ldr	r3, [r7, #4]
 8101df0:	681b      	ldr	r3, [r3, #0]
 8101df2:	4a1b      	ldr	r2, [pc, #108]	; (8101e60 <HAL_DMA_Init+0x444>)
 8101df4:	4293      	cmp	r3, r2
 8101df6:	d003      	beq.n	8101e00 <HAL_DMA_Init+0x3e4>
 8101df8:	687b      	ldr	r3, [r7, #4]
 8101dfa:	681b      	ldr	r3, [r3, #0]
 8101dfc:	4a19      	ldr	r2, [pc, #100]	; (8101e64 <HAL_DMA_Init+0x448>)
 8101dfe:	4293      	cmp	r3, r2
 8101e00:	bf00      	nop
      /* Check the request parameter */
      assert_param(IS_BDMA_REQUEST(hdma->Init.Request));
    }

    /* Change DMA peripheral state */
    hdma->State = HAL_DMA_STATE_BUSY;
 8101e02:	687b      	ldr	r3, [r7, #4]
 8101e04:	2202      	movs	r2, #2
 8101e06:	f883 2035 	strb.w	r2, [r3, #53]	; 0x35

    /* Allocate lock resource */
    __HAL_UNLOCK(hdma);
 8101e0a:	687b      	ldr	r3, [r7, #4]
 8101e0c:	2200      	movs	r2, #0
 8101e0e:	f883 2034 	strb.w	r2, [r3, #52]	; 0x34

    /* Get the CR register value */
    registerValue = ((BDMA_Channel_TypeDef *)hdma->Instance)->CCR;
 8101e12:	687b      	ldr	r3, [r7, #4]
 8101e14:	681b      	ldr	r3, [r3, #0]
 8101e16:	681b      	ldr	r3, [r3, #0]
 8101e18:	617b      	str	r3, [r7, #20]

    /* Clear PL, MSIZE, PSIZE, MINC, PINC, CIRC, DIR, MEM2MEM, DBM and CT bits */
    registerValue &= ((uint32_t)~(BDMA_CCR_PL    | BDMA_CCR_MSIZE   | BDMA_CCR_PSIZE  | \
 8101e1a:	697b      	ldr	r3, [r7, #20]
 8101e1c:	f423 33ff 	bic.w	r3, r3, #130560	; 0x1fe00
 8101e20:	f423 73f8 	bic.w	r3, r3, #496	; 0x1f0
 8101e24:	617b      	str	r3, [r7, #20]
                                  BDMA_CCR_MINC  | BDMA_CCR_PINC    | BDMA_CCR_CIRC   | \
                                  BDMA_CCR_DIR   | BDMA_CCR_MEM2MEM | BDMA_CCR_DBM    | \
                                  BDMA_CCR_CT));

    /* Prepare the DMA Channel configuration */
    registerValue |=  DMA_TO_BDMA_DIRECTION(hdma->Init.Direction)            |
 8101e26:	687b      	ldr	r3, [r7, #4]
 8101e28:	689b      	ldr	r3, [r3, #8]
 8101e2a:	2b40      	cmp	r3, #64	; 0x40
 8101e2c:	d01c      	beq.n	8101e68 <HAL_DMA_Init+0x44c>
 8101e2e:	687b      	ldr	r3, [r7, #4]
 8101e30:	689b      	ldr	r3, [r3, #8]
 8101e32:	2b80      	cmp	r3, #128	; 0x80
 8101e34:	d102      	bne.n	8101e3c <HAL_DMA_Init+0x420>
 8101e36:	f44f 4380 	mov.w	r3, #16384	; 0x4000
 8101e3a:	e016      	b.n	8101e6a <HAL_DMA_Init+0x44e>
 8101e3c:	2300      	movs	r3, #0
 8101e3e:	e014      	b.n	8101e6a <HAL_DMA_Init+0x44e>
 8101e40:	fe10803f 	.word	0xfe10803f
 8101e44:	5c001000 	.word	0x5c001000
 8101e48:	58025408 	.word	0x58025408
 8101e4c:	5802541c 	.word	0x5802541c
 8101e50:	58025430 	.word	0x58025430
 8101e54:	58025444 	.word	0x58025444
 8101e58:	58025458 	.word	0x58025458
 8101e5c:	5802546c 	.word	0x5802546c
 8101e60:	58025480 	.word	0x58025480
 8101e64:	58025494 	.word	0x58025494
 8101e68:	2310      	movs	r3, #16
                      DMA_TO_BDMA_PERIPHERAL_INC(hdma->Init.PeriphInc)       |
 8101e6a:	687a      	ldr	r2, [r7, #4]
 8101e6c:	68d2      	ldr	r2, [r2, #12]
 8101e6e:	08d2      	lsrs	r2, r2, #3
    registerValue |=  DMA_TO_BDMA_DIRECTION(hdma->Init.Direction)            |
 8101e70:	431a      	orrs	r2, r3
                      DMA_TO_BDMA_MEMORY_INC(hdma->Init.MemInc)              |
 8101e72:	687b      	ldr	r3, [r7, #4]
 8101e74:	691b      	ldr	r3, [r3, #16]
 8101e76:	08db      	lsrs	r3, r3, #3
                      DMA_TO_BDMA_PERIPHERAL_INC(hdma->Init.PeriphInc)       |
 8101e78:	431a      	orrs	r2, r3
                      DMA_TO_BDMA_PDATA_SIZE(hdma->Init.PeriphDataAlignment) |
 8101e7a:	687b      	ldr	r3, [r7, #4]
 8101e7c:	695b      	ldr	r3, [r3, #20]
 8101e7e:	08db      	lsrs	r3, r3, #3
                      DMA_TO_BDMA_MEMORY_INC(hdma->Init.MemInc)              |
 8101e80:	431a      	orrs	r2, r3
                      DMA_TO_BDMA_MDATA_SIZE(hdma->Init.MemDataAlignment)    |
 8101e82:	687b      	ldr	r3, [r7, #4]
 8101e84:	699b      	ldr	r3, [r3, #24]
 8101e86:	08db      	lsrs	r3, r3, #3
                      DMA_TO_BDMA_PDATA_SIZE(hdma->Init.PeriphDataAlignment) |
 8101e88:	431a      	orrs	r2, r3
                      DMA_TO_BDMA_MODE(hdma->Init.Mode)                      |
 8101e8a:	687b      	ldr	r3, [r7, #4]
 8101e8c:	69db      	ldr	r3, [r3, #28]
 8101e8e:	08db      	lsrs	r3, r3, #3
                      DMA_TO_BDMA_MDATA_SIZE(hdma->Init.MemDataAlignment)    |
 8101e90:	431a      	orrs	r2, r3
                      DMA_TO_BDMA_PRIORITY(hdma->Init.Priority);
 8101e92:	687b      	ldr	r3, [r7, #4]
 8101e94:	6a1b      	ldr	r3, [r3, #32]
 8101e96:	091b      	lsrs	r3, r3, #4
                      DMA_TO_BDMA_MODE(hdma->Init.Mode)                      |
 8101e98:	4313      	orrs	r3, r2
    registerValue |=  DMA_TO_BDMA_DIRECTION(hdma->Init.Direction)            |
 8101e9a:	697a      	ldr	r2, [r7, #20]
 8101e9c:	4313      	orrs	r3, r2
 8101e9e:	617b      	str	r3, [r7, #20]

    /* Write to DMA Channel CR register */
    ((BDMA_Channel_TypeDef *)hdma->Instance)->CCR = registerValue;
 8101ea0:	687b      	ldr	r3, [r7, #4]
 8101ea2:	681b      	ldr	r3, [r3, #0]
 8101ea4:	697a      	ldr	r2, [r7, #20]
 8101ea6:	601a      	str	r2, [r3, #0]

    /* calculation of the channel index */
    hdma->StreamIndex = (((uint32_t)((uint32_t*)hdma->Instance) - (uint32_t)BDMA_Channel0) / ((uint32_t)BDMA_Channel1 - (uint32_t)BDMA_Channel0)) << 2U;
 8101ea8:	687b      	ldr	r3, [r7, #4]
 8101eaa:	681b      	ldr	r3, [r3, #0]
 8101eac:	461a      	mov	r2, r3
 8101eae:	4b6e      	ldr	r3, [pc, #440]	; (8102068 <HAL_DMA_Init+0x64c>)
 8101eb0:	4413      	add	r3, r2
 8101eb2:	4a6e      	ldr	r2, [pc, #440]	; (810206c <HAL_DMA_Init+0x650>)
 8101eb4:	fba2 2303 	umull	r2, r3, r2, r3
 8101eb8:	091b      	lsrs	r3, r3, #4
 8101eba:	009a      	lsls	r2, r3, #2
 8101ebc:	687b      	ldr	r3, [r7, #4]
 8101ebe:	65da      	str	r2, [r3, #92]	; 0x5c

    /* Initialize StreamBaseAddress and StreamIndex parameters to be used to calculate
    DMA steam Base Address needed by HAL_DMA_IRQHandler() and HAL_DMA_PollForTransfer() */
    regs_bdma = (BDMA_Base_Registers *)DMA_CalcBaseAndBitshift(hdma);
 8101ec0:	6878      	ldr	r0, [r7, #4]
 8101ec2:	f001 fa75 	bl	81033b0 <DMA_CalcBaseAndBitshift>
 8101ec6:	4603      	mov	r3, r0
 8101ec8:	60fb      	str	r3, [r7, #12]

    /* Clear all interrupt flags */
    regs_bdma->IFCR = ((BDMA_IFCR_CGIF0) << (hdma->StreamIndex & 0x1FU));
 8101eca:	687b      	ldr	r3, [r7, #4]
 8101ecc:	6ddb      	ldr	r3, [r3, #92]	; 0x5c
 8101ece:	f003 031f 	and.w	r3, r3, #31
 8101ed2:	2201      	movs	r2, #1
 8101ed4:	409a      	lsls	r2, r3
 8101ed6:	68fb      	ldr	r3, [r7, #12]
 8101ed8:	605a      	str	r2, [r3, #4]
 8101eda:	e008      	b.n	8101eee <HAL_DMA_Init+0x4d2>
  }
  else
  {
    hdma->ErrorCode = HAL_DMA_ERROR_PARAM;
 8101edc:	687b      	ldr	r3, [r7, #4]
 8101ede:	2240      	movs	r2, #64	; 0x40
 8101ee0:	655a      	str	r2, [r3, #84]	; 0x54
    hdma->State     = HAL_DMA_STATE_ERROR;
 8101ee2:	687b      	ldr	r3, [r7, #4]
 8101ee4:	2203      	movs	r2, #3
 8101ee6:	f883 2035 	strb.w	r2, [r3, #53]	; 0x35

    return HAL_ERROR;
 8101eea:	2301      	movs	r3, #1
 8101eec:	e0b7      	b.n	810205e <HAL_DMA_Init+0x642>
  }

  if(IS_DMA_DMAMUX_ALL_INSTANCE(hdma->Instance) != 0U) /* No DMAMUX available for BDMA1 */
 8101eee:	687b      	ldr	r3, [r7, #4]
 8101ef0:	681b      	ldr	r3, [r3, #0]
 8101ef2:	4a5f      	ldr	r2, [pc, #380]	; (8102070 <HAL_DMA_Init+0x654>)
 8101ef4:	4293      	cmp	r3, r2
 8101ef6:	d072      	beq.n	8101fde <HAL_DMA_Init+0x5c2>
 8101ef8:	687b      	ldr	r3, [r7, #4]
 8101efa:	681b      	ldr	r3, [r3, #0]
 8101efc:	4a5d      	ldr	r2, [pc, #372]	; (8102074 <HAL_DMA_Init+0x658>)
 8101efe:	4293      	cmp	r3, r2
 8101f00:	d06d      	beq.n	8101fde <HAL_DMA_Init+0x5c2>
 8101f02:	687b      	ldr	r3, [r7, #4]
 8101f04:	681b      	ldr	r3, [r3, #0]
 8101f06:	4a5c      	ldr	r2, [pc, #368]	; (8102078 <HAL_DMA_Init+0x65c>)
 8101f08:	4293      	cmp	r3, r2
 8101f0a:	d068      	beq.n	8101fde <HAL_DMA_Init+0x5c2>
 8101f0c:	687b      	ldr	r3, [r7, #4]
 8101f0e:	681b      	ldr	r3, [r3, #0]
 8101f10:	4a5a      	ldr	r2, [pc, #360]	; (810207c <HAL_DMA_Init+0x660>)
 8101f12:	4293      	cmp	r3, r2
 8101f14:	d063      	beq.n	8101fde <HAL_DMA_Init+0x5c2>
 8101f16:	687b      	ldr	r3, [r7, #4]
 8101f18:	681b      	ldr	r3, [r3, #0]
 8101f1a:	4a59      	ldr	r2, [pc, #356]	; (8102080 <HAL_DMA_Init+0x664>)
 8101f1c:	4293      	cmp	r3, r2
 8101f1e:	d05e      	beq.n	8101fde <HAL_DMA_Init+0x5c2>
 8101f20:	687b      	ldr	r3, [r7, #4]
 8101f22:	681b      	ldr	r3, [r3, #0]
 8101f24:	4a57      	ldr	r2, [pc, #348]	; (8102084 <HAL_DMA_Init+0x668>)
 8101f26:	4293      	cmp	r3, r2
 8101f28:	d059      	beq.n	8101fde <HAL_DMA_Init+0x5c2>
 8101f2a:	687b      	ldr	r3, [r7, #4]
 8101f2c:	681b      	ldr	r3, [r3, #0]
 8101f2e:	4a56      	ldr	r2, [pc, #344]	; (8102088 <HAL_DMA_Init+0x66c>)
 8101f30:	4293      	cmp	r3, r2
 8101f32:	d054      	beq.n	8101fde <HAL_DMA_Init+0x5c2>
 8101f34:	687b      	ldr	r3, [r7, #4]
 8101f36:	681b      	ldr	r3, [r3, #0]
 8101f38:	4a54      	ldr	r2, [pc, #336]	; (810208c <HAL_DMA_Init+0x670>)
 8101f3a:	4293      	cmp	r3, r2
 8101f3c:	d04f      	beq.n	8101fde <HAL_DMA_Init+0x5c2>
 8101f3e:	687b      	ldr	r3, [r7, #4]
 8101f40:	681b      	ldr	r3, [r3, #0]
 8101f42:	4a53      	ldr	r2, [pc, #332]	; (8102090 <HAL_DMA_Init+0x674>)
 8101f44:	4293      	cmp	r3, r2
 8101f46:	d04a      	beq.n	8101fde <HAL_DMA_Init+0x5c2>
 8101f48:	687b      	ldr	r3, [r7, #4]
 8101f4a:	681b      	ldr	r3, [r3, #0]
 8101f4c:	4a51      	ldr	r2, [pc, #324]	; (8102094 <HAL_DMA_Init+0x678>)
 8101f4e:	4293      	cmp	r3, r2
 8101f50:	d045      	beq.n	8101fde <HAL_DMA_Init+0x5c2>
 8101f52:	687b      	ldr	r3, [r7, #4]
 8101f54:	681b      	ldr	r3, [r3, #0]
 8101f56:	4a50      	ldr	r2, [pc, #320]	; (8102098 <HAL_DMA_Init+0x67c>)
 8101f58:	4293      	cmp	r3, r2
 8101f5a:	d040      	beq.n	8101fde <HAL_DMA_Init+0x5c2>
 8101f5c:	687b      	ldr	r3, [r7, #4]
 8101f5e:	681b      	ldr	r3, [r3, #0]
 8101f60:	4a4e      	ldr	r2, [pc, #312]	; (810209c <HAL_DMA_Init+0x680>)
 8101f62:	4293      	cmp	r3, r2
 8101f64:	d03b      	beq.n	8101fde <HAL_DMA_Init+0x5c2>
 8101f66:	687b      	ldr	r3, [r7, #4]
 8101f68:	681b      	ldr	r3, [r3, #0]
 8101f6a:	4a4d      	ldr	r2, [pc, #308]	; (81020a0 <HAL_DMA_Init+0x684>)
 8101f6c:	4293      	cmp	r3, r2
 8101f6e:	d036      	beq.n	8101fde <HAL_DMA_Init+0x5c2>
 8101f70:	687b      	ldr	r3, [r7, #4]
 8101f72:	681b      	ldr	r3, [r3, #0]
 8101f74:	4a4b      	ldr	r2, [pc, #300]	; (81020a4 <HAL_DMA_Init+0x688>)
 8101f76:	4293      	cmp	r3, r2
 8101f78:	d031      	beq.n	8101fde <HAL_DMA_Init+0x5c2>
 8101f7a:	687b      	ldr	r3, [r7, #4]
 8101f7c:	681b      	ldr	r3, [r3, #0]
 8101f7e:	4a4a      	ldr	r2, [pc, #296]	; (81020a8 <HAL_DMA_Init+0x68c>)
 8101f80:	4293      	cmp	r3, r2
 8101f82:	d02c      	beq.n	8101fde <HAL_DMA_Init+0x5c2>
 8101f84:	687b      	ldr	r3, [r7, #4]
 8101f86:	681b      	ldr	r3, [r3, #0]
 8101f88:	4a48      	ldr	r2, [pc, #288]	; (81020ac <HAL_DMA_Init+0x690>)
 8101f8a:	4293      	cmp	r3, r2
 8101f8c:	d027      	beq.n	8101fde <HAL_DMA_Init+0x5c2>
 8101f8e:	687b      	ldr	r3, [r7, #4]
 8101f90:	681b      	ldr	r3, [r3, #0]
 8101f92:	4a47      	ldr	r2, [pc, #284]	; (81020b0 <HAL_DMA_Init+0x694>)
 8101f94:	4293      	cmp	r3, r2
 8101f96:	d022      	beq.n	8101fde <HAL_DMA_Init+0x5c2>
 8101f98:	687b      	ldr	r3, [r7, #4]
 8101f9a:	681b      	ldr	r3, [r3, #0]
 8101f9c:	4a45      	ldr	r2, [pc, #276]	; (81020b4 <HAL_DMA_Init+0x698>)
 8101f9e:	4293      	cmp	r3, r2
 8101fa0:	d01d      	beq.n	8101fde <HAL_DMA_Init+0x5c2>
 8101fa2:	687b      	ldr	r3, [r7, #4]
 8101fa4:	681b      	ldr	r3, [r3, #0]
 8101fa6:	4a44      	ldr	r2, [pc, #272]	; (81020b8 <HAL_DMA_Init+0x69c>)
 8101fa8:	4293      	cmp	r3, r2
 8101faa:	d018      	beq.n	8101fde <HAL_DMA_Init+0x5c2>
 8101fac:	687b      	ldr	r3, [r7, #4]
 8101fae:	681b      	ldr	r3, [r3, #0]
 8101fb0:	4a42      	ldr	r2, [pc, #264]	; (81020bc <HAL_DMA_Init+0x6a0>)
 8101fb2:	4293      	cmp	r3, r2
 8101fb4:	d013      	beq.n	8101fde <HAL_DMA_Init+0x5c2>
 8101fb6:	687b      	ldr	r3, [r7, #4]
 8101fb8:	681b      	ldr	r3, [r3, #0]
 8101fba:	4a41      	ldr	r2, [pc, #260]	; (81020c0 <HAL_DMA_Init+0x6a4>)
 8101fbc:	4293      	cmp	r3, r2
 8101fbe:	d00e      	beq.n	8101fde <HAL_DMA_Init+0x5c2>
 8101fc0:	687b      	ldr	r3, [r7, #4]
 8101fc2:	681b      	ldr	r3, [r3, #0]
 8101fc4:	4a3f      	ldr	r2, [pc, #252]	; (81020c4 <HAL_DMA_Init+0x6a8>)
 8101fc6:	4293      	cmp	r3, r2
 8101fc8:	d009      	beq.n	8101fde <HAL_DMA_Init+0x5c2>
 8101fca:	687b      	ldr	r3, [r7, #4]
 8101fcc:	681b      	ldr	r3, [r3, #0]
 8101fce:	4a3e      	ldr	r2, [pc, #248]	; (81020c8 <HAL_DMA_Init+0x6ac>)
 8101fd0:	4293      	cmp	r3, r2
 8101fd2:	d004      	beq.n	8101fde <HAL_DMA_Init+0x5c2>
 8101fd4:	687b      	ldr	r3, [r7, #4]
 8101fd6:	681b      	ldr	r3, [r3, #0]
 8101fd8:	4a3c      	ldr	r2, [pc, #240]	; (81020cc <HAL_DMA_Init+0x6b0>)
 8101fda:	4293      	cmp	r3, r2
 8101fdc:	d101      	bne.n	8101fe2 <HAL_DMA_Init+0x5c6>
 8101fde:	2301      	movs	r3, #1
 8101fe0:	e000      	b.n	8101fe4 <HAL_DMA_Init+0x5c8>
 8101fe2:	2300      	movs	r3, #0
 8101fe4:	2b00      	cmp	r3, #0
 8101fe6:	d032      	beq.n	810204e <HAL_DMA_Init+0x632>
  {
    /* Initialize parameters for DMAMUX channel :
    DMAmuxChannel, DMAmuxChannelStatus and DMAmuxChannelStatusMask
    */
    DMA_CalcDMAMUXChannelBaseAndMask(hdma);
 8101fe8:	6878      	ldr	r0, [r7, #4]
 8101fea:	f001 fb0f 	bl	810360c <DMA_CalcDMAMUXChannelBaseAndMask>

    if(hdma->Init.Direction == DMA_MEMORY_TO_MEMORY)
 8101fee:	687b      	ldr	r3, [r7, #4]
 8101ff0:	689b      	ldr	r3, [r3, #8]
 8101ff2:	2b80      	cmp	r3, #128	; 0x80
 8101ff4:	d102      	bne.n	8101ffc <HAL_DMA_Init+0x5e0>
    {
      /* if memory to memory force the request to 0*/
      hdma->Init.Request = DMA_REQUEST_MEM2MEM;
 8101ff6:	687b      	ldr	r3, [r7, #4]
 8101ff8:	2200      	movs	r2, #0
 8101ffa:	605a      	str	r2, [r3, #4]
    }

    /* Set peripheral request  to DMAMUX channel */
    hdma->DMAmuxChannel->CCR = (hdma->Init.Request & DMAMUX_CxCR_DMAREQ_ID);
 8101ffc:	687b      	ldr	r3, [r7, #4]
 8101ffe:	685a      	ldr	r2, [r3, #4]
 8102000:	687b      	ldr	r3, [r7, #4]
 8102002:	6e1b      	ldr	r3, [r3, #96]	; 0x60
 8102004:	b2d2      	uxtb	r2, r2
 8102006:	601a      	str	r2, [r3, #0]

    /* Clear the DMAMUX synchro overrun flag */
    hdma->DMAmuxChannelStatus->CFR = hdma->DMAmuxChannelStatusMask;
 8102008:	687b      	ldr	r3, [r7, #4]
 810200a:	6e5b      	ldr	r3, [r3, #100]	; 0x64
 810200c:	687a      	ldr	r2, [r7, #4]
 810200e:	6e92      	ldr	r2, [r2, #104]	; 0x68
 8102010:	605a      	str	r2, [r3, #4]

    /* Initialize parameters for DMAMUX request generator :
    if the DMA request is DMA_REQUEST_GENERATOR0 to DMA_REQUEST_GENERATOR7
    */
    if((hdma->Init.Request >= DMA_REQUEST_GENERATOR0) && (hdma->Init.Request <= DMA_REQUEST_GENERATOR7))
 8102012:	687b      	ldr	r3, [r7, #4]
 8102014:	685b      	ldr	r3, [r3, #4]
 8102016:	2b00      	cmp	r3, #0
 8102018:	d010      	beq.n	810203c <HAL_DMA_Init+0x620>
 810201a:	687b      	ldr	r3, [r7, #4]
 810201c:	685b      	ldr	r3, [r3, #4]
 810201e:	2b08      	cmp	r3, #8
 8102020:	d80c      	bhi.n	810203c <HAL_DMA_Init+0x620>
    {
      /* Initialize parameters for DMAMUX request generator :
      DMAmuxRequestGen, DMAmuxRequestGenStatus and DMAmuxRequestGenStatusMask */
      DMA_CalcDMAMUXRequestGenBaseAndMask(hdma);
 8102022:	6878      	ldr	r0, [r7, #4]
 8102024:	f001 fb8c 	bl	8103740 <DMA_CalcDMAMUXRequestGenBaseAndMask>

      /* Reset the DMAMUX request generator register */
      hdma->DMAmuxRequestGen->RGCR = 0U;
 8102028:	687b      	ldr	r3, [r7, #4]
 810202a:	6edb      	ldr	r3, [r3, #108]	; 0x6c
 810202c:	2200      	movs	r2, #0
 810202e:	601a      	str	r2, [r3, #0]

      /* Clear the DMAMUX request generator overrun flag */
      hdma->DMAmuxRequestGenStatus->RGCFR = hdma->DMAmuxRequestGenStatusMask;
 8102030:	687b      	ldr	r3, [r7, #4]
 8102032:	6f1b      	ldr	r3, [r3, #112]	; 0x70
 8102034:	687a      	ldr	r2, [r7, #4]
 8102036:	6f52      	ldr	r2, [r2, #116]	; 0x74
 8102038:	605a      	str	r2, [r3, #4]
 810203a:	e008      	b.n	810204e <HAL_DMA_Init+0x632>
    }
    else
    {
      hdma->DMAmuxRequestGen = 0U;
 810203c:	687b      	ldr	r3, [r7, #4]
 810203e:	2200      	movs	r2, #0
 8102040:	66da      	str	r2, [r3, #108]	; 0x6c
      hdma->DMAmuxRequestGenStatus = 0U;
 8102042:	687b      	ldr	r3, [r7, #4]
 8102044:	2200      	movs	r2, #0
 8102046:	671a      	str	r2, [r3, #112]	; 0x70
      hdma->DMAmuxRequestGenStatusMask = 0U;
 8102048:	687b      	ldr	r3, [r7, #4]
 810204a:	2200      	movs	r2, #0
 810204c:	675a      	str	r2, [r3, #116]	; 0x74
    }
  }

  /* Initialize the error code */
  hdma->ErrorCode = HAL_DMA_ERROR_NONE;
 810204e:	687b      	ldr	r3, [r7, #4]
 8102050:	2200      	movs	r2, #0
 8102052:	655a      	str	r2, [r3, #84]	; 0x54

  /* Initialize the DMA state */
  hdma->State = HAL_DMA_STATE_READY;
 8102054:	687b      	ldr	r3, [r7, #4]
 8102056:	2201      	movs	r2, #1
 8102058:	f883 2035 	strb.w	r2, [r3, #53]	; 0x35

  return HAL_OK;
 810205c:	2300      	movs	r3, #0
}
 810205e:	4618      	mov	r0, r3
 8102060:	3718      	adds	r7, #24
 8102062:	46bd      	mov	sp, r7
 8102064:	bd80      	pop	{r7, pc}
 8102066:	bf00      	nop
 8102068:	a7fdabf8 	.word	0xa7fdabf8
 810206c:	cccccccd 	.word	0xcccccccd
 8102070:	40020010 	.word	0x40020010
 8102074:	40020028 	.word	0x40020028
 8102078:	40020040 	.word	0x40020040
 810207c:	40020058 	.word	0x40020058
 8102080:	40020070 	.word	0x40020070
 8102084:	40020088 	.word	0x40020088
 8102088:	400200a0 	.word	0x400200a0
 810208c:	400200b8 	.word	0x400200b8
 8102090:	40020410 	.word	0x40020410
 8102094:	40020428 	.word	0x40020428
 8102098:	40020440 	.word	0x40020440
 810209c:	40020458 	.word	0x40020458
 81020a0:	40020470 	.word	0x40020470
 81020a4:	40020488 	.word	0x40020488
 81020a8:	400204a0 	.word	0x400204a0
 81020ac:	400204b8 	.word	0x400204b8
 81020b0:	58025408 	.word	0x58025408
 81020b4:	5802541c 	.word	0x5802541c
 81020b8:	58025430 	.word	0x58025430
 81020bc:	58025444 	.word	0x58025444
 81020c0:	58025458 	.word	0x58025458
 81020c4:	5802546c 	.word	0x5802546c
 81020c8:	58025480 	.word	0x58025480
 81020cc:	58025494 	.word	0x58025494

081020d0 <HAL_DMA_Abort_IT>:
  * @param  hdma  : pointer to a DMA_HandleTypeDef structure that contains
  *                 the configuration information for the specified DMA Stream.
  * @retval HAL status
  */
HAL_StatusTypeDef HAL_DMA_Abort_IT(DMA_HandleTypeDef *hdma)
{
 81020d0:	b580      	push	{r7, lr}
 81020d2:	b084      	sub	sp, #16
 81020d4:	af00      	add	r7, sp, #0
 81020d6:	6078      	str	r0, [r7, #4]
  BDMA_Base_Registers *regs_bdma;

  /* Check the DMA peripheral handle */
  if(hdma == NULL)
 81020d8:	687b      	ldr	r3, [r7, #4]
 81020da:	2b00      	cmp	r3, #0
 81020dc:	d101      	bne.n	81020e2 <HAL_DMA_Abort_IT+0x12>
  {
    return HAL_ERROR;
 81020de:	2301      	movs	r3, #1
 81020e0:	e237      	b.n	8102552 <HAL_DMA_Abort_IT+0x482>
  }

  if(hdma->State != HAL_DMA_STATE_BUSY)
 81020e2:	687b      	ldr	r3, [r7, #4]
 81020e4:	f893 3035 	ldrb.w	r3, [r3, #53]	; 0x35
 81020e8:	b2db      	uxtb	r3, r3
 81020ea:	2b02      	cmp	r3, #2
 81020ec:	d004      	beq.n	81020f8 <HAL_DMA_Abort_IT+0x28>
  {
    hdma->ErrorCode = HAL_DMA_ERROR_NO_XFER;
 81020ee:	687b      	ldr	r3, [r7, #4]
 81020f0:	2280      	movs	r2, #128	; 0x80
 81020f2:	655a      	str	r2, [r3, #84]	; 0x54
    return HAL_ERROR;
 81020f4:	2301      	movs	r3, #1
 81020f6:	e22c      	b.n	8102552 <HAL_DMA_Abort_IT+0x482>
  }
  else
  {
    if(IS_DMA_STREAM_INSTANCE(hdma->Instance) != 0U) /* DMA1 or DMA2 instance */
 81020f8:	687b      	ldr	r3, [r7, #4]
 81020fa:	681b      	ldr	r3, [r3, #0]
 81020fc:	4a5c      	ldr	r2, [pc, #368]	; (8102270 <HAL_DMA_Abort_IT+0x1a0>)
 81020fe:	4293      	cmp	r3, r2
 8102100:	d04a      	beq.n	8102198 <HAL_DMA_Abort_IT+0xc8>
 8102102:	687b      	ldr	r3, [r7, #4]
 8102104:	681b      	ldr	r3, [r3, #0]
 8102106:	4a5b      	ldr	r2, [pc, #364]	; (8102274 <HAL_DMA_Abort_IT+0x1a4>)
 8102108:	4293      	cmp	r3, r2
 810210a:	d045      	beq.n	8102198 <HAL_DMA_Abort_IT+0xc8>
 810210c:	687b      	ldr	r3, [r7, #4]
 810210e:	681b      	ldr	r3, [r3, #0]
 8102110:	4a59      	ldr	r2, [pc, #356]	; (8102278 <HAL_DMA_Abort_IT+0x1a8>)
 8102112:	4293      	cmp	r3, r2
 8102114:	d040      	beq.n	8102198 <HAL_DMA_Abort_IT+0xc8>
 8102116:	687b      	ldr	r3, [r7, #4]
 8102118:	681b      	ldr	r3, [r3, #0]
 810211a:	4a58      	ldr	r2, [pc, #352]	; (810227c <HAL_DMA_Abort_IT+0x1ac>)
 810211c:	4293      	cmp	r3, r2
 810211e:	d03b      	beq.n	8102198 <HAL_DMA_Abort_IT+0xc8>
 8102120:	687b      	ldr	r3, [r7, #4]
 8102122:	681b      	ldr	r3, [r3, #0]
 8102124:	4a56      	ldr	r2, [pc, #344]	; (8102280 <HAL_DMA_Abort_IT+0x1b0>)
 8102126:	4293      	cmp	r3, r2
 8102128:	d036      	beq.n	8102198 <HAL_DMA_Abort_IT+0xc8>
 810212a:	687b      	ldr	r3, [r7, #4]
 810212c:	681b      	ldr	r3, [r3, #0]
 810212e:	4a55      	ldr	r2, [pc, #340]	; (8102284 <HAL_DMA_Abort_IT+0x1b4>)
 8102130:	4293      	cmp	r3, r2
 8102132:	d031      	beq.n	8102198 <HAL_DMA_Abort_IT+0xc8>
 8102134:	687b      	ldr	r3, [r7, #4]
 8102136:	681b      	ldr	r3, [r3, #0]
 8102138:	4a53      	ldr	r2, [pc, #332]	; (8102288 <HAL_DMA_Abort_IT+0x1b8>)
 810213a:	4293      	cmp	r3, r2
 810213c:	d02c      	beq.n	8102198 <HAL_DMA_Abort_IT+0xc8>
 810213e:	687b      	ldr	r3, [r7, #4]
 8102140:	681b      	ldr	r3, [r3, #0]
 8102142:	4a52      	ldr	r2, [pc, #328]	; (810228c <HAL_DMA_Abort_IT+0x1bc>)
 8102144:	4293      	cmp	r3, r2
 8102146:	d027      	beq.n	8102198 <HAL_DMA_Abort_IT+0xc8>
 8102148:	687b      	ldr	r3, [r7, #4]
 810214a:	681b      	ldr	r3, [r3, #0]
 810214c:	4a50      	ldr	r2, [pc, #320]	; (8102290 <HAL_DMA_Abort_IT+0x1c0>)
 810214e:	4293      	cmp	r3, r2
 8102150:	d022      	beq.n	8102198 <HAL_DMA_Abort_IT+0xc8>
 8102152:	687b      	ldr	r3, [r7, #4]
 8102154:	681b      	ldr	r3, [r3, #0]
 8102156:	4a4f      	ldr	r2, [pc, #316]	; (8102294 <HAL_DMA_Abort_IT+0x1c4>)
 8102158:	4293      	cmp	r3, r2
 810215a:	d01d      	beq.n	8102198 <HAL_DMA_Abort_IT+0xc8>
 810215c:	687b      	ldr	r3, [r7, #4]
 810215e:	681b      	ldr	r3, [r3, #0]
 8102160:	4a4d      	ldr	r2, [pc, #308]	; (8102298 <HAL_DMA_Abort_IT+0x1c8>)
 8102162:	4293      	cmp	r3, r2
 8102164:	d018      	beq.n	8102198 <HAL_DMA_Abort_IT+0xc8>
 8102166:	687b      	ldr	r3, [r7, #4]
 8102168:	681b      	ldr	r3, [r3, #0]
 810216a:	4a4c      	ldr	r2, [pc, #304]	; (810229c <HAL_DMA_Abort_IT+0x1cc>)
 810216c:	4293      	cmp	r3, r2
 810216e:	d013      	beq.n	8102198 <HAL_DMA_Abort_IT+0xc8>
 8102170:	687b      	ldr	r3, [r7, #4]
 8102172:	681b      	ldr	r3, [r3, #0]
 8102174:	4a4a      	ldr	r2, [pc, #296]	; (81022a0 <HAL_DMA_Abort_IT+0x1d0>)
 8102176:	4293      	cmp	r3, r2
 8102178:	d00e      	beq.n	8102198 <HAL_DMA_Abort_IT+0xc8>
 810217a:	687b      	ldr	r3, [r7, #4]
 810217c:	681b      	ldr	r3, [r3, #0]
 810217e:	4a49      	ldr	r2, [pc, #292]	; (81022a4 <HAL_DMA_Abort_IT+0x1d4>)
 8102180:	4293      	cmp	r3, r2
 8102182:	d009      	beq.n	8102198 <HAL_DMA_Abort_IT+0xc8>
 8102184:	687b      	ldr	r3, [r7, #4]
 8102186:	681b      	ldr	r3, [r3, #0]
 8102188:	4a47      	ldr	r2, [pc, #284]	; (81022a8 <HAL_DMA_Abort_IT+0x1d8>)
 810218a:	4293      	cmp	r3, r2
 810218c:	d004      	beq.n	8102198 <HAL_DMA_Abort_IT+0xc8>
 810218e:	687b      	ldr	r3, [r7, #4]
 8102190:	681b      	ldr	r3, [r3, #0]
 8102192:	4a46      	ldr	r2, [pc, #280]	; (81022ac <HAL_DMA_Abort_IT+0x1dc>)
 8102194:	4293      	cmp	r3, r2
 8102196:	d101      	bne.n	810219c <HAL_DMA_Abort_IT+0xcc>
 8102198:	2301      	movs	r3, #1
 810219a:	e000      	b.n	810219e <HAL_DMA_Abort_IT+0xce>
 810219c:	2300      	movs	r3, #0
 810219e:	2b00      	cmp	r3, #0
 81021a0:	f000 8086 	beq.w	81022b0 <HAL_DMA_Abort_IT+0x1e0>
    {
      /* Set Abort State  */
      hdma->State = HAL_DMA_STATE_ABORT;
 81021a4:	687b      	ldr	r3, [r7, #4]
 81021a6:	2204      	movs	r2, #4
 81021a8:	f883 2035 	strb.w	r2, [r3, #53]	; 0x35

      /* Disable the stream */
      __HAL_DMA_DISABLE(hdma);
 81021ac:	687b      	ldr	r3, [r7, #4]
 81021ae:	681b      	ldr	r3, [r3, #0]
 81021b0:	4a2f      	ldr	r2, [pc, #188]	; (8102270 <HAL_DMA_Abort_IT+0x1a0>)
 81021b2:	4293      	cmp	r3, r2
 81021b4:	d04a      	beq.n	810224c <HAL_DMA_Abort_IT+0x17c>
 81021b6:	687b      	ldr	r3, [r7, #4]
 81021b8:	681b      	ldr	r3, [r3, #0]
 81021ba:	4a2e      	ldr	r2, [pc, #184]	; (8102274 <HAL_DMA_Abort_IT+0x1a4>)
 81021bc:	4293      	cmp	r3, r2
 81021be:	d045      	beq.n	810224c <HAL_DMA_Abort_IT+0x17c>
 81021c0:	687b      	ldr	r3, [r7, #4]
 81021c2:	681b      	ldr	r3, [r3, #0]
 81021c4:	4a2c      	ldr	r2, [pc, #176]	; (8102278 <HAL_DMA_Abort_IT+0x1a8>)
 81021c6:	4293      	cmp	r3, r2
 81021c8:	d040      	beq.n	810224c <HAL_DMA_Abort_IT+0x17c>
 81021ca:	687b      	ldr	r3, [r7, #4]
 81021cc:	681b      	ldr	r3, [r3, #0]
 81021ce:	4a2b      	ldr	r2, [pc, #172]	; (810227c <HAL_DMA_Abort_IT+0x1ac>)
 81021d0:	4293      	cmp	r3, r2
 81021d2:	d03b      	beq.n	810224c <HAL_DMA_Abort_IT+0x17c>
 81021d4:	687b      	ldr	r3, [r7, #4]
 81021d6:	681b      	ldr	r3, [r3, #0]
 81021d8:	4a29      	ldr	r2, [pc, #164]	; (8102280 <HAL_DMA_Abort_IT+0x1b0>)
 81021da:	4293      	cmp	r3, r2
 81021dc:	d036      	beq.n	810224c <HAL_DMA_Abort_IT+0x17c>
 81021de:	687b      	ldr	r3, [r7, #4]
 81021e0:	681b      	ldr	r3, [r3, #0]
 81021e2:	4a28      	ldr	r2, [pc, #160]	; (8102284 <HAL_DMA_Abort_IT+0x1b4>)
 81021e4:	4293      	cmp	r3, r2
 81021e6:	d031      	beq.n	810224c <HAL_DMA_Abort_IT+0x17c>
 81021e8:	687b      	ldr	r3, [r7, #4]
 81021ea:	681b      	ldr	r3, [r3, #0]
 81021ec:	4a26      	ldr	r2, [pc, #152]	; (8102288 <HAL_DMA_Abort_IT+0x1b8>)
 81021ee:	4293      	cmp	r3, r2
 81021f0:	d02c      	beq.n	810224c <HAL_DMA_Abort_IT+0x17c>
 81021f2:	687b      	ldr	r3, [r7, #4]
 81021f4:	681b      	ldr	r3, [r3, #0]
 81021f6:	4a25      	ldr	r2, [pc, #148]	; (810228c <HAL_DMA_Abort_IT+0x1bc>)
 81021f8:	4293      	cmp	r3, r2
 81021fa:	d027      	beq.n	810224c <HAL_DMA_Abort_IT+0x17c>
 81021fc:	687b      	ldr	r3, [r7, #4]
 81021fe:	681b      	ldr	r3, [r3, #0]
 8102200:	4a23      	ldr	r2, [pc, #140]	; (8102290 <HAL_DMA_Abort_IT+0x1c0>)
 8102202:	4293      	cmp	r3, r2
 8102204:	d022      	beq.n	810224c <HAL_DMA_Abort_IT+0x17c>
 8102206:	687b      	ldr	r3, [r7, #4]
 8102208:	681b      	ldr	r3, [r3, #0]
 810220a:	4a22      	ldr	r2, [pc, #136]	; (8102294 <HAL_DMA_Abort_IT+0x1c4>)
 810220c:	4293      	cmp	r3, r2
 810220e:	d01d      	beq.n	810224c <HAL_DMA_Abort_IT+0x17c>
 8102210:	687b      	ldr	r3, [r7, #4]
 8102212:	681b      	ldr	r3, [r3, #0]
 8102214:	4a20      	ldr	r2, [pc, #128]	; (8102298 <HAL_DMA_Abort_IT+0x1c8>)
 8102216:	4293      	cmp	r3, r2
 8102218:	d018      	beq.n	810224c <HAL_DMA_Abort_IT+0x17c>
 810221a:	687b      	ldr	r3, [r7, #4]
 810221c:	681b      	ldr	r3, [r3, #0]
 810221e:	4a1f      	ldr	r2, [pc, #124]	; (810229c <HAL_DMA_Abort_IT+0x1cc>)
 8102220:	4293      	cmp	r3, r2
 8102222:	d013      	beq.n	810224c <HAL_DMA_Abort_IT+0x17c>
 8102224:	687b      	ldr	r3, [r7, #4]
 8102226:	681b      	ldr	r3, [r3, #0]
 8102228:	4a1d      	ldr	r2, [pc, #116]	; (81022a0 <HAL_DMA_Abort_IT+0x1d0>)
 810222a:	4293      	cmp	r3, r2
 810222c:	d00e      	beq.n	810224c <HAL_DMA_Abort_IT+0x17c>
 810222e:	687b      	ldr	r3, [r7, #4]
 8102230:	681b      	ldr	r3, [r3, #0]
 8102232:	4a1c      	ldr	r2, [pc, #112]	; (81022a4 <HAL_DMA_Abort_IT+0x1d4>)
 8102234:	4293      	cmp	r3, r2
 8102236:	d009      	beq.n	810224c <HAL_DMA_Abort_IT+0x17c>
 8102238:	687b      	ldr	r3, [r7, #4]
 810223a:	681b      	ldr	r3, [r3, #0]
 810223c:	4a1a      	ldr	r2, [pc, #104]	; (81022a8 <HAL_DMA_Abort_IT+0x1d8>)
 810223e:	4293      	cmp	r3, r2
 8102240:	d004      	beq.n	810224c <HAL_DMA_Abort_IT+0x17c>
 8102242:	687b      	ldr	r3, [r7, #4]
 8102244:	681b      	ldr	r3, [r3, #0]
 8102246:	4a19      	ldr	r2, [pc, #100]	; (81022ac <HAL_DMA_Abort_IT+0x1dc>)
 8102248:	4293      	cmp	r3, r2
 810224a:	d108      	bne.n	810225e <HAL_DMA_Abort_IT+0x18e>
 810224c:	687b      	ldr	r3, [r7, #4]
 810224e:	681b      	ldr	r3, [r3, #0]
 8102250:	681a      	ldr	r2, [r3, #0]
 8102252:	687b      	ldr	r3, [r7, #4]
 8102254:	681b      	ldr	r3, [r3, #0]
 8102256:	f022 0201 	bic.w	r2, r2, #1
 810225a:	601a      	str	r2, [r3, #0]
 810225c:	e178      	b.n	8102550 <HAL_DMA_Abort_IT+0x480>
 810225e:	687b      	ldr	r3, [r7, #4]
 8102260:	681b      	ldr	r3, [r3, #0]
 8102262:	681a      	ldr	r2, [r3, #0]
 8102264:	687b      	ldr	r3, [r7, #4]
 8102266:	681b      	ldr	r3, [r3, #0]
 8102268:	f022 0201 	bic.w	r2, r2, #1
 810226c:	601a      	str	r2, [r3, #0]
 810226e:	e16f      	b.n	8102550 <HAL_DMA_Abort_IT+0x480>
 8102270:	40020010 	.word	0x40020010
 8102274:	40020028 	.word	0x40020028
 8102278:	40020040 	.word	0x40020040
 810227c:	40020058 	.word	0x40020058
 8102280:	40020070 	.word	0x40020070
 8102284:	40020088 	.word	0x40020088
 8102288:	400200a0 	.word	0x400200a0
 810228c:	400200b8 	.word	0x400200b8
 8102290:	40020410 	.word	0x40020410
 8102294:	40020428 	.word	0x40020428
 8102298:	40020440 	.word	0x40020440
 810229c:	40020458 	.word	0x40020458
 81022a0:	40020470 	.word	0x40020470
 81022a4:	40020488 	.word	0x40020488
 81022a8:	400204a0 	.word	0x400204a0
 81022ac:	400204b8 	.word	0x400204b8
    }
    else /* BDMA channel */
    {
      /* Disable DMA All Interrupts  */
      ((BDMA_Channel_TypeDef   *)hdma->Instance)->CCR  &= ~(BDMA_CCR_TCIE | BDMA_CCR_HTIE | BDMA_CCR_TEIE);
 81022b0:	687b      	ldr	r3, [r7, #4]
 81022b2:	681b      	ldr	r3, [r3, #0]
 81022b4:	681a      	ldr	r2, [r3, #0]
 81022b6:	687b      	ldr	r3, [r7, #4]
 81022b8:	681b      	ldr	r3, [r3, #0]
 81022ba:	f022 020e 	bic.w	r2, r2, #14
 81022be:	601a      	str	r2, [r3, #0]

      /* Disable the channel */
      __HAL_DMA_DISABLE(hdma);
 81022c0:	687b      	ldr	r3, [r7, #4]
 81022c2:	681b      	ldr	r3, [r3, #0]
 81022c4:	4a6c      	ldr	r2, [pc, #432]	; (8102478 <HAL_DMA_Abort_IT+0x3a8>)
 81022c6:	4293      	cmp	r3, r2
 81022c8:	d04a      	beq.n	8102360 <HAL_DMA_Abort_IT+0x290>
 81022ca:	687b      	ldr	r3, [r7, #4]
 81022cc:	681b      	ldr	r3, [r3, #0]
 81022ce:	4a6b      	ldr	r2, [pc, #428]	; (810247c <HAL_DMA_Abort_IT+0x3ac>)
 81022d0:	4293      	cmp	r3, r2
 81022d2:	d045      	beq.n	8102360 <HAL_DMA_Abort_IT+0x290>
 81022d4:	687b      	ldr	r3, [r7, #4]
 81022d6:	681b      	ldr	r3, [r3, #0]
 81022d8:	4a69      	ldr	r2, [pc, #420]	; (8102480 <HAL_DMA_Abort_IT+0x3b0>)
 81022da:	4293      	cmp	r3, r2
 81022dc:	d040      	beq.n	8102360 <HAL_DMA_Abort_IT+0x290>
 81022de:	687b      	ldr	r3, [r7, #4]
 81022e0:	681b      	ldr	r3, [r3, #0]
 81022e2:	4a68      	ldr	r2, [pc, #416]	; (8102484 <HAL_DMA_Abort_IT+0x3b4>)
 81022e4:	4293      	cmp	r3, r2
 81022e6:	d03b      	beq.n	8102360 <HAL_DMA_Abort_IT+0x290>
 81022e8:	687b      	ldr	r3, [r7, #4]
 81022ea:	681b      	ldr	r3, [r3, #0]
 81022ec:	4a66      	ldr	r2, [pc, #408]	; (8102488 <HAL_DMA_Abort_IT+0x3b8>)
 81022ee:	4293      	cmp	r3, r2
 81022f0:	d036      	beq.n	8102360 <HAL_DMA_Abort_IT+0x290>
 81022f2:	687b      	ldr	r3, [r7, #4]
 81022f4:	681b      	ldr	r3, [r3, #0]
 81022f6:	4a65      	ldr	r2, [pc, #404]	; (810248c <HAL_DMA_Abort_IT+0x3bc>)
 81022f8:	4293      	cmp	r3, r2
 81022fa:	d031      	beq.n	8102360 <HAL_DMA_Abort_IT+0x290>
 81022fc:	687b      	ldr	r3, [r7, #4]
 81022fe:	681b      	ldr	r3, [r3, #0]
 8102300:	4a63      	ldr	r2, [pc, #396]	; (8102490 <HAL_DMA_Abort_IT+0x3c0>)
 8102302:	4293      	cmp	r3, r2
 8102304:	d02c      	beq.n	8102360 <HAL_DMA_Abort_IT+0x290>
 8102306:	687b      	ldr	r3, [r7, #4]
 8102308:	681b      	ldr	r3, [r3, #0]
 810230a:	4a62      	ldr	r2, [pc, #392]	; (8102494 <HAL_DMA_Abort_IT+0x3c4>)
 810230c:	4293      	cmp	r3, r2
 810230e:	d027      	beq.n	8102360 <HAL_DMA_Abort_IT+0x290>
 8102310:	687b      	ldr	r3, [r7, #4]
 8102312:	681b      	ldr	r3, [r3, #0]
 8102314:	4a60      	ldr	r2, [pc, #384]	; (8102498 <HAL_DMA_Abort_IT+0x3c8>)
 8102316:	4293      	cmp	r3, r2
 8102318:	d022      	beq.n	8102360 <HAL_DMA_Abort_IT+0x290>
 810231a:	687b      	ldr	r3, [r7, #4]
 810231c:	681b      	ldr	r3, [r3, #0]
 810231e:	4a5f      	ldr	r2, [pc, #380]	; (810249c <HAL_DMA_Abort_IT+0x3cc>)
 8102320:	4293      	cmp	r3, r2
 8102322:	d01d      	beq.n	8102360 <HAL_DMA_Abort_IT+0x290>
 8102324:	687b      	ldr	r3, [r7, #4]
 8102326:	681b      	ldr	r3, [r3, #0]
 8102328:	4a5d      	ldr	r2, [pc, #372]	; (81024a0 <HAL_DMA_Abort_IT+0x3d0>)
 810232a:	4293      	cmp	r3, r2
 810232c:	d018      	beq.n	8102360 <HAL_DMA_Abort_IT+0x290>
 810232e:	687b      	ldr	r3, [r7, #4]
 8102330:	681b      	ldr	r3, [r3, #0]
 8102332:	4a5c      	ldr	r2, [pc, #368]	; (81024a4 <HAL_DMA_Abort_IT+0x3d4>)
 8102334:	4293      	cmp	r3, r2
 8102336:	d013      	beq.n	8102360 <HAL_DMA_Abort_IT+0x290>
 8102338:	687b      	ldr	r3, [r7, #4]
 810233a:	681b      	ldr	r3, [r3, #0]
 810233c:	4a5a      	ldr	r2, [pc, #360]	; (81024a8 <HAL_DMA_Abort_IT+0x3d8>)
 810233e:	4293      	cmp	r3, r2
 8102340:	d00e      	beq.n	8102360 <HAL_DMA_Abort_IT+0x290>
 8102342:	687b      	ldr	r3, [r7, #4]
 8102344:	681b      	ldr	r3, [r3, #0]
 8102346:	4a59      	ldr	r2, [pc, #356]	; (81024ac <HAL_DMA_Abort_IT+0x3dc>)
 8102348:	4293      	cmp	r3, r2
 810234a:	d009      	beq.n	8102360 <HAL_DMA_Abort_IT+0x290>
 810234c:	687b      	ldr	r3, [r7, #4]
 810234e:	681b      	ldr	r3, [r3, #0]
 8102350:	4a57      	ldr	r2, [pc, #348]	; (81024b0 <HAL_DMA_Abort_IT+0x3e0>)
 8102352:	4293      	cmp	r3, r2
 8102354:	d004      	beq.n	8102360 <HAL_DMA_Abort_IT+0x290>
 8102356:	687b      	ldr	r3, [r7, #4]
 8102358:	681b      	ldr	r3, [r3, #0]
 810235a:	4a56      	ldr	r2, [pc, #344]	; (81024b4 <HAL_DMA_Abort_IT+0x3e4>)
 810235c:	4293      	cmp	r3, r2
 810235e:	d108      	bne.n	8102372 <HAL_DMA_Abort_IT+0x2a2>
 8102360:	687b      	ldr	r3, [r7, #4]
 8102362:	681b      	ldr	r3, [r3, #0]
 8102364:	681a      	ldr	r2, [r3, #0]
 8102366:	687b      	ldr	r3, [r7, #4]
 8102368:	681b      	ldr	r3, [r3, #0]
 810236a:	f022 0201 	bic.w	r2, r2, #1
 810236e:	601a      	str	r2, [r3, #0]
 8102370:	e007      	b.n	8102382 <HAL_DMA_Abort_IT+0x2b2>
 8102372:	687b      	ldr	r3, [r7, #4]
 8102374:	681b      	ldr	r3, [r3, #0]
 8102376:	681a      	ldr	r2, [r3, #0]
 8102378:	687b      	ldr	r3, [r7, #4]
 810237a:	681b      	ldr	r3, [r3, #0]
 810237c:	f022 0201 	bic.w	r2, r2, #1
 8102380:	601a      	str	r2, [r3, #0]

      if(IS_DMA_DMAMUX_ALL_INSTANCE(hdma->Instance) != 0U) /* No DMAMUX available for BDMA1 */
 8102382:	687b      	ldr	r3, [r7, #4]
 8102384:	681b      	ldr	r3, [r3, #0]
 8102386:	4a3c      	ldr	r2, [pc, #240]	; (8102478 <HAL_DMA_Abort_IT+0x3a8>)
 8102388:	4293      	cmp	r3, r2
 810238a:	d072      	beq.n	8102472 <HAL_DMA_Abort_IT+0x3a2>
 810238c:	687b      	ldr	r3, [r7, #4]
 810238e:	681b      	ldr	r3, [r3, #0]
 8102390:	4a3a      	ldr	r2, [pc, #232]	; (810247c <HAL_DMA_Abort_IT+0x3ac>)
 8102392:	4293      	cmp	r3, r2
 8102394:	d06d      	beq.n	8102472 <HAL_DMA_Abort_IT+0x3a2>
 8102396:	687b      	ldr	r3, [r7, #4]
 8102398:	681b      	ldr	r3, [r3, #0]
 810239a:	4a39      	ldr	r2, [pc, #228]	; (8102480 <HAL_DMA_Abort_IT+0x3b0>)
 810239c:	4293      	cmp	r3, r2
 810239e:	d068      	beq.n	8102472 <HAL_DMA_Abort_IT+0x3a2>
 81023a0:	687b      	ldr	r3, [r7, #4]
 81023a2:	681b      	ldr	r3, [r3, #0]
 81023a4:	4a37      	ldr	r2, [pc, #220]	; (8102484 <HAL_DMA_Abort_IT+0x3b4>)
 81023a6:	4293      	cmp	r3, r2
 81023a8:	d063      	beq.n	8102472 <HAL_DMA_Abort_IT+0x3a2>
 81023aa:	687b      	ldr	r3, [r7, #4]
 81023ac:	681b      	ldr	r3, [r3, #0]
 81023ae:	4a36      	ldr	r2, [pc, #216]	; (8102488 <HAL_DMA_Abort_IT+0x3b8>)
 81023b0:	4293      	cmp	r3, r2
 81023b2:	d05e      	beq.n	8102472 <HAL_DMA_Abort_IT+0x3a2>
 81023b4:	687b      	ldr	r3, [r7, #4]
 81023b6:	681b      	ldr	r3, [r3, #0]
 81023b8:	4a34      	ldr	r2, [pc, #208]	; (810248c <HAL_DMA_Abort_IT+0x3bc>)
 81023ba:	4293      	cmp	r3, r2
 81023bc:	d059      	beq.n	8102472 <HAL_DMA_Abort_IT+0x3a2>
 81023be:	687b      	ldr	r3, [r7, #4]
 81023c0:	681b      	ldr	r3, [r3, #0]
 81023c2:	4a33      	ldr	r2, [pc, #204]	; (8102490 <HAL_DMA_Abort_IT+0x3c0>)
 81023c4:	4293      	cmp	r3, r2
 81023c6:	d054      	beq.n	8102472 <HAL_DMA_Abort_IT+0x3a2>
 81023c8:	687b      	ldr	r3, [r7, #4]
 81023ca:	681b      	ldr	r3, [r3, #0]
 81023cc:	4a31      	ldr	r2, [pc, #196]	; (8102494 <HAL_DMA_Abort_IT+0x3c4>)
 81023ce:	4293      	cmp	r3, r2
 81023d0:	d04f      	beq.n	8102472 <HAL_DMA_Abort_IT+0x3a2>
 81023d2:	687b      	ldr	r3, [r7, #4]
 81023d4:	681b      	ldr	r3, [r3, #0]
 81023d6:	4a30      	ldr	r2, [pc, #192]	; (8102498 <HAL_DMA_Abort_IT+0x3c8>)
 81023d8:	4293      	cmp	r3, r2
 81023da:	d04a      	beq.n	8102472 <HAL_DMA_Abort_IT+0x3a2>
 81023dc:	687b      	ldr	r3, [r7, #4]
 81023de:	681b      	ldr	r3, [r3, #0]
 81023e0:	4a2e      	ldr	r2, [pc, #184]	; (810249c <HAL_DMA_Abort_IT+0x3cc>)
 81023e2:	4293      	cmp	r3, r2
 81023e4:	d045      	beq.n	8102472 <HAL_DMA_Abort_IT+0x3a2>
 81023e6:	687b      	ldr	r3, [r7, #4]
 81023e8:	681b      	ldr	r3, [r3, #0]
 81023ea:	4a2d      	ldr	r2, [pc, #180]	; (81024a0 <HAL_DMA_Abort_IT+0x3d0>)
 81023ec:	4293      	cmp	r3, r2
 81023ee:	d040      	beq.n	8102472 <HAL_DMA_Abort_IT+0x3a2>
 81023f0:	687b      	ldr	r3, [r7, #4]
 81023f2:	681b      	ldr	r3, [r3, #0]
 81023f4:	4a2b      	ldr	r2, [pc, #172]	; (81024a4 <HAL_DMA_Abort_IT+0x3d4>)
 81023f6:	4293      	cmp	r3, r2
 81023f8:	d03b      	beq.n	8102472 <HAL_DMA_Abort_IT+0x3a2>
 81023fa:	687b      	ldr	r3, [r7, #4]
 81023fc:	681b      	ldr	r3, [r3, #0]
 81023fe:	4a2a      	ldr	r2, [pc, #168]	; (81024a8 <HAL_DMA_Abort_IT+0x3d8>)
 8102400:	4293      	cmp	r3, r2
 8102402:	d036      	beq.n	8102472 <HAL_DMA_Abort_IT+0x3a2>
 8102404:	687b      	ldr	r3, [r7, #4]
 8102406:	681b      	ldr	r3, [r3, #0]
 8102408:	4a28      	ldr	r2, [pc, #160]	; (81024ac <HAL_DMA_Abort_IT+0x3dc>)
 810240a:	4293      	cmp	r3, r2
 810240c:	d031      	beq.n	8102472 <HAL_DMA_Abort_IT+0x3a2>
 810240e:	687b      	ldr	r3, [r7, #4]
 8102410:	681b      	ldr	r3, [r3, #0]
 8102412:	4a27      	ldr	r2, [pc, #156]	; (81024b0 <HAL_DMA_Abort_IT+0x3e0>)
 8102414:	4293      	cmp	r3, r2
 8102416:	d02c      	beq.n	8102472 <HAL_DMA_Abort_IT+0x3a2>
 8102418:	687b      	ldr	r3, [r7, #4]
 810241a:	681b      	ldr	r3, [r3, #0]
 810241c:	4a25      	ldr	r2, [pc, #148]	; (81024b4 <HAL_DMA_Abort_IT+0x3e4>)
 810241e:	4293      	cmp	r3, r2
 8102420:	d027      	beq.n	8102472 <HAL_DMA_Abort_IT+0x3a2>
 8102422:	687b      	ldr	r3, [r7, #4]
 8102424:	681b      	ldr	r3, [r3, #0]
 8102426:	4a24      	ldr	r2, [pc, #144]	; (81024b8 <HAL_DMA_Abort_IT+0x3e8>)
 8102428:	4293      	cmp	r3, r2
 810242a:	d022      	beq.n	8102472 <HAL_DMA_Abort_IT+0x3a2>
 810242c:	687b      	ldr	r3, [r7, #4]
 810242e:	681b      	ldr	r3, [r3, #0]
 8102430:	4a22      	ldr	r2, [pc, #136]	; (81024bc <HAL_DMA_Abort_IT+0x3ec>)
 8102432:	4293      	cmp	r3, r2
 8102434:	d01d      	beq.n	8102472 <HAL_DMA_Abort_IT+0x3a2>
 8102436:	687b      	ldr	r3, [r7, #4]
 8102438:	681b      	ldr	r3, [r3, #0]
 810243a:	4a21      	ldr	r2, [pc, #132]	; (81024c0 <HAL_DMA_Abort_IT+0x3f0>)
 810243c:	4293      	cmp	r3, r2
 810243e:	d018      	beq.n	8102472 <HAL_DMA_Abort_IT+0x3a2>
 8102440:	687b      	ldr	r3, [r7, #4]
 8102442:	681b      	ldr	r3, [r3, #0]
 8102444:	4a1f      	ldr	r2, [pc, #124]	; (81024c4 <HAL_DMA_Abort_IT+0x3f4>)
 8102446:	4293      	cmp	r3, r2
 8102448:	d013      	beq.n	8102472 <HAL_DMA_Abort_IT+0x3a2>
 810244a:	687b      	ldr	r3, [r7, #4]
 810244c:	681b      	ldr	r3, [r3, #0]
 810244e:	4a1e      	ldr	r2, [pc, #120]	; (81024c8 <HAL_DMA_Abort_IT+0x3f8>)
 8102450:	4293      	cmp	r3, r2
 8102452:	d00e      	beq.n	8102472 <HAL_DMA_Abort_IT+0x3a2>
 8102454:	687b      	ldr	r3, [r7, #4]
 8102456:	681b      	ldr	r3, [r3, #0]
 8102458:	4a1c      	ldr	r2, [pc, #112]	; (81024cc <HAL_DMA_Abort_IT+0x3fc>)
 810245a:	4293      	cmp	r3, r2
 810245c:	d009      	beq.n	8102472 <HAL_DMA_Abort_IT+0x3a2>
 810245e:	687b      	ldr	r3, [r7, #4]
 8102460:	681b      	ldr	r3, [r3, #0]
 8102462:	4a1b      	ldr	r2, [pc, #108]	; (81024d0 <HAL_DMA_Abort_IT+0x400>)
 8102464:	4293      	cmp	r3, r2
 8102466:	d004      	beq.n	8102472 <HAL_DMA_Abort_IT+0x3a2>
 8102468:	687b      	ldr	r3, [r7, #4]
 810246a:	681b      	ldr	r3, [r3, #0]
 810246c:	4a19      	ldr	r2, [pc, #100]	; (81024d4 <HAL_DMA_Abort_IT+0x404>)
 810246e:	4293      	cmp	r3, r2
 8102470:	d132      	bne.n	81024d8 <HAL_DMA_Abort_IT+0x408>
 8102472:	2301      	movs	r3, #1
 8102474:	e031      	b.n	81024da <HAL_DMA_Abort_IT+0x40a>
 8102476:	bf00      	nop
 8102478:	40020010 	.word	0x40020010
 810247c:	40020028 	.word	0x40020028
 8102480:	40020040 	.word	0x40020040
 8102484:	40020058 	.word	0x40020058
 8102488:	40020070 	.word	0x40020070
 810248c:	40020088 	.word	0x40020088
 8102490:	400200a0 	.word	0x400200a0
 8102494:	400200b8 	.word	0x400200b8
 8102498:	40020410 	.word	0x40020410
 810249c:	40020428 	.word	0x40020428
 81024a0:	40020440 	.word	0x40020440
 81024a4:	40020458 	.word	0x40020458
 81024a8:	40020470 	.word	0x40020470
 81024ac:	40020488 	.word	0x40020488
 81024b0:	400204a0 	.word	0x400204a0
 81024b4:	400204b8 	.word	0x400204b8
 81024b8:	58025408 	.word	0x58025408
 81024bc:	5802541c 	.word	0x5802541c
 81024c0:	58025430 	.word	0x58025430
 81024c4:	58025444 	.word	0x58025444
 81024c8:	58025458 	.word	0x58025458
 81024cc:	5802546c 	.word	0x5802546c
 81024d0:	58025480 	.word	0x58025480
 81024d4:	58025494 	.word	0x58025494
 81024d8:	2300      	movs	r3, #0
 81024da:	2b00      	cmp	r3, #0
 81024dc:	d028      	beq.n	8102530 <HAL_DMA_Abort_IT+0x460>
      {
        /* disable the DMAMUX sync overrun IT */
        hdma->DMAmuxChannel->CCR &= ~DMAMUX_CxCR_SOIE;
 81024de:	687b      	ldr	r3, [r7, #4]
 81024e0:	6e1b      	ldr	r3, [r3, #96]	; 0x60
 81024e2:	681a      	ldr	r2, [r3, #0]
 81024e4:	687b      	ldr	r3, [r7, #4]
 81024e6:	6e1b      	ldr	r3, [r3, #96]	; 0x60
 81024e8:	f422 7280 	bic.w	r2, r2, #256	; 0x100
 81024ec:	601a      	str	r2, [r3, #0]

        /* Clear all flags */
        regs_bdma = (BDMA_Base_Registers *)hdma->StreamBaseAddress;
 81024ee:	687b      	ldr	r3, [r7, #4]
 81024f0:	6d9b      	ldr	r3, [r3, #88]	; 0x58
 81024f2:	60fb      	str	r3, [r7, #12]
        regs_bdma->IFCR = ((BDMA_IFCR_CGIF0) << (hdma->StreamIndex & 0x1FU));
 81024f4:	687b      	ldr	r3, [r7, #4]
 81024f6:	6ddb      	ldr	r3, [r3, #92]	; 0x5c
 81024f8:	f003 031f 	and.w	r3, r3, #31
 81024fc:	2201      	movs	r2, #1
 81024fe:	409a      	lsls	r2, r3
 8102500:	68fb      	ldr	r3, [r7, #12]
 8102502:	605a      	str	r2, [r3, #4]

        /* Clear the DMAMUX synchro overrun flag */
        hdma->DMAmuxChannelStatus->CFR = hdma->DMAmuxChannelStatusMask;
 8102504:	687b      	ldr	r3, [r7, #4]
 8102506:	6e5b      	ldr	r3, [r3, #100]	; 0x64
 8102508:	687a      	ldr	r2, [r7, #4]
 810250a:	6e92      	ldr	r2, [r2, #104]	; 0x68
 810250c:	605a      	str	r2, [r3, #4]

        if(hdma->DMAmuxRequestGen != 0U)
 810250e:	687b      	ldr	r3, [r7, #4]
 8102510:	6edb      	ldr	r3, [r3, #108]	; 0x6c
 8102512:	2b00      	cmp	r3, #0
 8102514:	d00c      	beq.n	8102530 <HAL_DMA_Abort_IT+0x460>
        {
          /* if using DMAMUX request generator, disable the DMAMUX request generator overrun IT*/
          /* disable the request gen overrun IT */
          hdma->DMAmuxRequestGen->RGCR &= ~DMAMUX_RGxCR_OIE;
 8102516:	687b      	ldr	r3, [r7, #4]
 8102518:	6edb      	ldr	r3, [r3, #108]	; 0x6c
 810251a:	681a      	ldr	r2, [r3, #0]
 810251c:	687b      	ldr	r3, [r7, #4]
 810251e:	6edb      	ldr	r3, [r3, #108]	; 0x6c
 8102520:	f422 7280 	bic.w	r2, r2, #256	; 0x100
 8102524:	601a      	str	r2, [r3, #0]

          /* Clear the DMAMUX request generator overrun flag */
          hdma->DMAmuxRequestGenStatus->RGCFR = hdma->DMAmuxRequestGenStatusMask;
 8102526:	687b      	ldr	r3, [r7, #4]
 8102528:	6f1b      	ldr	r3, [r3, #112]	; 0x70
 810252a:	687a      	ldr	r2, [r7, #4]
 810252c:	6f52      	ldr	r2, [r2, #116]	; 0x74
 810252e:	605a      	str	r2, [r3, #4]
        }
      }

      /* Change the DMA state */
      hdma->State = HAL_DMA_STATE_READY;
 8102530:	687b      	ldr	r3, [r7, #4]
 8102532:	2201      	movs	r2, #1
 8102534:	f883 2035 	strb.w	r2, [r3, #53]	; 0x35

      /* Process Unlocked */
      __HAL_UNLOCK(hdma);
 8102538:	687b      	ldr	r3, [r7, #4]
 810253a:	2200      	movs	r2, #0
 810253c:	f883 2034 	strb.w	r2, [r3, #52]	; 0x34

      /* Call User Abort callback */
      if(hdma->XferAbortCallback != NULL)
 8102540:	687b      	ldr	r3, [r7, #4]
 8102542:	6d1b      	ldr	r3, [r3, #80]	; 0x50
 8102544:	2b00      	cmp	r3, #0
 8102546:	d003      	beq.n	8102550 <HAL_DMA_Abort_IT+0x480>
      {
        hdma->XferAbortCallback(hdma);
 8102548:	687b      	ldr	r3, [r7, #4]
 810254a:	6d1b      	ldr	r3, [r3, #80]	; 0x50
 810254c:	6878      	ldr	r0, [r7, #4]
 810254e:	4798      	blx	r3
      }
    }
  }

  return HAL_OK;
 8102550:	2300      	movs	r3, #0
}
 8102552:	4618      	mov	r0, r3
 8102554:	3710      	adds	r7, #16
 8102556:	46bd      	mov	sp, r7
 8102558:	bd80      	pop	{r7, pc}
 810255a:	bf00      	nop

0810255c <HAL_DMA_IRQHandler>:
  * @param  hdma: pointer to a DMA_HandleTypeDef structure that contains
  *               the configuration information for the specified DMA Stream.
  * @retval None
  */
void HAL_DMA_IRQHandler(DMA_HandleTypeDef *hdma)
{
 810255c:	b580      	push	{r7, lr}
 810255e:	b08a      	sub	sp, #40	; 0x28
 8102560:	af00      	add	r7, sp, #0
 8102562:	6078      	str	r0, [r7, #4]
  uint32_t tmpisr_dma, tmpisr_bdma;
  uint32_t ccr_reg;
  __IO uint32_t count = 0U;
 8102564:	2300      	movs	r3, #0
 8102566:	60fb      	str	r3, [r7, #12]
  uint32_t timeout = SystemCoreClock / 9600U;
 8102568:	4b67      	ldr	r3, [pc, #412]	; (8102708 <HAL_DMA_IRQHandler+0x1ac>)
 810256a:	681b      	ldr	r3, [r3, #0]
 810256c:	4a67      	ldr	r2, [pc, #412]	; (810270c <HAL_DMA_IRQHandler+0x1b0>)
 810256e:	fba2 2303 	umull	r2, r3, r2, r3
 8102572:	0a9b      	lsrs	r3, r3, #10
 8102574:	627b      	str	r3, [r7, #36]	; 0x24

  /* calculate DMA base and stream number */
  DMA_Base_Registers  *regs_dma  = (DMA_Base_Registers *)hdma->StreamBaseAddress;
 8102576:	687b      	ldr	r3, [r7, #4]
 8102578:	6d9b      	ldr	r3, [r3, #88]	; 0x58
 810257a:	623b      	str	r3, [r7, #32]
  BDMA_Base_Registers *regs_bdma = (BDMA_Base_Registers *)hdma->StreamBaseAddress;
 810257c:	687b      	ldr	r3, [r7, #4]
 810257e:	6d9b      	ldr	r3, [r3, #88]	; 0x58
 8102580:	61fb      	str	r3, [r7, #28]

  tmpisr_dma  = regs_dma->ISR;
 8102582:	6a3b      	ldr	r3, [r7, #32]
 8102584:	681b      	ldr	r3, [r3, #0]
 8102586:	61bb      	str	r3, [r7, #24]
  tmpisr_bdma = regs_bdma->ISR;
 8102588:	69fb      	ldr	r3, [r7, #28]
 810258a:	681b      	ldr	r3, [r3, #0]
 810258c:	617b      	str	r3, [r7, #20]

  if(IS_DMA_STREAM_INSTANCE(hdma->Instance) != 0U)  /* DMA1 or DMA2 instance */
 810258e:	687b      	ldr	r3, [r7, #4]
 8102590:	681b      	ldr	r3, [r3, #0]
 8102592:	4a5f      	ldr	r2, [pc, #380]	; (8102710 <HAL_DMA_IRQHandler+0x1b4>)
 8102594:	4293      	cmp	r3, r2
 8102596:	d04a      	beq.n	810262e <HAL_DMA_IRQHandler+0xd2>
 8102598:	687b      	ldr	r3, [r7, #4]
 810259a:	681b      	ldr	r3, [r3, #0]
 810259c:	4a5d      	ldr	r2, [pc, #372]	; (8102714 <HAL_DMA_IRQHandler+0x1b8>)
 810259e:	4293      	cmp	r3, r2
 81025a0:	d045      	beq.n	810262e <HAL_DMA_IRQHandler+0xd2>
 81025a2:	687b      	ldr	r3, [r7, #4]
 81025a4:	681b      	ldr	r3, [r3, #0]
 81025a6:	4a5c      	ldr	r2, [pc, #368]	; (8102718 <HAL_DMA_IRQHandler+0x1bc>)
 81025a8:	4293      	cmp	r3, r2
 81025aa:	d040      	beq.n	810262e <HAL_DMA_IRQHandler+0xd2>
 81025ac:	687b      	ldr	r3, [r7, #4]
 81025ae:	681b      	ldr	r3, [r3, #0]
 81025b0:	4a5a      	ldr	r2, [pc, #360]	; (810271c <HAL_DMA_IRQHandler+0x1c0>)
 81025b2:	4293      	cmp	r3, r2
 81025b4:	d03b      	beq.n	810262e <HAL_DMA_IRQHandler+0xd2>
 81025b6:	687b      	ldr	r3, [r7, #4]
 81025b8:	681b      	ldr	r3, [r3, #0]
 81025ba:	4a59      	ldr	r2, [pc, #356]	; (8102720 <HAL_DMA_IRQHandler+0x1c4>)
 81025bc:	4293      	cmp	r3, r2
 81025be:	d036      	beq.n	810262e <HAL_DMA_IRQHandler+0xd2>
 81025c0:	687b      	ldr	r3, [r7, #4]
 81025c2:	681b      	ldr	r3, [r3, #0]
 81025c4:	4a57      	ldr	r2, [pc, #348]	; (8102724 <HAL_DMA_IRQHandler+0x1c8>)
 81025c6:	4293      	cmp	r3, r2
 81025c8:	d031      	beq.n	810262e <HAL_DMA_IRQHandler+0xd2>
 81025ca:	687b      	ldr	r3, [r7, #4]
 81025cc:	681b      	ldr	r3, [r3, #0]
 81025ce:	4a56      	ldr	r2, [pc, #344]	; (8102728 <HAL_DMA_IRQHandler+0x1cc>)
 81025d0:	4293      	cmp	r3, r2
 81025d2:	d02c      	beq.n	810262e <HAL_DMA_IRQHandler+0xd2>
 81025d4:	687b      	ldr	r3, [r7, #4]
 81025d6:	681b      	ldr	r3, [r3, #0]
 81025d8:	4a54      	ldr	r2, [pc, #336]	; (810272c <HAL_DMA_IRQHandler+0x1d0>)
 81025da:	4293      	cmp	r3, r2
 81025dc:	d027      	beq.n	810262e <HAL_DMA_IRQHandler+0xd2>
 81025de:	687b      	ldr	r3, [r7, #4]
 81025e0:	681b      	ldr	r3, [r3, #0]
 81025e2:	4a53      	ldr	r2, [pc, #332]	; (8102730 <HAL_DMA_IRQHandler+0x1d4>)
 81025e4:	4293      	cmp	r3, r2
 81025e6:	d022      	beq.n	810262e <HAL_DMA_IRQHandler+0xd2>
 81025e8:	687b      	ldr	r3, [r7, #4]
 81025ea:	681b      	ldr	r3, [r3, #0]
 81025ec:	4a51      	ldr	r2, [pc, #324]	; (8102734 <HAL_DMA_IRQHandler+0x1d8>)
 81025ee:	4293      	cmp	r3, r2
 81025f0:	d01d      	beq.n	810262e <HAL_DMA_IRQHandler+0xd2>
 81025f2:	687b      	ldr	r3, [r7, #4]
 81025f4:	681b      	ldr	r3, [r3, #0]
 81025f6:	4a50      	ldr	r2, [pc, #320]	; (8102738 <HAL_DMA_IRQHandler+0x1dc>)
 81025f8:	4293      	cmp	r3, r2
 81025fa:	d018      	beq.n	810262e <HAL_DMA_IRQHandler+0xd2>
 81025fc:	687b      	ldr	r3, [r7, #4]
 81025fe:	681b      	ldr	r3, [r3, #0]
 8102600:	4a4e      	ldr	r2, [pc, #312]	; (810273c <HAL_DMA_IRQHandler+0x1e0>)
 8102602:	4293      	cmp	r3, r2
 8102604:	d013      	beq.n	810262e <HAL_DMA_IRQHandler+0xd2>
 8102606:	687b      	ldr	r3, [r7, #4]
 8102608:	681b      	ldr	r3, [r3, #0]
 810260a:	4a4d      	ldr	r2, [pc, #308]	; (8102740 <HAL_DMA_IRQHandler+0x1e4>)
 810260c:	4293      	cmp	r3, r2
 810260e:	d00e      	beq.n	810262e <HAL_DMA_IRQHandler+0xd2>
 8102610:	687b      	ldr	r3, [r7, #4]
 8102612:	681b      	ldr	r3, [r3, #0]
 8102614:	4a4b      	ldr	r2, [pc, #300]	; (8102744 <HAL_DMA_IRQHandler+0x1e8>)
 8102616:	4293      	cmp	r3, r2
 8102618:	d009      	beq.n	810262e <HAL_DMA_IRQHandler+0xd2>
 810261a:	687b      	ldr	r3, [r7, #4]
 810261c:	681b      	ldr	r3, [r3, #0]
 810261e:	4a4a      	ldr	r2, [pc, #296]	; (8102748 <HAL_DMA_IRQHandler+0x1ec>)
 8102620:	4293      	cmp	r3, r2
 8102622:	d004      	beq.n	810262e <HAL_DMA_IRQHandler+0xd2>
 8102624:	687b      	ldr	r3, [r7, #4]
 8102626:	681b      	ldr	r3, [r3, #0]
 8102628:	4a48      	ldr	r2, [pc, #288]	; (810274c <HAL_DMA_IRQHandler+0x1f0>)
 810262a:	4293      	cmp	r3, r2
 810262c:	d101      	bne.n	8102632 <HAL_DMA_IRQHandler+0xd6>
 810262e:	2301      	movs	r3, #1
 8102630:	e000      	b.n	8102634 <HAL_DMA_IRQHandler+0xd8>
 8102632:	2300      	movs	r3, #0
 8102634:	2b00      	cmp	r3, #0
 8102636:	f000 842b 	beq.w	8102e90 <HAL_DMA_IRQHandler+0x934>
  {
    /* Transfer Error Interrupt management ***************************************/
    if ((tmpisr_dma & (DMA_FLAG_TEIF0_4 << (hdma->StreamIndex & 0x1FU))) != 0U)
 810263a:	687b      	ldr	r3, [r7, #4]
 810263c:	6ddb      	ldr	r3, [r3, #92]	; 0x5c
 810263e:	f003 031f 	and.w	r3, r3, #31
 8102642:	2208      	movs	r2, #8
 8102644:	409a      	lsls	r2, r3
 8102646:	69bb      	ldr	r3, [r7, #24]
 8102648:	4013      	ands	r3, r2
 810264a:	2b00      	cmp	r3, #0
 810264c:	f000 80a2 	beq.w	8102794 <HAL_DMA_IRQHandler+0x238>
    {
      if(__HAL_DMA_GET_IT_SOURCE(hdma, DMA_IT_TE) != 0U)
 8102650:	687b      	ldr	r3, [r7, #4]
 8102652:	681b      	ldr	r3, [r3, #0]
 8102654:	4a2e      	ldr	r2, [pc, #184]	; (8102710 <HAL_DMA_IRQHandler+0x1b4>)
 8102656:	4293      	cmp	r3, r2
 8102658:	d04a      	beq.n	81026f0 <HAL_DMA_IRQHandler+0x194>
 810265a:	687b      	ldr	r3, [r7, #4]
 810265c:	681b      	ldr	r3, [r3, #0]
 810265e:	4a2d      	ldr	r2, [pc, #180]	; (8102714 <HAL_DMA_IRQHandler+0x1b8>)
 8102660:	4293      	cmp	r3, r2
 8102662:	d045      	beq.n	81026f0 <HAL_DMA_IRQHandler+0x194>
 8102664:	687b      	ldr	r3, [r7, #4]
 8102666:	681b      	ldr	r3, [r3, #0]
 8102668:	4a2b      	ldr	r2, [pc, #172]	; (8102718 <HAL_DMA_IRQHandler+0x1bc>)
 810266a:	4293      	cmp	r3, r2
 810266c:	d040      	beq.n	81026f0 <HAL_DMA_IRQHandler+0x194>
 810266e:	687b      	ldr	r3, [r7, #4]
 8102670:	681b      	ldr	r3, [r3, #0]
 8102672:	4a2a      	ldr	r2, [pc, #168]	; (810271c <HAL_DMA_IRQHandler+0x1c0>)
 8102674:	4293      	cmp	r3, r2
 8102676:	d03b      	beq.n	81026f0 <HAL_DMA_IRQHandler+0x194>
 8102678:	687b      	ldr	r3, [r7, #4]
 810267a:	681b      	ldr	r3, [r3, #0]
 810267c:	4a28      	ldr	r2, [pc, #160]	; (8102720 <HAL_DMA_IRQHandler+0x1c4>)
 810267e:	4293      	cmp	r3, r2
 8102680:	d036      	beq.n	81026f0 <HAL_DMA_IRQHandler+0x194>
 8102682:	687b      	ldr	r3, [r7, #4]
 8102684:	681b      	ldr	r3, [r3, #0]
 8102686:	4a27      	ldr	r2, [pc, #156]	; (8102724 <HAL_DMA_IRQHandler+0x1c8>)
 8102688:	4293      	cmp	r3, r2
 810268a:	d031      	beq.n	81026f0 <HAL_DMA_IRQHandler+0x194>
 810268c:	687b      	ldr	r3, [r7, #4]
 810268e:	681b      	ldr	r3, [r3, #0]
 8102690:	4a25      	ldr	r2, [pc, #148]	; (8102728 <HAL_DMA_IRQHandler+0x1cc>)
 8102692:	4293      	cmp	r3, r2
 8102694:	d02c      	beq.n	81026f0 <HAL_DMA_IRQHandler+0x194>
 8102696:	687b      	ldr	r3, [r7, #4]
 8102698:	681b      	ldr	r3, [r3, #0]
 810269a:	4a24      	ldr	r2, [pc, #144]	; (810272c <HAL_DMA_IRQHandler+0x1d0>)
 810269c:	4293      	cmp	r3, r2
 810269e:	d027      	beq.n	81026f0 <HAL_DMA_IRQHandler+0x194>
 81026a0:	687b      	ldr	r3, [r7, #4]
 81026a2:	681b      	ldr	r3, [r3, #0]
 81026a4:	4a22      	ldr	r2, [pc, #136]	; (8102730 <HAL_DMA_IRQHandler+0x1d4>)
 81026a6:	4293      	cmp	r3, r2
 81026a8:	d022      	beq.n	81026f0 <HAL_DMA_IRQHandler+0x194>
 81026aa:	687b      	ldr	r3, [r7, #4]
 81026ac:	681b      	ldr	r3, [r3, #0]
 81026ae:	4a21      	ldr	r2, [pc, #132]	; (8102734 <HAL_DMA_IRQHandler+0x1d8>)
 81026b0:	4293      	cmp	r3, r2
 81026b2:	d01d      	beq.n	81026f0 <HAL_DMA_IRQHandler+0x194>
 81026b4:	687b      	ldr	r3, [r7, #4]
 81026b6:	681b      	ldr	r3, [r3, #0]
 81026b8:	4a1f      	ldr	r2, [pc, #124]	; (8102738 <HAL_DMA_IRQHandler+0x1dc>)
 81026ba:	4293      	cmp	r3, r2
 81026bc:	d018      	beq.n	81026f0 <HAL_DMA_IRQHandler+0x194>
 81026be:	687b      	ldr	r3, [r7, #4]
 81026c0:	681b      	ldr	r3, [r3, #0]
 81026c2:	4a1e      	ldr	r2, [pc, #120]	; (810273c <HAL_DMA_IRQHandler+0x1e0>)
 81026c4:	4293      	cmp	r3, r2
 81026c6:	d013      	beq.n	81026f0 <HAL_DMA_IRQHandler+0x194>
 81026c8:	687b      	ldr	r3, [r7, #4]
 81026ca:	681b      	ldr	r3, [r3, #0]
 81026cc:	4a1c      	ldr	r2, [pc, #112]	; (8102740 <HAL_DMA_IRQHandler+0x1e4>)
 81026ce:	4293      	cmp	r3, r2
 81026d0:	d00e      	beq.n	81026f0 <HAL_DMA_IRQHandler+0x194>
 81026d2:	687b      	ldr	r3, [r7, #4]
 81026d4:	681b      	ldr	r3, [r3, #0]
 81026d6:	4a1b      	ldr	r2, [pc, #108]	; (8102744 <HAL_DMA_IRQHandler+0x1e8>)
 81026d8:	4293      	cmp	r3, r2
 81026da:	d009      	beq.n	81026f0 <HAL_DMA_IRQHandler+0x194>
 81026dc:	687b      	ldr	r3, [r7, #4]
 81026de:	681b      	ldr	r3, [r3, #0]
 81026e0:	4a19      	ldr	r2, [pc, #100]	; (8102748 <HAL_DMA_IRQHandler+0x1ec>)
 81026e2:	4293      	cmp	r3, r2
 81026e4:	d004      	beq.n	81026f0 <HAL_DMA_IRQHandler+0x194>
 81026e6:	687b      	ldr	r3, [r7, #4]
 81026e8:	681b      	ldr	r3, [r3, #0]
 81026ea:	4a18      	ldr	r2, [pc, #96]	; (810274c <HAL_DMA_IRQHandler+0x1f0>)
 81026ec:	4293      	cmp	r3, r2
 81026ee:	d12f      	bne.n	8102750 <HAL_DMA_IRQHandler+0x1f4>
 81026f0:	687b      	ldr	r3, [r7, #4]
 81026f2:	681b      	ldr	r3, [r3, #0]
 81026f4:	681b      	ldr	r3, [r3, #0]
 81026f6:	f003 0304 	and.w	r3, r3, #4
 81026fa:	2b00      	cmp	r3, #0
 81026fc:	bf14      	ite	ne
 81026fe:	2301      	movne	r3, #1
 8102700:	2300      	moveq	r3, #0
 8102702:	b2db      	uxtb	r3, r3
 8102704:	e02e      	b.n	8102764 <HAL_DMA_IRQHandler+0x208>
 8102706:	bf00      	nop
 8102708:	10000000 	.word	0x10000000
 810270c:	1b4e81b5 	.word	0x1b4e81b5
 8102710:	40020010 	.word	0x40020010
 8102714:	40020028 	.word	0x40020028
 8102718:	40020040 	.word	0x40020040
 810271c:	40020058 	.word	0x40020058
 8102720:	40020070 	.word	0x40020070
 8102724:	40020088 	.word	0x40020088
 8102728:	400200a0 	.word	0x400200a0
 810272c:	400200b8 	.word	0x400200b8
 8102730:	40020410 	.word	0x40020410
 8102734:	40020428 	.word	0x40020428
 8102738:	40020440 	.word	0x40020440
 810273c:	40020458 	.word	0x40020458
 8102740:	40020470 	.word	0x40020470
 8102744:	40020488 	.word	0x40020488
 8102748:	400204a0 	.word	0x400204a0
 810274c:	400204b8 	.word	0x400204b8
 8102750:	687b      	ldr	r3, [r7, #4]
 8102752:	681b      	ldr	r3, [r3, #0]
 8102754:	681b      	ldr	r3, [r3, #0]
 8102756:	f003 0308 	and.w	r3, r3, #8
 810275a:	2b00      	cmp	r3, #0
 810275c:	bf14      	ite	ne
 810275e:	2301      	movne	r3, #1
 8102760:	2300      	moveq	r3, #0
 8102762:	b2db      	uxtb	r3, r3
 8102764:	2b00      	cmp	r3, #0
 8102766:	d015      	beq.n	8102794 <HAL_DMA_IRQHandler+0x238>
      {
        /* Disable the transfer error interrupt */
        ((DMA_Stream_TypeDef   *)hdma->Instance)->CR  &= ~(DMA_IT_TE);
 8102768:	687b      	ldr	r3, [r7, #4]
 810276a:	681b      	ldr	r3, [r3, #0]
 810276c:	681a      	ldr	r2, [r3, #0]
 810276e:	687b      	ldr	r3, [r7, #4]
 8102770:	681b      	ldr	r3, [r3, #0]
 8102772:	f022 0204 	bic.w	r2, r2, #4
 8102776:	601a      	str	r2, [r3, #0]

        /* Clear the transfer error flag */
        regs_dma->IFCR = DMA_FLAG_TEIF0_4 << (hdma->StreamIndex & 0x1FU);
 8102778:	687b      	ldr	r3, [r7, #4]
 810277a:	6ddb      	ldr	r3, [r3, #92]	; 0x5c
 810277c:	f003 031f 	and.w	r3, r3, #31
 8102780:	2208      	movs	r2, #8
 8102782:	409a      	lsls	r2, r3
 8102784:	6a3b      	ldr	r3, [r7, #32]
 8102786:	609a      	str	r2, [r3, #8]

        /* Update error code */
        hdma->ErrorCode |= HAL_DMA_ERROR_TE;
 8102788:	687b      	ldr	r3, [r7, #4]
 810278a:	6d5b      	ldr	r3, [r3, #84]	; 0x54
 810278c:	f043 0201 	orr.w	r2, r3, #1
 8102790:	687b      	ldr	r3, [r7, #4]
 8102792:	655a      	str	r2, [r3, #84]	; 0x54
      }
    }
    /* FIFO Error Interrupt management ******************************************/
    if ((tmpisr_dma & (DMA_FLAG_FEIF0_4 << (hdma->StreamIndex & 0x1FU))) != 0U)
 8102794:	687b      	ldr	r3, [r7, #4]
 8102796:	6ddb      	ldr	r3, [r3, #92]	; 0x5c
 8102798:	f003 031f 	and.w	r3, r3, #31
 810279c:	69ba      	ldr	r2, [r7, #24]
 810279e:	fa22 f303 	lsr.w	r3, r2, r3
 81027a2:	f003 0301 	and.w	r3, r3, #1
 81027a6:	2b00      	cmp	r3, #0
 81027a8:	d06e      	beq.n	8102888 <HAL_DMA_IRQHandler+0x32c>
    {
      if(__HAL_DMA_GET_IT_SOURCE(hdma, DMA_IT_FE) != 0U)
 81027aa:	687b      	ldr	r3, [r7, #4]
 81027ac:	681b      	ldr	r3, [r3, #0]
 81027ae:	4a69      	ldr	r2, [pc, #420]	; (8102954 <HAL_DMA_IRQHandler+0x3f8>)
 81027b0:	4293      	cmp	r3, r2
 81027b2:	d04a      	beq.n	810284a <HAL_DMA_IRQHandler+0x2ee>
 81027b4:	687b      	ldr	r3, [r7, #4]
 81027b6:	681b      	ldr	r3, [r3, #0]
 81027b8:	4a67      	ldr	r2, [pc, #412]	; (8102958 <HAL_DMA_IRQHandler+0x3fc>)
 81027ba:	4293      	cmp	r3, r2
 81027bc:	d045      	beq.n	810284a <HAL_DMA_IRQHandler+0x2ee>
 81027be:	687b      	ldr	r3, [r7, #4]
 81027c0:	681b      	ldr	r3, [r3, #0]
 81027c2:	4a66      	ldr	r2, [pc, #408]	; (810295c <HAL_DMA_IRQHandler+0x400>)
 81027c4:	4293      	cmp	r3, r2
 81027c6:	d040      	beq.n	810284a <HAL_DMA_IRQHandler+0x2ee>
 81027c8:	687b      	ldr	r3, [r7, #4]
 81027ca:	681b      	ldr	r3, [r3, #0]
 81027cc:	4a64      	ldr	r2, [pc, #400]	; (8102960 <HAL_DMA_IRQHandler+0x404>)
 81027ce:	4293      	cmp	r3, r2
 81027d0:	d03b      	beq.n	810284a <HAL_DMA_IRQHandler+0x2ee>
 81027d2:	687b      	ldr	r3, [r7, #4]
 81027d4:	681b      	ldr	r3, [r3, #0]
 81027d6:	4a63      	ldr	r2, [pc, #396]	; (8102964 <HAL_DMA_IRQHandler+0x408>)
 81027d8:	4293      	cmp	r3, r2
 81027da:	d036      	beq.n	810284a <HAL_DMA_IRQHandler+0x2ee>
 81027dc:	687b      	ldr	r3, [r7, #4]
 81027de:	681b      	ldr	r3, [r3, #0]
 81027e0:	4a61      	ldr	r2, [pc, #388]	; (8102968 <HAL_DMA_IRQHandler+0x40c>)
 81027e2:	4293      	cmp	r3, r2
 81027e4:	d031      	beq.n	810284a <HAL_DMA_IRQHandler+0x2ee>
 81027e6:	687b      	ldr	r3, [r7, #4]
 81027e8:	681b      	ldr	r3, [r3, #0]
 81027ea:	4a60      	ldr	r2, [pc, #384]	; (810296c <HAL_DMA_IRQHandler+0x410>)
 81027ec:	4293      	cmp	r3, r2
 81027ee:	d02c      	beq.n	810284a <HAL_DMA_IRQHandler+0x2ee>
 81027f0:	687b      	ldr	r3, [r7, #4]
 81027f2:	681b      	ldr	r3, [r3, #0]
 81027f4:	4a5e      	ldr	r2, [pc, #376]	; (8102970 <HAL_DMA_IRQHandler+0x414>)
 81027f6:	4293      	cmp	r3, r2
 81027f8:	d027      	beq.n	810284a <HAL_DMA_IRQHandler+0x2ee>
 81027fa:	687b      	ldr	r3, [r7, #4]
 81027fc:	681b      	ldr	r3, [r3, #0]
 81027fe:	4a5d      	ldr	r2, [pc, #372]	; (8102974 <HAL_DMA_IRQHandler+0x418>)
 8102800:	4293      	cmp	r3, r2
 8102802:	d022      	beq.n	810284a <HAL_DMA_IRQHandler+0x2ee>
 8102804:	687b      	ldr	r3, [r7, #4]
 8102806:	681b      	ldr	r3, [r3, #0]
 8102808:	4a5b      	ldr	r2, [pc, #364]	; (8102978 <HAL_DMA_IRQHandler+0x41c>)
 810280a:	4293      	cmp	r3, r2
 810280c:	d01d      	beq.n	810284a <HAL_DMA_IRQHandler+0x2ee>
 810280e:	687b      	ldr	r3, [r7, #4]
 8102810:	681b      	ldr	r3, [r3, #0]
 8102812:	4a5a      	ldr	r2, [pc, #360]	; (810297c <HAL_DMA_IRQHandler+0x420>)
 8102814:	4293      	cmp	r3, r2
 8102816:	d018      	beq.n	810284a <HAL_DMA_IRQHandler+0x2ee>
 8102818:	687b      	ldr	r3, [r7, #4]
 810281a:	681b      	ldr	r3, [r3, #0]
 810281c:	4a58      	ldr	r2, [pc, #352]	; (8102980 <HAL_DMA_IRQHandler+0x424>)
 810281e:	4293      	cmp	r3, r2
 8102820:	d013      	beq.n	810284a <HAL_DMA_IRQHandler+0x2ee>
 8102822:	687b      	ldr	r3, [r7, #4]
 8102824:	681b      	ldr	r3, [r3, #0]
 8102826:	4a57      	ldr	r2, [pc, #348]	; (8102984 <HAL_DMA_IRQHandler+0x428>)
 8102828:	4293      	cmp	r3, r2
 810282a:	d00e      	beq.n	810284a <HAL_DMA_IRQHandler+0x2ee>
 810282c:	687b      	ldr	r3, [r7, #4]
 810282e:	681b      	ldr	r3, [r3, #0]
 8102830:	4a55      	ldr	r2, [pc, #340]	; (8102988 <HAL_DMA_IRQHandler+0x42c>)
 8102832:	4293      	cmp	r3, r2
 8102834:	d009      	beq.n	810284a <HAL_DMA_IRQHandler+0x2ee>
 8102836:	687b      	ldr	r3, [r7, #4]
 8102838:	681b      	ldr	r3, [r3, #0]
 810283a:	4a54      	ldr	r2, [pc, #336]	; (810298c <HAL_DMA_IRQHandler+0x430>)
 810283c:	4293      	cmp	r3, r2
 810283e:	d004      	beq.n	810284a <HAL_DMA_IRQHandler+0x2ee>
 8102840:	687b      	ldr	r3, [r7, #4]
 8102842:	681b      	ldr	r3, [r3, #0]
 8102844:	4a52      	ldr	r2, [pc, #328]	; (8102990 <HAL_DMA_IRQHandler+0x434>)
 8102846:	4293      	cmp	r3, r2
 8102848:	d10a      	bne.n	8102860 <HAL_DMA_IRQHandler+0x304>
 810284a:	687b      	ldr	r3, [r7, #4]
 810284c:	681b      	ldr	r3, [r3, #0]
 810284e:	695b      	ldr	r3, [r3, #20]
 8102850:	f003 0380 	and.w	r3, r3, #128	; 0x80
 8102854:	2b00      	cmp	r3, #0
 8102856:	bf14      	ite	ne
 8102858:	2301      	movne	r3, #1
 810285a:	2300      	moveq	r3, #0
 810285c:	b2db      	uxtb	r3, r3
 810285e:	e003      	b.n	8102868 <HAL_DMA_IRQHandler+0x30c>
 8102860:	687b      	ldr	r3, [r7, #4]
 8102862:	681b      	ldr	r3, [r3, #0]
 8102864:	681b      	ldr	r3, [r3, #0]
 8102866:	2300      	movs	r3, #0
 8102868:	2b00      	cmp	r3, #0
 810286a:	d00d      	beq.n	8102888 <HAL_DMA_IRQHandler+0x32c>
      {
        /* Clear the FIFO error flag */
        regs_dma->IFCR = DMA_FLAG_FEIF0_4 << (hdma->StreamIndex & 0x1FU);
 810286c:	687b      	ldr	r3, [r7, #4]
 810286e:	6ddb      	ldr	r3, [r3, #92]	; 0x5c
 8102870:	f003 031f 	and.w	r3, r3, #31
 8102874:	2201      	movs	r2, #1
 8102876:	409a      	lsls	r2, r3
 8102878:	6a3b      	ldr	r3, [r7, #32]
 810287a:	609a      	str	r2, [r3, #8]

        /* Update error code */
        hdma->ErrorCode |= HAL_DMA_ERROR_FE;
 810287c:	687b      	ldr	r3, [r7, #4]
 810287e:	6d5b      	ldr	r3, [r3, #84]	; 0x54
 8102880:	f043 0202 	orr.w	r2, r3, #2
 8102884:	687b      	ldr	r3, [r7, #4]
 8102886:	655a      	str	r2, [r3, #84]	; 0x54
      }
    }
    /* Direct Mode Error Interrupt management ***********************************/
    if ((tmpisr_dma & (DMA_FLAG_DMEIF0_4 << (hdma->StreamIndex & 0x1FU))) != 0U)
 8102888:	687b      	ldr	r3, [r7, #4]
 810288a:	6ddb      	ldr	r3, [r3, #92]	; 0x5c
 810288c:	f003 031f 	and.w	r3, r3, #31
 8102890:	2204      	movs	r2, #4
 8102892:	409a      	lsls	r2, r3
 8102894:	69bb      	ldr	r3, [r7, #24]
 8102896:	4013      	ands	r3, r2
 8102898:	2b00      	cmp	r3, #0
 810289a:	f000 808f 	beq.w	81029bc <HAL_DMA_IRQHandler+0x460>
    {
      if(__HAL_DMA_GET_IT_SOURCE(hdma, DMA_IT_DME) != 0U)
 810289e:	687b      	ldr	r3, [r7, #4]
 81028a0:	681b      	ldr	r3, [r3, #0]
 81028a2:	4a2c      	ldr	r2, [pc, #176]	; (8102954 <HAL_DMA_IRQHandler+0x3f8>)
 81028a4:	4293      	cmp	r3, r2
 81028a6:	d04a      	beq.n	810293e <HAL_DMA_IRQHandler+0x3e2>
 81028a8:	687b      	ldr	r3, [r7, #4]
 81028aa:	681b      	ldr	r3, [r3, #0]
 81028ac:	4a2a      	ldr	r2, [pc, #168]	; (8102958 <HAL_DMA_IRQHandler+0x3fc>)
 81028ae:	4293      	cmp	r3, r2
 81028b0:	d045      	beq.n	810293e <HAL_DMA_IRQHandler+0x3e2>
 81028b2:	687b      	ldr	r3, [r7, #4]
 81028b4:	681b      	ldr	r3, [r3, #0]
 81028b6:	4a29      	ldr	r2, [pc, #164]	; (810295c <HAL_DMA_IRQHandler+0x400>)
 81028b8:	4293      	cmp	r3, r2
 81028ba:	d040      	beq.n	810293e <HAL_DMA_IRQHandler+0x3e2>
 81028bc:	687b      	ldr	r3, [r7, #4]
 81028be:	681b      	ldr	r3, [r3, #0]
 81028c0:	4a27      	ldr	r2, [pc, #156]	; (8102960 <HAL_DMA_IRQHandler+0x404>)
 81028c2:	4293      	cmp	r3, r2
 81028c4:	d03b      	beq.n	810293e <HAL_DMA_IRQHandler+0x3e2>
 81028c6:	687b      	ldr	r3, [r7, #4]
 81028c8:	681b      	ldr	r3, [r3, #0]
 81028ca:	4a26      	ldr	r2, [pc, #152]	; (8102964 <HAL_DMA_IRQHandler+0x408>)
 81028cc:	4293      	cmp	r3, r2
 81028ce:	d036      	beq.n	810293e <HAL_DMA_IRQHandler+0x3e2>
 81028d0:	687b      	ldr	r3, [r7, #4]
 81028d2:	681b      	ldr	r3, [r3, #0]
 81028d4:	4a24      	ldr	r2, [pc, #144]	; (8102968 <HAL_DMA_IRQHandler+0x40c>)
 81028d6:	4293      	cmp	r3, r2
 81028d8:	d031      	beq.n	810293e <HAL_DMA_IRQHandler+0x3e2>
 81028da:	687b      	ldr	r3, [r7, #4]
 81028dc:	681b      	ldr	r3, [r3, #0]
 81028de:	4a23      	ldr	r2, [pc, #140]	; (810296c <HAL_DMA_IRQHandler+0x410>)
 81028e0:	4293      	cmp	r3, r2
 81028e2:	d02c      	beq.n	810293e <HAL_DMA_IRQHandler+0x3e2>
 81028e4:	687b      	ldr	r3, [r7, #4]
 81028e6:	681b      	ldr	r3, [r3, #0]
 81028e8:	4a21      	ldr	r2, [pc, #132]	; (8102970 <HAL_DMA_IRQHandler+0x414>)
 81028ea:	4293      	cmp	r3, r2
 81028ec:	d027      	beq.n	810293e <HAL_DMA_IRQHandler+0x3e2>
 81028ee:	687b      	ldr	r3, [r7, #4]
 81028f0:	681b      	ldr	r3, [r3, #0]
 81028f2:	4a20      	ldr	r2, [pc, #128]	; (8102974 <HAL_DMA_IRQHandler+0x418>)
 81028f4:	4293      	cmp	r3, r2
 81028f6:	d022      	beq.n	810293e <HAL_DMA_IRQHandler+0x3e2>
 81028f8:	687b      	ldr	r3, [r7, #4]
 81028fa:	681b      	ldr	r3, [r3, #0]
 81028fc:	4a1e      	ldr	r2, [pc, #120]	; (8102978 <HAL_DMA_IRQHandler+0x41c>)
 81028fe:	4293      	cmp	r3, r2
 8102900:	d01d      	beq.n	810293e <HAL_DMA_IRQHandler+0x3e2>
 8102902:	687b      	ldr	r3, [r7, #4]
 8102904:	681b      	ldr	r3, [r3, #0]
 8102906:	4a1d      	ldr	r2, [pc, #116]	; (810297c <HAL_DMA_IRQHandler+0x420>)
 8102908:	4293      	cmp	r3, r2
 810290a:	d018      	beq.n	810293e <HAL_DMA_IRQHandler+0x3e2>
 810290c:	687b      	ldr	r3, [r7, #4]
 810290e:	681b      	ldr	r3, [r3, #0]
 8102910:	4a1b      	ldr	r2, [pc, #108]	; (8102980 <HAL_DMA_IRQHandler+0x424>)
 8102912:	4293      	cmp	r3, r2
 8102914:	d013      	beq.n	810293e <HAL_DMA_IRQHandler+0x3e2>
 8102916:	687b      	ldr	r3, [r7, #4]
 8102918:	681b      	ldr	r3, [r3, #0]
 810291a:	4a1a      	ldr	r2, [pc, #104]	; (8102984 <HAL_DMA_IRQHandler+0x428>)
 810291c:	4293      	cmp	r3, r2
 810291e:	d00e      	beq.n	810293e <HAL_DMA_IRQHandler+0x3e2>
 8102920:	687b      	ldr	r3, [r7, #4]
 8102922:	681b      	ldr	r3, [r3, #0]
 8102924:	4a18      	ldr	r2, [pc, #96]	; (8102988 <HAL_DMA_IRQHandler+0x42c>)
 8102926:	4293      	cmp	r3, r2
 8102928:	d009      	beq.n	810293e <HAL_DMA_IRQHandler+0x3e2>
 810292a:	687b      	ldr	r3, [r7, #4]
 810292c:	681b      	ldr	r3, [r3, #0]
 810292e:	4a17      	ldr	r2, [pc, #92]	; (810298c <HAL_DMA_IRQHandler+0x430>)
 8102930:	4293      	cmp	r3, r2
 8102932:	d004      	beq.n	810293e <HAL_DMA_IRQHandler+0x3e2>
 8102934:	687b      	ldr	r3, [r7, #4]
 8102936:	681b      	ldr	r3, [r3, #0]
 8102938:	4a15      	ldr	r2, [pc, #84]	; (8102990 <HAL_DMA_IRQHandler+0x434>)
 810293a:	4293      	cmp	r3, r2
 810293c:	d12a      	bne.n	8102994 <HAL_DMA_IRQHandler+0x438>
 810293e:	687b      	ldr	r3, [r7, #4]
 8102940:	681b      	ldr	r3, [r3, #0]
 8102942:	681b      	ldr	r3, [r3, #0]
 8102944:	f003 0302 	and.w	r3, r3, #2
 8102948:	2b00      	cmp	r3, #0
 810294a:	bf14      	ite	ne
 810294c:	2301      	movne	r3, #1
 810294e:	2300      	moveq	r3, #0
 8102950:	b2db      	uxtb	r3, r3
 8102952:	e023      	b.n	810299c <HAL_DMA_IRQHandler+0x440>
 8102954:	40020010 	.word	0x40020010
 8102958:	40020028 	.word	0x40020028
 810295c:	40020040 	.word	0x40020040
 8102960:	40020058 	.word	0x40020058
 8102964:	40020070 	.word	0x40020070
 8102968:	40020088 	.word	0x40020088
 810296c:	400200a0 	.word	0x400200a0
 8102970:	400200b8 	.word	0x400200b8
 8102974:	40020410 	.word	0x40020410
 8102978:	40020428 	.word	0x40020428
 810297c:	40020440 	.word	0x40020440
 8102980:	40020458 	.word	0x40020458
 8102984:	40020470 	.word	0x40020470
 8102988:	40020488 	.word	0x40020488
 810298c:	400204a0 	.word	0x400204a0
 8102990:	400204b8 	.word	0x400204b8
 8102994:	687b      	ldr	r3, [r7, #4]
 8102996:	681b      	ldr	r3, [r3, #0]
 8102998:	681b      	ldr	r3, [r3, #0]
 810299a:	2300      	movs	r3, #0
 810299c:	2b00      	cmp	r3, #0
 810299e:	d00d      	beq.n	81029bc <HAL_DMA_IRQHandler+0x460>
      {
        /* Clear the direct mode error flag */
        regs_dma->IFCR = DMA_FLAG_DMEIF0_4 << (hdma->StreamIndex & 0x1FU);
 81029a0:	687b      	ldr	r3, [r7, #4]
 81029a2:	6ddb      	ldr	r3, [r3, #92]	; 0x5c
 81029a4:	f003 031f 	and.w	r3, r3, #31
 81029a8:	2204      	movs	r2, #4
 81029aa:	409a      	lsls	r2, r3
 81029ac:	6a3b      	ldr	r3, [r7, #32]
 81029ae:	609a      	str	r2, [r3, #8]

        /* Update error code */
        hdma->ErrorCode |= HAL_DMA_ERROR_DME;
 81029b0:	687b      	ldr	r3, [r7, #4]
 81029b2:	6d5b      	ldr	r3, [r3, #84]	; 0x54
 81029b4:	f043 0204 	orr.w	r2, r3, #4
 81029b8:	687b      	ldr	r3, [r7, #4]
 81029ba:	655a      	str	r2, [r3, #84]	; 0x54
      }
    }
    /* Half Transfer Complete Interrupt management ******************************/
    if ((tmpisr_dma & (DMA_FLAG_HTIF0_4 << (hdma->StreamIndex & 0x1FU))) != 0U)
 81029bc:	687b      	ldr	r3, [r7, #4]
 81029be:	6ddb      	ldr	r3, [r3, #92]	; 0x5c
 81029c0:	f003 031f 	and.w	r3, r3, #31
 81029c4:	2210      	movs	r2, #16
 81029c6:	409a      	lsls	r2, r3
 81029c8:	69bb      	ldr	r3, [r7, #24]
 81029ca:	4013      	ands	r3, r2
 81029cc:	2b00      	cmp	r3, #0
 81029ce:	f000 80a6 	beq.w	8102b1e <HAL_DMA_IRQHandler+0x5c2>
    {
      if(__HAL_DMA_GET_IT_SOURCE(hdma, DMA_IT_HT) != 0U)
 81029d2:	687b      	ldr	r3, [r7, #4]
 81029d4:	681b      	ldr	r3, [r3, #0]
 81029d6:	4a85      	ldr	r2, [pc, #532]	; (8102bec <HAL_DMA_IRQHandler+0x690>)
 81029d8:	4293      	cmp	r3, r2
 81029da:	d04a      	beq.n	8102a72 <HAL_DMA_IRQHandler+0x516>
 81029dc:	687b      	ldr	r3, [r7, #4]
 81029de:	681b      	ldr	r3, [r3, #0]
 81029e0:	4a83      	ldr	r2, [pc, #524]	; (8102bf0 <HAL_DMA_IRQHandler+0x694>)
 81029e2:	4293      	cmp	r3, r2
 81029e4:	d045      	beq.n	8102a72 <HAL_DMA_IRQHandler+0x516>
 81029e6:	687b      	ldr	r3, [r7, #4]
 81029e8:	681b      	ldr	r3, [r3, #0]
 81029ea:	4a82      	ldr	r2, [pc, #520]	; (8102bf4 <HAL_DMA_IRQHandler+0x698>)
 81029ec:	4293      	cmp	r3, r2
 81029ee:	d040      	beq.n	8102a72 <HAL_DMA_IRQHandler+0x516>
 81029f0:	687b      	ldr	r3, [r7, #4]
 81029f2:	681b      	ldr	r3, [r3, #0]
 81029f4:	4a80      	ldr	r2, [pc, #512]	; (8102bf8 <HAL_DMA_IRQHandler+0x69c>)
 81029f6:	4293      	cmp	r3, r2
 81029f8:	d03b      	beq.n	8102a72 <HAL_DMA_IRQHandler+0x516>
 81029fa:	687b      	ldr	r3, [r7, #4]
 81029fc:	681b      	ldr	r3, [r3, #0]
 81029fe:	4a7f      	ldr	r2, [pc, #508]	; (8102bfc <HAL_DMA_IRQHandler+0x6a0>)
 8102a00:	4293      	cmp	r3, r2
 8102a02:	d036      	beq.n	8102a72 <HAL_DMA_IRQHandler+0x516>
 8102a04:	687b      	ldr	r3, [r7, #4]
 8102a06:	681b      	ldr	r3, [r3, #0]
 8102a08:	4a7d      	ldr	r2, [pc, #500]	; (8102c00 <HAL_DMA_IRQHandler+0x6a4>)
 8102a0a:	4293      	cmp	r3, r2
 8102a0c:	d031      	beq.n	8102a72 <HAL_DMA_IRQHandler+0x516>
 8102a0e:	687b      	ldr	r3, [r7, #4]
 8102a10:	681b      	ldr	r3, [r3, #0]
 8102a12:	4a7c      	ldr	r2, [pc, #496]	; (8102c04 <HAL_DMA_IRQHandler+0x6a8>)
 8102a14:	4293      	cmp	r3, r2
 8102a16:	d02c      	beq.n	8102a72 <HAL_DMA_IRQHandler+0x516>
 8102a18:	687b      	ldr	r3, [r7, #4]
 8102a1a:	681b      	ldr	r3, [r3, #0]
 8102a1c:	4a7a      	ldr	r2, [pc, #488]	; (8102c08 <HAL_DMA_IRQHandler+0x6ac>)
 8102a1e:	4293      	cmp	r3, r2
 8102a20:	d027      	beq.n	8102a72 <HAL_DMA_IRQHandler+0x516>
 8102a22:	687b      	ldr	r3, [r7, #4]
 8102a24:	681b      	ldr	r3, [r3, #0]
 8102a26:	4a79      	ldr	r2, [pc, #484]	; (8102c0c <HAL_DMA_IRQHandler+0x6b0>)
 8102a28:	4293      	cmp	r3, r2
 8102a2a:	d022      	beq.n	8102a72 <HAL_DMA_IRQHandler+0x516>
 8102a2c:	687b      	ldr	r3, [r7, #4]
 8102a2e:	681b      	ldr	r3, [r3, #0]
 8102a30:	4a77      	ldr	r2, [pc, #476]	; (8102c10 <HAL_DMA_IRQHandler+0x6b4>)
 8102a32:	4293      	cmp	r3, r2
 8102a34:	d01d      	beq.n	8102a72 <HAL_DMA_IRQHandler+0x516>
 8102a36:	687b      	ldr	r3, [r7, #4]
 8102a38:	681b      	ldr	r3, [r3, #0]
 8102a3a:	4a76      	ldr	r2, [pc, #472]	; (8102c14 <HAL_DMA_IRQHandler+0x6b8>)
 8102a3c:	4293      	cmp	r3, r2
 8102a3e:	d018      	beq.n	8102a72 <HAL_DMA_IRQHandler+0x516>
 8102a40:	687b      	ldr	r3, [r7, #4]
 8102a42:	681b      	ldr	r3, [r3, #0]
 8102a44:	4a74      	ldr	r2, [pc, #464]	; (8102c18 <HAL_DMA_IRQHandler+0x6bc>)
 8102a46:	4293      	cmp	r3, r2
 8102a48:	d013      	beq.n	8102a72 <HAL_DMA_IRQHandler+0x516>
 8102a4a:	687b      	ldr	r3, [r7, #4]
 8102a4c:	681b      	ldr	r3, [r3, #0]
 8102a4e:	4a73      	ldr	r2, [pc, #460]	; (8102c1c <HAL_DMA_IRQHandler+0x6c0>)
 8102a50:	4293      	cmp	r3, r2
 8102a52:	d00e      	beq.n	8102a72 <HAL_DMA_IRQHandler+0x516>
 8102a54:	687b      	ldr	r3, [r7, #4]
 8102a56:	681b      	ldr	r3, [r3, #0]
 8102a58:	4a71      	ldr	r2, [pc, #452]	; (8102c20 <HAL_DMA_IRQHandler+0x6c4>)
 8102a5a:	4293      	cmp	r3, r2
 8102a5c:	d009      	beq.n	8102a72 <HAL_DMA_IRQHandler+0x516>
 8102a5e:	687b      	ldr	r3, [r7, #4]
 8102a60:	681b      	ldr	r3, [r3, #0]
 8102a62:	4a70      	ldr	r2, [pc, #448]	; (8102c24 <HAL_DMA_IRQHandler+0x6c8>)
 8102a64:	4293      	cmp	r3, r2
 8102a66:	d004      	beq.n	8102a72 <HAL_DMA_IRQHandler+0x516>
 8102a68:	687b      	ldr	r3, [r7, #4]
 8102a6a:	681b      	ldr	r3, [r3, #0]
 8102a6c:	4a6e      	ldr	r2, [pc, #440]	; (8102c28 <HAL_DMA_IRQHandler+0x6cc>)
 8102a6e:	4293      	cmp	r3, r2
 8102a70:	d10a      	bne.n	8102a88 <HAL_DMA_IRQHandler+0x52c>
 8102a72:	687b      	ldr	r3, [r7, #4]
 8102a74:	681b      	ldr	r3, [r3, #0]
 8102a76:	681b      	ldr	r3, [r3, #0]
 8102a78:	f003 0308 	and.w	r3, r3, #8
 8102a7c:	2b00      	cmp	r3, #0
 8102a7e:	bf14      	ite	ne
 8102a80:	2301      	movne	r3, #1
 8102a82:	2300      	moveq	r3, #0
 8102a84:	b2db      	uxtb	r3, r3
 8102a86:	e009      	b.n	8102a9c <HAL_DMA_IRQHandler+0x540>
 8102a88:	687b      	ldr	r3, [r7, #4]
 8102a8a:	681b      	ldr	r3, [r3, #0]
 8102a8c:	681b      	ldr	r3, [r3, #0]
 8102a8e:	f003 0304 	and.w	r3, r3, #4
 8102a92:	2b00      	cmp	r3, #0
 8102a94:	bf14      	ite	ne
 8102a96:	2301      	movne	r3, #1
 8102a98:	2300      	moveq	r3, #0
 8102a9a:	b2db      	uxtb	r3, r3
 8102a9c:	2b00      	cmp	r3, #0
 8102a9e:	d03e      	beq.n	8102b1e <HAL_DMA_IRQHandler+0x5c2>
      {
        /* Clear the half transfer complete flag */
        regs_dma->IFCR = DMA_FLAG_HTIF0_4 << (hdma->StreamIndex & 0x1FU);
 8102aa0:	687b      	ldr	r3, [r7, #4]
 8102aa2:	6ddb      	ldr	r3, [r3, #92]	; 0x5c
 8102aa4:	f003 031f 	and.w	r3, r3, #31
 8102aa8:	2210      	movs	r2, #16
 8102aaa:	409a      	lsls	r2, r3
 8102aac:	6a3b      	ldr	r3, [r7, #32]
 8102aae:	609a      	str	r2, [r3, #8]

        /* Multi_Buffering mode enabled */
        if(((((DMA_Stream_TypeDef   *)hdma->Instance)->CR) & (uint32_t)(DMA_SxCR_DBM)) != 0U)
 8102ab0:	687b      	ldr	r3, [r7, #4]
 8102ab2:	681b      	ldr	r3, [r3, #0]
 8102ab4:	681b      	ldr	r3, [r3, #0]
 8102ab6:	f403 2380 	and.w	r3, r3, #262144	; 0x40000
 8102aba:	2b00      	cmp	r3, #0
 8102abc:	d018      	beq.n	8102af0 <HAL_DMA_IRQHandler+0x594>
        {
          /* Current memory buffer used is Memory 0 */
          if((((DMA_Stream_TypeDef   *)hdma->Instance)->CR & DMA_SxCR_CT) == 0U)
 8102abe:	687b      	ldr	r3, [r7, #4]
 8102ac0:	681b      	ldr	r3, [r3, #0]
 8102ac2:	681b      	ldr	r3, [r3, #0]
 8102ac4:	f403 2300 	and.w	r3, r3, #524288	; 0x80000
 8102ac8:	2b00      	cmp	r3, #0
 8102aca:	d108      	bne.n	8102ade <HAL_DMA_IRQHandler+0x582>
          {
            if(hdma->XferHalfCpltCallback != NULL)
 8102acc:	687b      	ldr	r3, [r7, #4]
 8102ace:	6c1b      	ldr	r3, [r3, #64]	; 0x40
 8102ad0:	2b00      	cmp	r3, #0
 8102ad2:	d024      	beq.n	8102b1e <HAL_DMA_IRQHandler+0x5c2>
            {
              /* Half transfer callback */
              hdma->XferHalfCpltCallback(hdma);
 8102ad4:	687b      	ldr	r3, [r7, #4]
 8102ad6:	6c1b      	ldr	r3, [r3, #64]	; 0x40
 8102ad8:	6878      	ldr	r0, [r7, #4]
 8102ada:	4798      	blx	r3
 8102adc:	e01f      	b.n	8102b1e <HAL_DMA_IRQHandler+0x5c2>
            }
          }
          /* Current memory buffer used is Memory 1 */
          else
          {
            if(hdma->XferM1HalfCpltCallback != NULL)
 8102ade:	687b      	ldr	r3, [r7, #4]
 8102ae0:	6c9b      	ldr	r3, [r3, #72]	; 0x48
 8102ae2:	2b00      	cmp	r3, #0
 8102ae4:	d01b      	beq.n	8102b1e <HAL_DMA_IRQHandler+0x5c2>
            {
              /* Half transfer callback */
              hdma->XferM1HalfCpltCallback(hdma);
 8102ae6:	687b      	ldr	r3, [r7, #4]
 8102ae8:	6c9b      	ldr	r3, [r3, #72]	; 0x48
 8102aea:	6878      	ldr	r0, [r7, #4]
 8102aec:	4798      	blx	r3
 8102aee:	e016      	b.n	8102b1e <HAL_DMA_IRQHandler+0x5c2>
          }
        }
        else
        {
          /* Disable the half transfer interrupt if the DMA mode is not CIRCULAR */
          if((((DMA_Stream_TypeDef   *)hdma->Instance)->CR & DMA_SxCR_CIRC) == 0U)
 8102af0:	687b      	ldr	r3, [r7, #4]
 8102af2:	681b      	ldr	r3, [r3, #0]
 8102af4:	681b      	ldr	r3, [r3, #0]
 8102af6:	f403 7380 	and.w	r3, r3, #256	; 0x100
 8102afa:	2b00      	cmp	r3, #0
 8102afc:	d107      	bne.n	8102b0e <HAL_DMA_IRQHandler+0x5b2>
          {
            /* Disable the half transfer interrupt */
            ((DMA_Stream_TypeDef   *)hdma->Instance)->CR  &= ~(DMA_IT_HT);
 8102afe:	687b      	ldr	r3, [r7, #4]
 8102b00:	681b      	ldr	r3, [r3, #0]
 8102b02:	681a      	ldr	r2, [r3, #0]
 8102b04:	687b      	ldr	r3, [r7, #4]
 8102b06:	681b      	ldr	r3, [r3, #0]
 8102b08:	f022 0208 	bic.w	r2, r2, #8
 8102b0c:	601a      	str	r2, [r3, #0]
          }

          if(hdma->XferHalfCpltCallback != NULL)
 8102b0e:	687b      	ldr	r3, [r7, #4]
 8102b10:	6c1b      	ldr	r3, [r3, #64]	; 0x40
 8102b12:	2b00      	cmp	r3, #0
 8102b14:	d003      	beq.n	8102b1e <HAL_DMA_IRQHandler+0x5c2>
          {
            /* Half transfer callback */
            hdma->XferHalfCpltCallback(hdma);
 8102b16:	687b      	ldr	r3, [r7, #4]
 8102b18:	6c1b      	ldr	r3, [r3, #64]	; 0x40
 8102b1a:	6878      	ldr	r0, [r7, #4]
 8102b1c:	4798      	blx	r3
          }
        }
      }
    }
    /* Transfer Complete Interrupt management ***********************************/
    if ((tmpisr_dma & (DMA_FLAG_TCIF0_4 << (hdma->StreamIndex & 0x1FU))) != 0U)
 8102b1e:	687b      	ldr	r3, [r7, #4]
 8102b20:	6ddb      	ldr	r3, [r3, #92]	; 0x5c
 8102b22:	f003 031f 	and.w	r3, r3, #31
 8102b26:	2220      	movs	r2, #32
 8102b28:	409a      	lsls	r2, r3
 8102b2a:	69bb      	ldr	r3, [r7, #24]
 8102b2c:	4013      	ands	r3, r2
 8102b2e:	2b00      	cmp	r3, #0
 8102b30:	f000 8110 	beq.w	8102d54 <HAL_DMA_IRQHandler+0x7f8>
    {
      if(__HAL_DMA_GET_IT_SOURCE(hdma, DMA_IT_TC) != 0U)
 8102b34:	687b      	ldr	r3, [r7, #4]
 8102b36:	681b      	ldr	r3, [r3, #0]
 8102b38:	4a2c      	ldr	r2, [pc, #176]	; (8102bec <HAL_DMA_IRQHandler+0x690>)
 8102b3a:	4293      	cmp	r3, r2
 8102b3c:	d04a      	beq.n	8102bd4 <HAL_DMA_IRQHandler+0x678>
 8102b3e:	687b      	ldr	r3, [r7, #4]
 8102b40:	681b      	ldr	r3, [r3, #0]
 8102b42:	4a2b      	ldr	r2, [pc, #172]	; (8102bf0 <HAL_DMA_IRQHandler+0x694>)
 8102b44:	4293      	cmp	r3, r2
 8102b46:	d045      	beq.n	8102bd4 <HAL_DMA_IRQHandler+0x678>
 8102b48:	687b      	ldr	r3, [r7, #4]
 8102b4a:	681b      	ldr	r3, [r3, #0]
 8102b4c:	4a29      	ldr	r2, [pc, #164]	; (8102bf4 <HAL_DMA_IRQHandler+0x698>)
 8102b4e:	4293      	cmp	r3, r2
 8102b50:	d040      	beq.n	8102bd4 <HAL_DMA_IRQHandler+0x678>
 8102b52:	687b      	ldr	r3, [r7, #4]
 8102b54:	681b      	ldr	r3, [r3, #0]
 8102b56:	4a28      	ldr	r2, [pc, #160]	; (8102bf8 <HAL_DMA_IRQHandler+0x69c>)
 8102b58:	4293      	cmp	r3, r2
 8102b5a:	d03b      	beq.n	8102bd4 <HAL_DMA_IRQHandler+0x678>
 8102b5c:	687b      	ldr	r3, [r7, #4]
 8102b5e:	681b      	ldr	r3, [r3, #0]
 8102b60:	4a26      	ldr	r2, [pc, #152]	; (8102bfc <HAL_DMA_IRQHandler+0x6a0>)
 8102b62:	4293      	cmp	r3, r2
 8102b64:	d036      	beq.n	8102bd4 <HAL_DMA_IRQHandler+0x678>
 8102b66:	687b      	ldr	r3, [r7, #4]
 8102b68:	681b      	ldr	r3, [r3, #0]
 8102b6a:	4a25      	ldr	r2, [pc, #148]	; (8102c00 <HAL_DMA_IRQHandler+0x6a4>)
 8102b6c:	4293      	cmp	r3, r2
 8102b6e:	d031      	beq.n	8102bd4 <HAL_DMA_IRQHandler+0x678>
 8102b70:	687b      	ldr	r3, [r7, #4]
 8102b72:	681b      	ldr	r3, [r3, #0]
 8102b74:	4a23      	ldr	r2, [pc, #140]	; (8102c04 <HAL_DMA_IRQHandler+0x6a8>)
 8102b76:	4293      	cmp	r3, r2
 8102b78:	d02c      	beq.n	8102bd4 <HAL_DMA_IRQHandler+0x678>
 8102b7a:	687b      	ldr	r3, [r7, #4]
 8102b7c:	681b      	ldr	r3, [r3, #0]
 8102b7e:	4a22      	ldr	r2, [pc, #136]	; (8102c08 <HAL_DMA_IRQHandler+0x6ac>)
 8102b80:	4293      	cmp	r3, r2
 8102b82:	d027      	beq.n	8102bd4 <HAL_DMA_IRQHandler+0x678>
 8102b84:	687b      	ldr	r3, [r7, #4]
 8102b86:	681b      	ldr	r3, [r3, #0]
 8102b88:	4a20      	ldr	r2, [pc, #128]	; (8102c0c <HAL_DMA_IRQHandler+0x6b0>)
 8102b8a:	4293      	cmp	r3, r2
 8102b8c:	d022      	beq.n	8102bd4 <HAL_DMA_IRQHandler+0x678>
 8102b8e:	687b      	ldr	r3, [r7, #4]
 8102b90:	681b      	ldr	r3, [r3, #0]
 8102b92:	4a1f      	ldr	r2, [pc, #124]	; (8102c10 <HAL_DMA_IRQHandler+0x6b4>)
 8102b94:	4293      	cmp	r3, r2
 8102b96:	d01d      	beq.n	8102bd4 <HAL_DMA_IRQHandler+0x678>
 8102b98:	687b      	ldr	r3, [r7, #4]
 8102b9a:	681b      	ldr	r3, [r3, #0]
 8102b9c:	4a1d      	ldr	r2, [pc, #116]	; (8102c14 <HAL_DMA_IRQHandler+0x6b8>)
 8102b9e:	4293      	cmp	r3, r2
 8102ba0:	d018      	beq.n	8102bd4 <HAL_DMA_IRQHandler+0x678>
 8102ba2:	687b      	ldr	r3, [r7, #4]
 8102ba4:	681b      	ldr	r3, [r3, #0]
 8102ba6:	4a1c      	ldr	r2, [pc, #112]	; (8102c18 <HAL_DMA_IRQHandler+0x6bc>)
 8102ba8:	4293      	cmp	r3, r2
 8102baa:	d013      	beq.n	8102bd4 <HAL_DMA_IRQHandler+0x678>
 8102bac:	687b      	ldr	r3, [r7, #4]
 8102bae:	681b      	ldr	r3, [r3, #0]
 8102bb0:	4a1a      	ldr	r2, [pc, #104]	; (8102c1c <HAL_DMA_IRQHandler+0x6c0>)
 8102bb2:	4293      	cmp	r3, r2
 8102bb4:	d00e      	beq.n	8102bd4 <HAL_DMA_IRQHandler+0x678>
 8102bb6:	687b      	ldr	r3, [r7, #4]
 8102bb8:	681b      	ldr	r3, [r3, #0]
 8102bba:	4a19      	ldr	r2, [pc, #100]	; (8102c20 <HAL_DMA_IRQHandler+0x6c4>)
 8102bbc:	4293      	cmp	r3, r2
 8102bbe:	d009      	beq.n	8102bd4 <HAL_DMA_IRQHandler+0x678>
 8102bc0:	687b      	ldr	r3, [r7, #4]
 8102bc2:	681b      	ldr	r3, [r3, #0]
 8102bc4:	4a17      	ldr	r2, [pc, #92]	; (8102c24 <HAL_DMA_IRQHandler+0x6c8>)
 8102bc6:	4293      	cmp	r3, r2
 8102bc8:	d004      	beq.n	8102bd4 <HAL_DMA_IRQHandler+0x678>
 8102bca:	687b      	ldr	r3, [r7, #4]
 8102bcc:	681b      	ldr	r3, [r3, #0]
 8102bce:	4a16      	ldr	r2, [pc, #88]	; (8102c28 <HAL_DMA_IRQHandler+0x6cc>)
 8102bd0:	4293      	cmp	r3, r2
 8102bd2:	d12b      	bne.n	8102c2c <HAL_DMA_IRQHandler+0x6d0>
 8102bd4:	687b      	ldr	r3, [r7, #4]
 8102bd6:	681b      	ldr	r3, [r3, #0]
 8102bd8:	681b      	ldr	r3, [r3, #0]
 8102bda:	f003 0310 	and.w	r3, r3, #16
 8102bde:	2b00      	cmp	r3, #0
 8102be0:	bf14      	ite	ne
 8102be2:	2301      	movne	r3, #1
 8102be4:	2300      	moveq	r3, #0
 8102be6:	b2db      	uxtb	r3, r3
 8102be8:	e02a      	b.n	8102c40 <HAL_DMA_IRQHandler+0x6e4>
 8102bea:	bf00      	nop
 8102bec:	40020010 	.word	0x40020010
 8102bf0:	40020028 	.word	0x40020028
 8102bf4:	40020040 	.word	0x40020040
 8102bf8:	40020058 	.word	0x40020058
 8102bfc:	40020070 	.word	0x40020070
 8102c00:	40020088 	.word	0x40020088
 8102c04:	400200a0 	.word	0x400200a0
 8102c08:	400200b8 	.word	0x400200b8
 8102c0c:	40020410 	.word	0x40020410
 8102c10:	40020428 	.word	0x40020428
 8102c14:	40020440 	.word	0x40020440
 8102c18:	40020458 	.word	0x40020458
 8102c1c:	40020470 	.word	0x40020470
 8102c20:	40020488 	.word	0x40020488
 8102c24:	400204a0 	.word	0x400204a0
 8102c28:	400204b8 	.word	0x400204b8
 8102c2c:	687b      	ldr	r3, [r7, #4]
 8102c2e:	681b      	ldr	r3, [r3, #0]
 8102c30:	681b      	ldr	r3, [r3, #0]
 8102c32:	f003 0302 	and.w	r3, r3, #2
 8102c36:	2b00      	cmp	r3, #0
 8102c38:	bf14      	ite	ne
 8102c3a:	2301      	movne	r3, #1
 8102c3c:	2300      	moveq	r3, #0
 8102c3e:	b2db      	uxtb	r3, r3
 8102c40:	2b00      	cmp	r3, #0
 8102c42:	f000 8087 	beq.w	8102d54 <HAL_DMA_IRQHandler+0x7f8>
      {
        /* Clear the transfer complete flag */
        regs_dma->IFCR = DMA_FLAG_TCIF0_4 << (hdma->StreamIndex & 0x1FU);
 8102c46:	687b      	ldr	r3, [r7, #4]
 8102c48:	6ddb      	ldr	r3, [r3, #92]	; 0x5c
 8102c4a:	f003 031f 	and.w	r3, r3, #31
 8102c4e:	2220      	movs	r2, #32
 8102c50:	409a      	lsls	r2, r3
 8102c52:	6a3b      	ldr	r3, [r7, #32]
 8102c54:	609a      	str	r2, [r3, #8]

        if(HAL_DMA_STATE_ABORT == hdma->State)
 8102c56:	687b      	ldr	r3, [r7, #4]
 8102c58:	f893 3035 	ldrb.w	r3, [r3, #53]	; 0x35
 8102c5c:	b2db      	uxtb	r3, r3
 8102c5e:	2b04      	cmp	r3, #4
 8102c60:	d139      	bne.n	8102cd6 <HAL_DMA_IRQHandler+0x77a>
        {
          /* Disable all the transfer interrupts */
          ((DMA_Stream_TypeDef   *)hdma->Instance)->CR  &= ~(DMA_IT_TC | DMA_IT_TE | DMA_IT_DME);
 8102c62:	687b      	ldr	r3, [r7, #4]
 8102c64:	681b      	ldr	r3, [r3, #0]
 8102c66:	681a      	ldr	r2, [r3, #0]
 8102c68:	687b      	ldr	r3, [r7, #4]
 8102c6a:	681b      	ldr	r3, [r3, #0]
 8102c6c:	f022 0216 	bic.w	r2, r2, #22
 8102c70:	601a      	str	r2, [r3, #0]
          ((DMA_Stream_TypeDef   *)hdma->Instance)->FCR &= ~(DMA_IT_FE);
 8102c72:	687b      	ldr	r3, [r7, #4]
 8102c74:	681b      	ldr	r3, [r3, #0]
 8102c76:	695a      	ldr	r2, [r3, #20]
 8102c78:	687b      	ldr	r3, [r7, #4]
 8102c7a:	681b      	ldr	r3, [r3, #0]
 8102c7c:	f022 0280 	bic.w	r2, r2, #128	; 0x80
 8102c80:	615a      	str	r2, [r3, #20]

          if((hdma->XferHalfCpltCallback != NULL) || (hdma->XferM1HalfCpltCallback != NULL))
 8102c82:	687b      	ldr	r3, [r7, #4]
 8102c84:	6c1b      	ldr	r3, [r3, #64]	; 0x40
 8102c86:	2b00      	cmp	r3, #0
 8102c88:	d103      	bne.n	8102c92 <HAL_DMA_IRQHandler+0x736>
 8102c8a:	687b      	ldr	r3, [r7, #4]
 8102c8c:	6c9b      	ldr	r3, [r3, #72]	; 0x48
 8102c8e:	2b00      	cmp	r3, #0
 8102c90:	d007      	beq.n	8102ca2 <HAL_DMA_IRQHandler+0x746>
          {
            ((DMA_Stream_TypeDef   *)hdma->Instance)->CR  &= ~(DMA_IT_HT);
 8102c92:	687b      	ldr	r3, [r7, #4]
 8102c94:	681b      	ldr	r3, [r3, #0]
 8102c96:	681a      	ldr	r2, [r3, #0]
 8102c98:	687b      	ldr	r3, [r7, #4]
 8102c9a:	681b      	ldr	r3, [r3, #0]
 8102c9c:	f022 0208 	bic.w	r2, r2, #8
 8102ca0:	601a      	str	r2, [r3, #0]
          }

          /* Clear all interrupt flags at correct offset within the register */
          regs_dma->IFCR = 0x3FUL << (hdma->StreamIndex & 0x1FU);
 8102ca2:	687b      	ldr	r3, [r7, #4]
 8102ca4:	6ddb      	ldr	r3, [r3, #92]	; 0x5c
 8102ca6:	f003 031f 	and.w	r3, r3, #31
 8102caa:	223f      	movs	r2, #63	; 0x3f
 8102cac:	409a      	lsls	r2, r3
 8102cae:	6a3b      	ldr	r3, [r7, #32]
 8102cb0:	609a      	str	r2, [r3, #8]

          /* Change the DMA state */
          hdma->State = HAL_DMA_STATE_READY;
 8102cb2:	687b      	ldr	r3, [r7, #4]
 8102cb4:	2201      	movs	r2, #1
 8102cb6:	f883 2035 	strb.w	r2, [r3, #53]	; 0x35

          /* Process Unlocked */
          __HAL_UNLOCK(hdma);
 8102cba:	687b      	ldr	r3, [r7, #4]
 8102cbc:	2200      	movs	r2, #0
 8102cbe:	f883 2034 	strb.w	r2, [r3, #52]	; 0x34

          if(hdma->XferAbortCallback != NULL)
 8102cc2:	687b      	ldr	r3, [r7, #4]
 8102cc4:	6d1b      	ldr	r3, [r3, #80]	; 0x50
 8102cc6:	2b00      	cmp	r3, #0
 8102cc8:	f000 834a 	beq.w	8103360 <HAL_DMA_IRQHandler+0xe04>
          {
            hdma->XferAbortCallback(hdma);
 8102ccc:	687b      	ldr	r3, [r7, #4]
 8102cce:	6d1b      	ldr	r3, [r3, #80]	; 0x50
 8102cd0:	6878      	ldr	r0, [r7, #4]
 8102cd2:	4798      	blx	r3
          }
          return;
 8102cd4:	e344      	b.n	8103360 <HAL_DMA_IRQHandler+0xe04>
        }

        if(((((DMA_Stream_TypeDef   *)hdma->Instance)->CR) & (uint32_t)(DMA_SxCR_DBM)) != 0U)
 8102cd6:	687b      	ldr	r3, [r7, #4]
 8102cd8:	681b      	ldr	r3, [r3, #0]
 8102cda:	681b      	ldr	r3, [r3, #0]
 8102cdc:	f403 2380 	and.w	r3, r3, #262144	; 0x40000
 8102ce0:	2b00      	cmp	r3, #0
 8102ce2:	d018      	beq.n	8102d16 <HAL_DMA_IRQHandler+0x7ba>
        {
          /* Current memory buffer used is Memory 0 */
          if((((DMA_Stream_TypeDef   *)hdma->Instance)->CR & DMA_SxCR_CT) == 0U)
 8102ce4:	687b      	ldr	r3, [r7, #4]
 8102ce6:	681b      	ldr	r3, [r3, #0]
 8102ce8:	681b      	ldr	r3, [r3, #0]
 8102cea:	f403 2300 	and.w	r3, r3, #524288	; 0x80000
 8102cee:	2b00      	cmp	r3, #0
 8102cf0:	d108      	bne.n	8102d04 <HAL_DMA_IRQHandler+0x7a8>
          {
            if(hdma->XferM1CpltCallback != NULL)
 8102cf2:	687b      	ldr	r3, [r7, #4]
 8102cf4:	6c5b      	ldr	r3, [r3, #68]	; 0x44
 8102cf6:	2b00      	cmp	r3, #0
 8102cf8:	d02c      	beq.n	8102d54 <HAL_DMA_IRQHandler+0x7f8>
            {
              /* Transfer complete Callback for memory1 */
              hdma->XferM1CpltCallback(hdma);
 8102cfa:	687b      	ldr	r3, [r7, #4]
 8102cfc:	6c5b      	ldr	r3, [r3, #68]	; 0x44
 8102cfe:	6878      	ldr	r0, [r7, #4]
 8102d00:	4798      	blx	r3
 8102d02:	e027      	b.n	8102d54 <HAL_DMA_IRQHandler+0x7f8>
            }
          }
          /* Current memory buffer used is Memory 1 */
          else
          {
            if(hdma->XferCpltCallback != NULL)
 8102d04:	687b      	ldr	r3, [r7, #4]
 8102d06:	6bdb      	ldr	r3, [r3, #60]	; 0x3c
 8102d08:	2b00      	cmp	r3, #0
 8102d0a:	d023      	beq.n	8102d54 <HAL_DMA_IRQHandler+0x7f8>
            {
              /* Transfer complete Callback for memory0 */
              hdma->XferCpltCallback(hdma);
 8102d0c:	687b      	ldr	r3, [r7, #4]
 8102d0e:	6bdb      	ldr	r3, [r3, #60]	; 0x3c
 8102d10:	6878      	ldr	r0, [r7, #4]
 8102d12:	4798      	blx	r3
 8102d14:	e01e      	b.n	8102d54 <HAL_DMA_IRQHandler+0x7f8>
          }
        }
        /* Disable the transfer complete interrupt if the DMA mode is not CIRCULAR */
        else
        {
          if((((DMA_Stream_TypeDef   *)hdma->Instance)->CR & DMA_SxCR_CIRC) == 0U)
 8102d16:	687b      	ldr	r3, [r7, #4]
 8102d18:	681b      	ldr	r3, [r3, #0]
 8102d1a:	681b      	ldr	r3, [r3, #0]
 8102d1c:	f403 7380 	and.w	r3, r3, #256	; 0x100
 8102d20:	2b00      	cmp	r3, #0
 8102d22:	d10f      	bne.n	8102d44 <HAL_DMA_IRQHandler+0x7e8>
          {
            /* Disable the transfer complete interrupt */
            ((DMA_Stream_TypeDef   *)hdma->Instance)->CR  &= ~(DMA_IT_TC);
 8102d24:	687b      	ldr	r3, [r7, #4]
 8102d26:	681b      	ldr	r3, [r3, #0]
 8102d28:	681a      	ldr	r2, [r3, #0]
 8102d2a:	687b      	ldr	r3, [r7, #4]
 8102d2c:	681b      	ldr	r3, [r3, #0]
 8102d2e:	f022 0210 	bic.w	r2, r2, #16
 8102d32:	601a      	str	r2, [r3, #0]

            /* Change the DMA state */
            hdma->State = HAL_DMA_STATE_READY;
 8102d34:	687b      	ldr	r3, [r7, #4]
 8102d36:	2201      	movs	r2, #1
 8102d38:	f883 2035 	strb.w	r2, [r3, #53]	; 0x35

            /* Process Unlocked */
            __HAL_UNLOCK(hdma);
 8102d3c:	687b      	ldr	r3, [r7, #4]
 8102d3e:	2200      	movs	r2, #0
 8102d40:	f883 2034 	strb.w	r2, [r3, #52]	; 0x34
          }

          if(hdma->XferCpltCallback != NULL)
 8102d44:	687b      	ldr	r3, [r7, #4]
 8102d46:	6bdb      	ldr	r3, [r3, #60]	; 0x3c
 8102d48:	2b00      	cmp	r3, #0
 8102d4a:	d003      	beq.n	8102d54 <HAL_DMA_IRQHandler+0x7f8>
          {
            /* Transfer complete callback */
            hdma->XferCpltCallback(hdma);
 8102d4c:	687b      	ldr	r3, [r7, #4]
 8102d4e:	6bdb      	ldr	r3, [r3, #60]	; 0x3c
 8102d50:	6878      	ldr	r0, [r7, #4]
 8102d52:	4798      	blx	r3
        }
      }
    }

    /* manage error case */
    if(hdma->ErrorCode != HAL_DMA_ERROR_NONE)
 8102d54:	687b      	ldr	r3, [r7, #4]
 8102d56:	6d5b      	ldr	r3, [r3, #84]	; 0x54
 8102d58:	2b00      	cmp	r3, #0
 8102d5a:	f000 8306 	beq.w	810336a <HAL_DMA_IRQHandler+0xe0e>
    {
      if((hdma->ErrorCode & HAL_DMA_ERROR_TE) != 0U)
 8102d5e:	687b      	ldr	r3, [r7, #4]
 8102d60:	6d5b      	ldr	r3, [r3, #84]	; 0x54
 8102d62:	f003 0301 	and.w	r3, r3, #1
 8102d66:	2b00      	cmp	r3, #0
 8102d68:	f000 8088 	beq.w	8102e7c <HAL_DMA_IRQHandler+0x920>
      {
        hdma->State = HAL_DMA_STATE_ABORT;
 8102d6c:	687b      	ldr	r3, [r7, #4]
 8102d6e:	2204      	movs	r2, #4
 8102d70:	f883 2035 	strb.w	r2, [r3, #53]	; 0x35

        /* Disable the stream */
        __HAL_DMA_DISABLE(hdma);
 8102d74:	687b      	ldr	r3, [r7, #4]
 8102d76:	681b      	ldr	r3, [r3, #0]
 8102d78:	4a7a      	ldr	r2, [pc, #488]	; (8102f64 <HAL_DMA_IRQHandler+0xa08>)
 8102d7a:	4293      	cmp	r3, r2
 8102d7c:	d04a      	beq.n	8102e14 <HAL_DMA_IRQHandler+0x8b8>
 8102d7e:	687b      	ldr	r3, [r7, #4]
 8102d80:	681b      	ldr	r3, [r3, #0]
 8102d82:	4a79      	ldr	r2, [pc, #484]	; (8102f68 <HAL_DMA_IRQHandler+0xa0c>)
 8102d84:	4293      	cmp	r3, r2
 8102d86:	d045      	beq.n	8102e14 <HAL_DMA_IRQHandler+0x8b8>
 8102d88:	687b      	ldr	r3, [r7, #4]
 8102d8a:	681b      	ldr	r3, [r3, #0]
 8102d8c:	4a77      	ldr	r2, [pc, #476]	; (8102f6c <HAL_DMA_IRQHandler+0xa10>)
 8102d8e:	4293      	cmp	r3, r2
 8102d90:	d040      	beq.n	8102e14 <HAL_DMA_IRQHandler+0x8b8>
 8102d92:	687b      	ldr	r3, [r7, #4]
 8102d94:	681b      	ldr	r3, [r3, #0]
 8102d96:	4a76      	ldr	r2, [pc, #472]	; (8102f70 <HAL_DMA_IRQHandler+0xa14>)
 8102d98:	4293      	cmp	r3, r2
 8102d9a:	d03b      	beq.n	8102e14 <HAL_DMA_IRQHandler+0x8b8>
 8102d9c:	687b      	ldr	r3, [r7, #4]
 8102d9e:	681b      	ldr	r3, [r3, #0]
 8102da0:	4a74      	ldr	r2, [pc, #464]	; (8102f74 <HAL_DMA_IRQHandler+0xa18>)
 8102da2:	4293      	cmp	r3, r2
 8102da4:	d036      	beq.n	8102e14 <HAL_DMA_IRQHandler+0x8b8>
 8102da6:	687b      	ldr	r3, [r7, #4]
 8102da8:	681b      	ldr	r3, [r3, #0]
 8102daa:	4a73      	ldr	r2, [pc, #460]	; (8102f78 <HAL_DMA_IRQHandler+0xa1c>)
 8102dac:	4293      	cmp	r3, r2
 8102dae:	d031      	beq.n	8102e14 <HAL_DMA_IRQHandler+0x8b8>
 8102db0:	687b      	ldr	r3, [r7, #4]
 8102db2:	681b      	ldr	r3, [r3, #0]
 8102db4:	4a71      	ldr	r2, [pc, #452]	; (8102f7c <HAL_DMA_IRQHandler+0xa20>)
 8102db6:	4293      	cmp	r3, r2
 8102db8:	d02c      	beq.n	8102e14 <HAL_DMA_IRQHandler+0x8b8>
 8102dba:	687b      	ldr	r3, [r7, #4]
 8102dbc:	681b      	ldr	r3, [r3, #0]
 8102dbe:	4a70      	ldr	r2, [pc, #448]	; (8102f80 <HAL_DMA_IRQHandler+0xa24>)
 8102dc0:	4293      	cmp	r3, r2
 8102dc2:	d027      	beq.n	8102e14 <HAL_DMA_IRQHandler+0x8b8>
 8102dc4:	687b      	ldr	r3, [r7, #4]
 8102dc6:	681b      	ldr	r3, [r3, #0]
 8102dc8:	4a6e      	ldr	r2, [pc, #440]	; (8102f84 <HAL_DMA_IRQHandler+0xa28>)
 8102dca:	4293      	cmp	r3, r2
 8102dcc:	d022      	beq.n	8102e14 <HAL_DMA_IRQHandler+0x8b8>
 8102dce:	687b      	ldr	r3, [r7, #4]
 8102dd0:	681b      	ldr	r3, [r3, #0]
 8102dd2:	4a6d      	ldr	r2, [pc, #436]	; (8102f88 <HAL_DMA_IRQHandler+0xa2c>)
 8102dd4:	4293      	cmp	r3, r2
 8102dd6:	d01d      	beq.n	8102e14 <HAL_DMA_IRQHandler+0x8b8>
 8102dd8:	687b      	ldr	r3, [r7, #4]
 8102dda:	681b      	ldr	r3, [r3, #0]
 8102ddc:	4a6b      	ldr	r2, [pc, #428]	; (8102f8c <HAL_DMA_IRQHandler+0xa30>)
 8102dde:	4293      	cmp	r3, r2
 8102de0:	d018      	beq.n	8102e14 <HAL_DMA_IRQHandler+0x8b8>
 8102de2:	687b      	ldr	r3, [r7, #4]
 8102de4:	681b      	ldr	r3, [r3, #0]
 8102de6:	4a6a      	ldr	r2, [pc, #424]	; (8102f90 <HAL_DMA_IRQHandler+0xa34>)
 8102de8:	4293      	cmp	r3, r2
 8102dea:	d013      	beq.n	8102e14 <HAL_DMA_IRQHandler+0x8b8>
 8102dec:	687b      	ldr	r3, [r7, #4]
 8102dee:	681b      	ldr	r3, [r3, #0]
 8102df0:	4a68      	ldr	r2, [pc, #416]	; (8102f94 <HAL_DMA_IRQHandler+0xa38>)
 8102df2:	4293      	cmp	r3, r2
 8102df4:	d00e      	beq.n	8102e14 <HAL_DMA_IRQHandler+0x8b8>
 8102df6:	687b      	ldr	r3, [r7, #4]
 8102df8:	681b      	ldr	r3, [r3, #0]
 8102dfa:	4a67      	ldr	r2, [pc, #412]	; (8102f98 <HAL_DMA_IRQHandler+0xa3c>)
 8102dfc:	4293      	cmp	r3, r2
 8102dfe:	d009      	beq.n	8102e14 <HAL_DMA_IRQHandler+0x8b8>
 8102e00:	687b      	ldr	r3, [r7, #4]
 8102e02:	681b      	ldr	r3, [r3, #0]
 8102e04:	4a65      	ldr	r2, [pc, #404]	; (8102f9c <HAL_DMA_IRQHandler+0xa40>)
 8102e06:	4293      	cmp	r3, r2
 8102e08:	d004      	beq.n	8102e14 <HAL_DMA_IRQHandler+0x8b8>
 8102e0a:	687b      	ldr	r3, [r7, #4]
 8102e0c:	681b      	ldr	r3, [r3, #0]
 8102e0e:	4a64      	ldr	r2, [pc, #400]	; (8102fa0 <HAL_DMA_IRQHandler+0xa44>)
 8102e10:	4293      	cmp	r3, r2
 8102e12:	d108      	bne.n	8102e26 <HAL_DMA_IRQHandler+0x8ca>
 8102e14:	687b      	ldr	r3, [r7, #4]
 8102e16:	681b      	ldr	r3, [r3, #0]
 8102e18:	681a      	ldr	r2, [r3, #0]
 8102e1a:	687b      	ldr	r3, [r7, #4]
 8102e1c:	681b      	ldr	r3, [r3, #0]
 8102e1e:	f022 0201 	bic.w	r2, r2, #1
 8102e22:	601a      	str	r2, [r3, #0]
 8102e24:	e007      	b.n	8102e36 <HAL_DMA_IRQHandler+0x8da>
 8102e26:	687b      	ldr	r3, [r7, #4]
 8102e28:	681b      	ldr	r3, [r3, #0]
 8102e2a:	681a      	ldr	r2, [r3, #0]
 8102e2c:	687b      	ldr	r3, [r7, #4]
 8102e2e:	681b      	ldr	r3, [r3, #0]
 8102e30:	f022 0201 	bic.w	r2, r2, #1
 8102e34:	601a      	str	r2, [r3, #0]

        do
        {
          if (++count > timeout)
 8102e36:	68fb      	ldr	r3, [r7, #12]
 8102e38:	3301      	adds	r3, #1
 8102e3a:	60fb      	str	r3, [r7, #12]
 8102e3c:	6a7a      	ldr	r2, [r7, #36]	; 0x24
 8102e3e:	429a      	cmp	r2, r3
 8102e40:	d307      	bcc.n	8102e52 <HAL_DMA_IRQHandler+0x8f6>
          {
            break;
          }
        }
        while((((DMA_Stream_TypeDef   *)hdma->Instance)->CR & DMA_SxCR_EN) != 0U);
 8102e42:	687b      	ldr	r3, [r7, #4]
 8102e44:	681b      	ldr	r3, [r3, #0]
 8102e46:	681b      	ldr	r3, [r3, #0]
 8102e48:	f003 0301 	and.w	r3, r3, #1
 8102e4c:	2b00      	cmp	r3, #0
 8102e4e:	d1f2      	bne.n	8102e36 <HAL_DMA_IRQHandler+0x8da>
 8102e50:	e000      	b.n	8102e54 <HAL_DMA_IRQHandler+0x8f8>
            break;
 8102e52:	bf00      	nop

        if((((DMA_Stream_TypeDef   *)hdma->Instance)->CR & DMA_SxCR_EN) != 0U)
 8102e54:	687b      	ldr	r3, [r7, #4]
 8102e56:	681b      	ldr	r3, [r3, #0]
 8102e58:	681b      	ldr	r3, [r3, #0]
 8102e5a:	f003 0301 	and.w	r3, r3, #1
 8102e5e:	2b00      	cmp	r3, #0
 8102e60:	d004      	beq.n	8102e6c <HAL_DMA_IRQHandler+0x910>
        {
          /* Change the DMA state to error if DMA disable fails */
          hdma->State = HAL_DMA_STATE_ERROR;
 8102e62:	687b      	ldr	r3, [r7, #4]
 8102e64:	2203      	movs	r2, #3
 8102e66:	f883 2035 	strb.w	r2, [r3, #53]	; 0x35
 8102e6a:	e003      	b.n	8102e74 <HAL_DMA_IRQHandler+0x918>
        }
        else
        {
          /* Change the DMA state to Ready if DMA disable success */
          hdma->State = HAL_DMA_STATE_READY;
 8102e6c:	687b      	ldr	r3, [r7, #4]
 8102e6e:	2201      	movs	r2, #1
 8102e70:	f883 2035 	strb.w	r2, [r3, #53]	; 0x35
        }

        /* Process Unlocked */
        __HAL_UNLOCK(hdma);
 8102e74:	687b      	ldr	r3, [r7, #4]
 8102e76:	2200      	movs	r2, #0
 8102e78:	f883 2034 	strb.w	r2, [r3, #52]	; 0x34
      }

      if(hdma->XferErrorCallback != NULL)
 8102e7c:	687b      	ldr	r3, [r7, #4]
 8102e7e:	6cdb      	ldr	r3, [r3, #76]	; 0x4c
 8102e80:	2b00      	cmp	r3, #0
 8102e82:	f000 8272 	beq.w	810336a <HAL_DMA_IRQHandler+0xe0e>
      {
        /* Transfer error callback */
        hdma->XferErrorCallback(hdma);
 8102e86:	687b      	ldr	r3, [r7, #4]
 8102e88:	6cdb      	ldr	r3, [r3, #76]	; 0x4c
 8102e8a:	6878      	ldr	r0, [r7, #4]
 8102e8c:	4798      	blx	r3
 8102e8e:	e26c      	b.n	810336a <HAL_DMA_IRQHandler+0xe0e>
      }
    }
  }
  else if(IS_BDMA_CHANNEL_INSTANCE(hdma->Instance) != 0U)  /* BDMA instance(s) */
 8102e90:	687b      	ldr	r3, [r7, #4]
 8102e92:	681b      	ldr	r3, [r3, #0]
 8102e94:	4a43      	ldr	r2, [pc, #268]	; (8102fa4 <HAL_DMA_IRQHandler+0xa48>)
 8102e96:	4293      	cmp	r3, r2
 8102e98:	d022      	beq.n	8102ee0 <HAL_DMA_IRQHandler+0x984>
 8102e9a:	687b      	ldr	r3, [r7, #4]
 8102e9c:	681b      	ldr	r3, [r3, #0]
 8102e9e:	4a42      	ldr	r2, [pc, #264]	; (8102fa8 <HAL_DMA_IRQHandler+0xa4c>)
 8102ea0:	4293      	cmp	r3, r2
 8102ea2:	d01d      	beq.n	8102ee0 <HAL_DMA_IRQHandler+0x984>
 8102ea4:	687b      	ldr	r3, [r7, #4]
 8102ea6:	681b      	ldr	r3, [r3, #0]
 8102ea8:	4a40      	ldr	r2, [pc, #256]	; (8102fac <HAL_DMA_IRQHandler+0xa50>)
 8102eaa:	4293      	cmp	r3, r2
 8102eac:	d018      	beq.n	8102ee0 <HAL_DMA_IRQHandler+0x984>
 8102eae:	687b      	ldr	r3, [r7, #4]
 8102eb0:	681b      	ldr	r3, [r3, #0]
 8102eb2:	4a3f      	ldr	r2, [pc, #252]	; (8102fb0 <HAL_DMA_IRQHandler+0xa54>)
 8102eb4:	4293      	cmp	r3, r2
 8102eb6:	d013      	beq.n	8102ee0 <HAL_DMA_IRQHandler+0x984>
 8102eb8:	687b      	ldr	r3, [r7, #4]
 8102eba:	681b      	ldr	r3, [r3, #0]
 8102ebc:	4a3d      	ldr	r2, [pc, #244]	; (8102fb4 <HAL_DMA_IRQHandler+0xa58>)
 8102ebe:	4293      	cmp	r3, r2
 8102ec0:	d00e      	beq.n	8102ee0 <HAL_DMA_IRQHandler+0x984>
 8102ec2:	687b      	ldr	r3, [r7, #4]
 8102ec4:	681b      	ldr	r3, [r3, #0]
 8102ec6:	4a3c      	ldr	r2, [pc, #240]	; (8102fb8 <HAL_DMA_IRQHandler+0xa5c>)
 8102ec8:	4293      	cmp	r3, r2
 8102eca:	d009      	beq.n	8102ee0 <HAL_DMA_IRQHandler+0x984>
 8102ecc:	687b      	ldr	r3, [r7, #4]
 8102ece:	681b      	ldr	r3, [r3, #0]
 8102ed0:	4a3a      	ldr	r2, [pc, #232]	; (8102fbc <HAL_DMA_IRQHandler+0xa60>)
 8102ed2:	4293      	cmp	r3, r2
 8102ed4:	d004      	beq.n	8102ee0 <HAL_DMA_IRQHandler+0x984>
 8102ed6:	687b      	ldr	r3, [r7, #4]
 8102ed8:	681b      	ldr	r3, [r3, #0]
 8102eda:	4a39      	ldr	r2, [pc, #228]	; (8102fc0 <HAL_DMA_IRQHandler+0xa64>)
 8102edc:	4293      	cmp	r3, r2
 8102ede:	d101      	bne.n	8102ee4 <HAL_DMA_IRQHandler+0x988>
 8102ee0:	2301      	movs	r3, #1
 8102ee2:	e000      	b.n	8102ee6 <HAL_DMA_IRQHandler+0x98a>
 8102ee4:	2300      	movs	r3, #0
 8102ee6:	2b00      	cmp	r3, #0
 8102ee8:	f000 823f 	beq.w	810336a <HAL_DMA_IRQHandler+0xe0e>
  {
    ccr_reg = (((BDMA_Channel_TypeDef   *)hdma->Instance)->CCR);
 8102eec:	687b      	ldr	r3, [r7, #4]
 8102eee:	681b      	ldr	r3, [r3, #0]
 8102ef0:	681b      	ldr	r3, [r3, #0]
 8102ef2:	613b      	str	r3, [r7, #16]

    /* Half Transfer Complete Interrupt management ******************************/
    if (((tmpisr_bdma & (BDMA_FLAG_HT0 << (hdma->StreamIndex & 0x1FU))) != 0U) && ((ccr_reg & BDMA_CCR_HTIE) != 0U))
 8102ef4:	687b      	ldr	r3, [r7, #4]
 8102ef6:	6ddb      	ldr	r3, [r3, #92]	; 0x5c
 8102ef8:	f003 031f 	and.w	r3, r3, #31
 8102efc:	2204      	movs	r2, #4
 8102efe:	409a      	lsls	r2, r3
 8102f00:	697b      	ldr	r3, [r7, #20]
 8102f02:	4013      	ands	r3, r2
 8102f04:	2b00      	cmp	r3, #0
 8102f06:	f000 80cd 	beq.w	81030a4 <HAL_DMA_IRQHandler+0xb48>
 8102f0a:	693b      	ldr	r3, [r7, #16]
 8102f0c:	f003 0304 	and.w	r3, r3, #4
 8102f10:	2b00      	cmp	r3, #0
 8102f12:	f000 80c7 	beq.w	81030a4 <HAL_DMA_IRQHandler+0xb48>
    {
      /* Clear the half transfer complete flag */
      regs_bdma->IFCR = (BDMA_ISR_HTIF0 << (hdma->StreamIndex & 0x1FU));
 8102f16:	687b      	ldr	r3, [r7, #4]
 8102f18:	6ddb      	ldr	r3, [r3, #92]	; 0x5c
 8102f1a:	f003 031f 	and.w	r3, r3, #31
 8102f1e:	2204      	movs	r2, #4
 8102f20:	409a      	lsls	r2, r3
 8102f22:	69fb      	ldr	r3, [r7, #28]
 8102f24:	605a      	str	r2, [r3, #4]

      /* Disable the transfer complete interrupt if the DMA mode is Double Buffering */
      if((ccr_reg & BDMA_CCR_DBM) != 0U)
 8102f26:	693b      	ldr	r3, [r7, #16]
 8102f28:	f403 4300 	and.w	r3, r3, #32768	; 0x8000
 8102f2c:	2b00      	cmp	r3, #0
 8102f2e:	d049      	beq.n	8102fc4 <HAL_DMA_IRQHandler+0xa68>
      {
        /* Current memory buffer used is Memory 0 */
        if((ccr_reg & BDMA_CCR_CT) == 0U)
 8102f30:	693b      	ldr	r3, [r7, #16]
 8102f32:	f403 3380 	and.w	r3, r3, #65536	; 0x10000
 8102f36:	2b00      	cmp	r3, #0
 8102f38:	d109      	bne.n	8102f4e <HAL_DMA_IRQHandler+0x9f2>
        {
          if(hdma->XferM1HalfCpltCallback != NULL)
 8102f3a:	687b      	ldr	r3, [r7, #4]
 8102f3c:	6c9b      	ldr	r3, [r3, #72]	; 0x48
 8102f3e:	2b00      	cmp	r3, #0
 8102f40:	f000 8210 	beq.w	8103364 <HAL_DMA_IRQHandler+0xe08>
          {
            /* Half transfer Callback for Memory 1 */
            hdma->XferM1HalfCpltCallback(hdma);
 8102f44:	687b      	ldr	r3, [r7, #4]
 8102f46:	6c9b      	ldr	r3, [r3, #72]	; 0x48
 8102f48:	6878      	ldr	r0, [r7, #4]
 8102f4a:	4798      	blx	r3
      if((ccr_reg & BDMA_CCR_DBM) != 0U)
 8102f4c:	e20a      	b.n	8103364 <HAL_DMA_IRQHandler+0xe08>
          }
        }
        /* Current memory buffer used is Memory 1 */
        else
        {
          if(hdma->XferHalfCpltCallback != NULL)
 8102f4e:	687b      	ldr	r3, [r7, #4]
 8102f50:	6c1b      	ldr	r3, [r3, #64]	; 0x40
 8102f52:	2b00      	cmp	r3, #0
 8102f54:	f000 8206 	beq.w	8103364 <HAL_DMA_IRQHandler+0xe08>
          {
            /* Half transfer Callback for Memory 0 */
            hdma->XferHalfCpltCallback(hdma);
 8102f58:	687b      	ldr	r3, [r7, #4]
 8102f5a:	6c1b      	ldr	r3, [r3, #64]	; 0x40
 8102f5c:	6878      	ldr	r0, [r7, #4]
 8102f5e:	4798      	blx	r3
      if((ccr_reg & BDMA_CCR_DBM) != 0U)
 8102f60:	e200      	b.n	8103364 <HAL_DMA_IRQHandler+0xe08>
 8102f62:	bf00      	nop
 8102f64:	40020010 	.word	0x40020010
 8102f68:	40020028 	.word	0x40020028
 8102f6c:	40020040 	.word	0x40020040
 8102f70:	40020058 	.word	0x40020058
 8102f74:	40020070 	.word	0x40020070
 8102f78:	40020088 	.word	0x40020088
 8102f7c:	400200a0 	.word	0x400200a0
 8102f80:	400200b8 	.word	0x400200b8
 8102f84:	40020410 	.word	0x40020410
 8102f88:	40020428 	.word	0x40020428
 8102f8c:	40020440 	.word	0x40020440
 8102f90:	40020458 	.word	0x40020458
 8102f94:	40020470 	.word	0x40020470
 8102f98:	40020488 	.word	0x40020488
 8102f9c:	400204a0 	.word	0x400204a0
 8102fa0:	400204b8 	.word	0x400204b8
 8102fa4:	58025408 	.word	0x58025408
 8102fa8:	5802541c 	.word	0x5802541c
 8102fac:	58025430 	.word	0x58025430
 8102fb0:	58025444 	.word	0x58025444
 8102fb4:	58025458 	.word	0x58025458
 8102fb8:	5802546c 	.word	0x5802546c
 8102fbc:	58025480 	.word	0x58025480
 8102fc0:	58025494 	.word	0x58025494
          }
        }
      }
      else
      {
        if((ccr_reg & BDMA_CCR_CIRC) == 0U)
 8102fc4:	693b      	ldr	r3, [r7, #16]
 8102fc6:	f003 0320 	and.w	r3, r3, #32
 8102fca:	2b00      	cmp	r3, #0
 8102fcc:	d160      	bne.n	8103090 <HAL_DMA_IRQHandler+0xb34>
        {
          /* Disable the half transfer interrupt */
          __HAL_DMA_DISABLE_IT(hdma, DMA_IT_HT);
 8102fce:	687b      	ldr	r3, [r7, #4]
 8102fd0:	681b      	ldr	r3, [r3, #0]
 8102fd2:	4a7f      	ldr	r2, [pc, #508]	; (81031d0 <HAL_DMA_IRQHandler+0xc74>)
 8102fd4:	4293      	cmp	r3, r2
 8102fd6:	d04a      	beq.n	810306e <HAL_DMA_IRQHandler+0xb12>
 8102fd8:	687b      	ldr	r3, [r7, #4]
 8102fda:	681b      	ldr	r3, [r3, #0]
 8102fdc:	4a7d      	ldr	r2, [pc, #500]	; (81031d4 <HAL_DMA_IRQHandler+0xc78>)
 8102fde:	4293      	cmp	r3, r2
 8102fe0:	d045      	beq.n	810306e <HAL_DMA_IRQHandler+0xb12>
 8102fe2:	687b      	ldr	r3, [r7, #4]
 8102fe4:	681b      	ldr	r3, [r3, #0]
 8102fe6:	4a7c      	ldr	r2, [pc, #496]	; (81031d8 <HAL_DMA_IRQHandler+0xc7c>)
 8102fe8:	4293      	cmp	r3, r2
 8102fea:	d040      	beq.n	810306e <HAL_DMA_IRQHandler+0xb12>
 8102fec:	687b      	ldr	r3, [r7, #4]
 8102fee:	681b      	ldr	r3, [r3, #0]
 8102ff0:	4a7a      	ldr	r2, [pc, #488]	; (81031dc <HAL_DMA_IRQHandler+0xc80>)
 8102ff2:	4293      	cmp	r3, r2
 8102ff4:	d03b      	beq.n	810306e <HAL_DMA_IRQHandler+0xb12>
 8102ff6:	687b      	ldr	r3, [r7, #4]
 8102ff8:	681b      	ldr	r3, [r3, #0]
 8102ffa:	4a79      	ldr	r2, [pc, #484]	; (81031e0 <HAL_DMA_IRQHandler+0xc84>)
 8102ffc:	4293      	cmp	r3, r2
 8102ffe:	d036      	beq.n	810306e <HAL_DMA_IRQHandler+0xb12>
 8103000:	687b      	ldr	r3, [r7, #4]
 8103002:	681b      	ldr	r3, [r3, #0]
 8103004:	4a77      	ldr	r2, [pc, #476]	; (81031e4 <HAL_DMA_IRQHandler+0xc88>)
 8103006:	4293      	cmp	r3, r2
 8103008:	d031      	beq.n	810306e <HAL_DMA_IRQHandler+0xb12>
 810300a:	687b      	ldr	r3, [r7, #4]
 810300c:	681b      	ldr	r3, [r3, #0]
 810300e:	4a76      	ldr	r2, [pc, #472]	; (81031e8 <HAL_DMA_IRQHandler+0xc8c>)
 8103010:	4293      	cmp	r3, r2
 8103012:	d02c      	beq.n	810306e <HAL_DMA_IRQHandler+0xb12>
 8103014:	687b      	ldr	r3, [r7, #4]
 8103016:	681b      	ldr	r3, [r3, #0]
 8103018:	4a74      	ldr	r2, [pc, #464]	; (81031ec <HAL_DMA_IRQHandler+0xc90>)
 810301a:	4293      	cmp	r3, r2
 810301c:	d027      	beq.n	810306e <HAL_DMA_IRQHandler+0xb12>
 810301e:	687b      	ldr	r3, [r7, #4]
 8103020:	681b      	ldr	r3, [r3, #0]
 8103022:	4a73      	ldr	r2, [pc, #460]	; (81031f0 <HAL_DMA_IRQHandler+0xc94>)
 8103024:	4293      	cmp	r3, r2
 8103026:	d022      	beq.n	810306e <HAL_DMA_IRQHandler+0xb12>
 8103028:	687b      	ldr	r3, [r7, #4]
 810302a:	681b      	ldr	r3, [r3, #0]
 810302c:	4a71      	ldr	r2, [pc, #452]	; (81031f4 <HAL_DMA_IRQHandler+0xc98>)
 810302e:	4293      	cmp	r3, r2
 8103030:	d01d      	beq.n	810306e <HAL_DMA_IRQHandler+0xb12>
 8103032:	687b      	ldr	r3, [r7, #4]
 8103034:	681b      	ldr	r3, [r3, #0]
 8103036:	4a70      	ldr	r2, [pc, #448]	; (81031f8 <HAL_DMA_IRQHandler+0xc9c>)
 8103038:	4293      	cmp	r3, r2
 810303a:	d018      	beq.n	810306e <HAL_DMA_IRQHandler+0xb12>
 810303c:	687b      	ldr	r3, [r7, #4]
 810303e:	681b      	ldr	r3, [r3, #0]
 8103040:	4a6e      	ldr	r2, [pc, #440]	; (81031fc <HAL_DMA_IRQHandler+0xca0>)
 8103042:	4293      	cmp	r3, r2
 8103044:	d013      	beq.n	810306e <HAL_DMA_IRQHandler+0xb12>
 8103046:	687b      	ldr	r3, [r7, #4]
 8103048:	681b      	ldr	r3, [r3, #0]
 810304a:	4a6d      	ldr	r2, [pc, #436]	; (8103200 <HAL_DMA_IRQHandler+0xca4>)
 810304c:	4293      	cmp	r3, r2
 810304e:	d00e      	beq.n	810306e <HAL_DMA_IRQHandler+0xb12>
 8103050:	687b      	ldr	r3, [r7, #4]
 8103052:	681b      	ldr	r3, [r3, #0]
 8103054:	4a6b      	ldr	r2, [pc, #428]	; (8103204 <HAL_DMA_IRQHandler+0xca8>)
 8103056:	4293      	cmp	r3, r2
 8103058:	d009      	beq.n	810306e <HAL_DMA_IRQHandler+0xb12>
 810305a:	687b      	ldr	r3, [r7, #4]
 810305c:	681b      	ldr	r3, [r3, #0]
 810305e:	4a6a      	ldr	r2, [pc, #424]	; (8103208 <HAL_DMA_IRQHandler+0xcac>)
 8103060:	4293      	cmp	r3, r2
 8103062:	d004      	beq.n	810306e <HAL_DMA_IRQHandler+0xb12>
 8103064:	687b      	ldr	r3, [r7, #4]
 8103066:	681b      	ldr	r3, [r3, #0]
 8103068:	4a68      	ldr	r2, [pc, #416]	; (810320c <HAL_DMA_IRQHandler+0xcb0>)
 810306a:	4293      	cmp	r3, r2
 810306c:	d108      	bne.n	8103080 <HAL_DMA_IRQHandler+0xb24>
 810306e:	687b      	ldr	r3, [r7, #4]
 8103070:	681b      	ldr	r3, [r3, #0]
 8103072:	681a      	ldr	r2, [r3, #0]
 8103074:	687b      	ldr	r3, [r7, #4]
 8103076:	681b      	ldr	r3, [r3, #0]
 8103078:	f022 0208 	bic.w	r2, r2, #8
 810307c:	601a      	str	r2, [r3, #0]
 810307e:	e007      	b.n	8103090 <HAL_DMA_IRQHandler+0xb34>
 8103080:	687b      	ldr	r3, [r7, #4]
 8103082:	681b      	ldr	r3, [r3, #0]
 8103084:	681a      	ldr	r2, [r3, #0]
 8103086:	687b      	ldr	r3, [r7, #4]
 8103088:	681b      	ldr	r3, [r3, #0]
 810308a:	f022 0204 	bic.w	r2, r2, #4
 810308e:	601a      	str	r2, [r3, #0]
        }

        /* DMA peripheral state is not updated in Half Transfer */
        /* but in Transfer Complete case */

       if(hdma->XferHalfCpltCallback != NULL)
 8103090:	687b      	ldr	r3, [r7, #4]
 8103092:	6c1b      	ldr	r3, [r3, #64]	; 0x40
 8103094:	2b00      	cmp	r3, #0
 8103096:	f000 8165 	beq.w	8103364 <HAL_DMA_IRQHandler+0xe08>
        {
          /* Half transfer callback */
          hdma->XferHalfCpltCallback(hdma);
 810309a:	687b      	ldr	r3, [r7, #4]
 810309c:	6c1b      	ldr	r3, [r3, #64]	; 0x40
 810309e:	6878      	ldr	r0, [r7, #4]
 81030a0:	4798      	blx	r3
      if((ccr_reg & BDMA_CCR_DBM) != 0U)
 81030a2:	e15f      	b.n	8103364 <HAL_DMA_IRQHandler+0xe08>
        }
      }
    }

    /* Transfer Complete Interrupt management ***********************************/
    else if (((tmpisr_bdma & (BDMA_FLAG_TC0 << (hdma->StreamIndex & 0x1FU))) != 0U) && ((ccr_reg & BDMA_CCR_TCIE) != 0U))
 81030a4:	687b      	ldr	r3, [r7, #4]
 81030a6:	6ddb      	ldr	r3, [r3, #92]	; 0x5c
 81030a8:	f003 031f 	and.w	r3, r3, #31
 81030ac:	2202      	movs	r2, #2
 81030ae:	409a      	lsls	r2, r3
 81030b0:	697b      	ldr	r3, [r7, #20]
 81030b2:	4013      	ands	r3, r2
 81030b4:	2b00      	cmp	r3, #0
 81030b6:	f000 80c5 	beq.w	8103244 <HAL_DMA_IRQHandler+0xce8>
 81030ba:	693b      	ldr	r3, [r7, #16]
 81030bc:	f003 0302 	and.w	r3, r3, #2
 81030c0:	2b00      	cmp	r3, #0
 81030c2:	f000 80bf 	beq.w	8103244 <HAL_DMA_IRQHandler+0xce8>
    {
      /* Clear the transfer complete flag */
      regs_bdma->IFCR = (BDMA_ISR_TCIF0) << (hdma->StreamIndex & 0x1FU);
 81030c6:	687b      	ldr	r3, [r7, #4]
 81030c8:	6ddb      	ldr	r3, [r3, #92]	; 0x5c
 81030ca:	f003 031f 	and.w	r3, r3, #31
 81030ce:	2202      	movs	r2, #2
 81030d0:	409a      	lsls	r2, r3
 81030d2:	69fb      	ldr	r3, [r7, #28]
 81030d4:	605a      	str	r2, [r3, #4]

      /* Disable the transfer complete interrupt if the DMA mode is Double Buffering */
      if((ccr_reg & BDMA_CCR_DBM) != 0U)
 81030d6:	693b      	ldr	r3, [r7, #16]
 81030d8:	f403 4300 	and.w	r3, r3, #32768	; 0x8000
 81030dc:	2b00      	cmp	r3, #0
 81030de:	d018      	beq.n	8103112 <HAL_DMA_IRQHandler+0xbb6>
      {
        /* Current memory buffer used is Memory 0 */
        if((ccr_reg & BDMA_CCR_CT) == 0U)
 81030e0:	693b      	ldr	r3, [r7, #16]
 81030e2:	f403 3380 	and.w	r3, r3, #65536	; 0x10000
 81030e6:	2b00      	cmp	r3, #0
 81030e8:	d109      	bne.n	81030fe <HAL_DMA_IRQHandler+0xba2>
        {
          if(hdma->XferM1CpltCallback != NULL)
 81030ea:	687b      	ldr	r3, [r7, #4]
 81030ec:	6c5b      	ldr	r3, [r3, #68]	; 0x44
 81030ee:	2b00      	cmp	r3, #0
 81030f0:	f000 813a 	beq.w	8103368 <HAL_DMA_IRQHandler+0xe0c>
          {
            /* Transfer complete Callback for Memory 1 */
            hdma->XferM1CpltCallback(hdma);
 81030f4:	687b      	ldr	r3, [r7, #4]
 81030f6:	6c5b      	ldr	r3, [r3, #68]	; 0x44
 81030f8:	6878      	ldr	r0, [r7, #4]
 81030fa:	4798      	blx	r3
      if((ccr_reg & BDMA_CCR_DBM) != 0U)
 81030fc:	e134      	b.n	8103368 <HAL_DMA_IRQHandler+0xe0c>
          }
        }
        /* Current memory buffer used is Memory 1 */
        else
        {
          if(hdma->XferCpltCallback != NULL)
 81030fe:	687b      	ldr	r3, [r7, #4]
 8103100:	6bdb      	ldr	r3, [r3, #60]	; 0x3c
 8103102:	2b00      	cmp	r3, #0
 8103104:	f000 8130 	beq.w	8103368 <HAL_DMA_IRQHandler+0xe0c>
          {
            /* Transfer complete Callback for Memory 0 */
            hdma->XferCpltCallback(hdma);
 8103108:	687b      	ldr	r3, [r7, #4]
 810310a:	6bdb      	ldr	r3, [r3, #60]	; 0x3c
 810310c:	6878      	ldr	r0, [r7, #4]
 810310e:	4798      	blx	r3
      if((ccr_reg & BDMA_CCR_DBM) != 0U)
 8103110:	e12a      	b.n	8103368 <HAL_DMA_IRQHandler+0xe0c>
          }
        }
      }
      else
      {
        if((ccr_reg & BDMA_CCR_CIRC) == 0U)
 8103112:	693b      	ldr	r3, [r7, #16]
 8103114:	f003 0320 	and.w	r3, r3, #32
 8103118:	2b00      	cmp	r3, #0
 810311a:	f040 8089 	bne.w	8103230 <HAL_DMA_IRQHandler+0xcd4>
        {
          /* Disable the transfer complete and error interrupt, if the DMA mode is not CIRCULAR */
          __HAL_DMA_DISABLE_IT(hdma, DMA_IT_TE | DMA_IT_TC);
 810311e:	687b      	ldr	r3, [r7, #4]
 8103120:	681b      	ldr	r3, [r3, #0]
 8103122:	4a2b      	ldr	r2, [pc, #172]	; (81031d0 <HAL_DMA_IRQHandler+0xc74>)
 8103124:	4293      	cmp	r3, r2
 8103126:	d04a      	beq.n	81031be <HAL_DMA_IRQHandler+0xc62>
 8103128:	687b      	ldr	r3, [r7, #4]
 810312a:	681b      	ldr	r3, [r3, #0]
 810312c:	4a29      	ldr	r2, [pc, #164]	; (81031d4 <HAL_DMA_IRQHandler+0xc78>)
 810312e:	4293      	cmp	r3, r2
 8103130:	d045      	beq.n	81031be <HAL_DMA_IRQHandler+0xc62>
 8103132:	687b      	ldr	r3, [r7, #4]
 8103134:	681b      	ldr	r3, [r3, #0]
 8103136:	4a28      	ldr	r2, [pc, #160]	; (81031d8 <HAL_DMA_IRQHandler+0xc7c>)
 8103138:	4293      	cmp	r3, r2
 810313a:	d040      	beq.n	81031be <HAL_DMA_IRQHandler+0xc62>
 810313c:	687b      	ldr	r3, [r7, #4]
 810313e:	681b      	ldr	r3, [r3, #0]
 8103140:	4a26      	ldr	r2, [pc, #152]	; (81031dc <HAL_DMA_IRQHandler+0xc80>)
 8103142:	4293      	cmp	r3, r2
 8103144:	d03b      	beq.n	81031be <HAL_DMA_IRQHandler+0xc62>
 8103146:	687b      	ldr	r3, [r7, #4]
 8103148:	681b      	ldr	r3, [r3, #0]
 810314a:	4a25      	ldr	r2, [pc, #148]	; (81031e0 <HAL_DMA_IRQHandler+0xc84>)
 810314c:	4293      	cmp	r3, r2
 810314e:	d036      	beq.n	81031be <HAL_DMA_IRQHandler+0xc62>
 8103150:	687b      	ldr	r3, [r7, #4]
 8103152:	681b      	ldr	r3, [r3, #0]
 8103154:	4a23      	ldr	r2, [pc, #140]	; (81031e4 <HAL_DMA_IRQHandler+0xc88>)
 8103156:	4293      	cmp	r3, r2
 8103158:	d031      	beq.n	81031be <HAL_DMA_IRQHandler+0xc62>
 810315a:	687b      	ldr	r3, [r7, #4]
 810315c:	681b      	ldr	r3, [r3, #0]
 810315e:	4a22      	ldr	r2, [pc, #136]	; (81031e8 <HAL_DMA_IRQHandler+0xc8c>)
 8103160:	4293      	cmp	r3, r2
 8103162:	d02c      	beq.n	81031be <HAL_DMA_IRQHandler+0xc62>
 8103164:	687b      	ldr	r3, [r7, #4]
 8103166:	681b      	ldr	r3, [r3, #0]
 8103168:	4a20      	ldr	r2, [pc, #128]	; (81031ec <HAL_DMA_IRQHandler+0xc90>)
 810316a:	4293      	cmp	r3, r2
 810316c:	d027      	beq.n	81031be <HAL_DMA_IRQHandler+0xc62>
 810316e:	687b      	ldr	r3, [r7, #4]
 8103170:	681b      	ldr	r3, [r3, #0]
 8103172:	4a1f      	ldr	r2, [pc, #124]	; (81031f0 <HAL_DMA_IRQHandler+0xc94>)
 8103174:	4293      	cmp	r3, r2
 8103176:	d022      	beq.n	81031be <HAL_DMA_IRQHandler+0xc62>
 8103178:	687b      	ldr	r3, [r7, #4]
 810317a:	681b      	ldr	r3, [r3, #0]
 810317c:	4a1d      	ldr	r2, [pc, #116]	; (81031f4 <HAL_DMA_IRQHandler+0xc98>)
 810317e:	4293      	cmp	r3, r2
 8103180:	d01d      	beq.n	81031be <HAL_DMA_IRQHandler+0xc62>
 8103182:	687b      	ldr	r3, [r7, #4]
 8103184:	681b      	ldr	r3, [r3, #0]
 8103186:	4a1c      	ldr	r2, [pc, #112]	; (81031f8 <HAL_DMA_IRQHandler+0xc9c>)
 8103188:	4293      	cmp	r3, r2
 810318a:	d018      	beq.n	81031be <HAL_DMA_IRQHandler+0xc62>
 810318c:	687b      	ldr	r3, [r7, #4]
 810318e:	681b      	ldr	r3, [r3, #0]
 8103190:	4a1a      	ldr	r2, [pc, #104]	; (81031fc <HAL_DMA_IRQHandler+0xca0>)
 8103192:	4293      	cmp	r3, r2
 8103194:	d013      	beq.n	81031be <HAL_DMA_IRQHandler+0xc62>
 8103196:	687b      	ldr	r3, [r7, #4]
 8103198:	681b      	ldr	r3, [r3, #0]
 810319a:	4a19      	ldr	r2, [pc, #100]	; (8103200 <HAL_DMA_IRQHandler+0xca4>)
 810319c:	4293      	cmp	r3, r2
 810319e:	d00e      	beq.n	81031be <HAL_DMA_IRQHandler+0xc62>
 81031a0:	687b      	ldr	r3, [r7, #4]
 81031a2:	681b      	ldr	r3, [r3, #0]
 81031a4:	4a17      	ldr	r2, [pc, #92]	; (8103204 <HAL_DMA_IRQHandler+0xca8>)
 81031a6:	4293      	cmp	r3, r2
 81031a8:	d009      	beq.n	81031be <HAL_DMA_IRQHandler+0xc62>
 81031aa:	687b      	ldr	r3, [r7, #4]
 81031ac:	681b      	ldr	r3, [r3, #0]
 81031ae:	4a16      	ldr	r2, [pc, #88]	; (8103208 <HAL_DMA_IRQHandler+0xcac>)
 81031b0:	4293      	cmp	r3, r2
 81031b2:	d004      	beq.n	81031be <HAL_DMA_IRQHandler+0xc62>
 81031b4:	687b      	ldr	r3, [r7, #4]
 81031b6:	681b      	ldr	r3, [r3, #0]
 81031b8:	4a14      	ldr	r2, [pc, #80]	; (810320c <HAL_DMA_IRQHandler+0xcb0>)
 81031ba:	4293      	cmp	r3, r2
 81031bc:	d128      	bne.n	8103210 <HAL_DMA_IRQHandler+0xcb4>
 81031be:	687b      	ldr	r3, [r7, #4]
 81031c0:	681b      	ldr	r3, [r3, #0]
 81031c2:	681a      	ldr	r2, [r3, #0]
 81031c4:	687b      	ldr	r3, [r7, #4]
 81031c6:	681b      	ldr	r3, [r3, #0]
 81031c8:	f022 0214 	bic.w	r2, r2, #20
 81031cc:	601a      	str	r2, [r3, #0]
 81031ce:	e027      	b.n	8103220 <HAL_DMA_IRQHandler+0xcc4>
 81031d0:	40020010 	.word	0x40020010
 81031d4:	40020028 	.word	0x40020028
 81031d8:	40020040 	.word	0x40020040
 81031dc:	40020058 	.word	0x40020058
 81031e0:	40020070 	.word	0x40020070
 81031e4:	40020088 	.word	0x40020088
 81031e8:	400200a0 	.word	0x400200a0
 81031ec:	400200b8 	.word	0x400200b8
 81031f0:	40020410 	.word	0x40020410
 81031f4:	40020428 	.word	0x40020428
 81031f8:	40020440 	.word	0x40020440
 81031fc:	40020458 	.word	0x40020458
 8103200:	40020470 	.word	0x40020470
 8103204:	40020488 	.word	0x40020488
 8103208:	400204a0 	.word	0x400204a0
 810320c:	400204b8 	.word	0x400204b8
 8103210:	687b      	ldr	r3, [r7, #4]
 8103212:	681b      	ldr	r3, [r3, #0]
 8103214:	681a      	ldr	r2, [r3, #0]
 8103216:	687b      	ldr	r3, [r7, #4]
 8103218:	681b      	ldr	r3, [r3, #0]
 810321a:	f022 020a 	bic.w	r2, r2, #10
 810321e:	601a      	str	r2, [r3, #0]

          /* Change the DMA state */
          hdma->State = HAL_DMA_STATE_READY;
 8103220:	687b      	ldr	r3, [r7, #4]
 8103222:	2201      	movs	r2, #1
 8103224:	f883 2035 	strb.w	r2, [r3, #53]	; 0x35

          /* Process Unlocked */
          __HAL_UNLOCK(hdma);
 8103228:	687b      	ldr	r3, [r7, #4]
 810322a:	2200      	movs	r2, #0
 810322c:	f883 2034 	strb.w	r2, [r3, #52]	; 0x34
        }

        if(hdma->XferCpltCallback != NULL)
 8103230:	687b      	ldr	r3, [r7, #4]
 8103232:	6bdb      	ldr	r3, [r3, #60]	; 0x3c
 8103234:	2b00      	cmp	r3, #0
 8103236:	f000 8097 	beq.w	8103368 <HAL_DMA_IRQHandler+0xe0c>
        {
          /* Transfer complete callback */
          hdma->XferCpltCallback(hdma);
 810323a:	687b      	ldr	r3, [r7, #4]
 810323c:	6bdb      	ldr	r3, [r3, #60]	; 0x3c
 810323e:	6878      	ldr	r0, [r7, #4]
 8103240:	4798      	blx	r3
      if((ccr_reg & BDMA_CCR_DBM) != 0U)
 8103242:	e091      	b.n	8103368 <HAL_DMA_IRQHandler+0xe0c>
        }
      }
    }
    /* Transfer Error Interrupt management **************************************/
    else if (((tmpisr_bdma & (BDMA_FLAG_TE0 << (hdma->StreamIndex & 0x1FU))) != 0U) && ((ccr_reg & BDMA_CCR_TEIE) != 0U))
 8103244:	687b      	ldr	r3, [r7, #4]
 8103246:	6ddb      	ldr	r3, [r3, #92]	; 0x5c
 8103248:	f003 031f 	and.w	r3, r3, #31
 810324c:	2208      	movs	r2, #8
 810324e:	409a      	lsls	r2, r3
 8103250:	697b      	ldr	r3, [r7, #20]
 8103252:	4013      	ands	r3, r2
 8103254:	2b00      	cmp	r3, #0
 8103256:	f000 8088 	beq.w	810336a <HAL_DMA_IRQHandler+0xe0e>
 810325a:	693b      	ldr	r3, [r7, #16]
 810325c:	f003 0308 	and.w	r3, r3, #8
 8103260:	2b00      	cmp	r3, #0
 8103262:	f000 8082 	beq.w	810336a <HAL_DMA_IRQHandler+0xe0e>
    {
      /* When a DMA transfer error occurs */
      /* A hardware clear of its EN bits is performed */
      /* Disable ALL DMA IT */
      __HAL_DMA_DISABLE_IT(hdma, (DMA_IT_TC | DMA_IT_HT | DMA_IT_TE));
 8103266:	687b      	ldr	r3, [r7, #4]
 8103268:	681b      	ldr	r3, [r3, #0]
 810326a:	4a41      	ldr	r2, [pc, #260]	; (8103370 <HAL_DMA_IRQHandler+0xe14>)
 810326c:	4293      	cmp	r3, r2
 810326e:	d04a      	beq.n	8103306 <HAL_DMA_IRQHandler+0xdaa>
 8103270:	687b      	ldr	r3, [r7, #4]
 8103272:	681b      	ldr	r3, [r3, #0]
 8103274:	4a3f      	ldr	r2, [pc, #252]	; (8103374 <HAL_DMA_IRQHandler+0xe18>)
 8103276:	4293      	cmp	r3, r2
 8103278:	d045      	beq.n	8103306 <HAL_DMA_IRQHandler+0xdaa>
 810327a:	687b      	ldr	r3, [r7, #4]
 810327c:	681b      	ldr	r3, [r3, #0]
 810327e:	4a3e      	ldr	r2, [pc, #248]	; (8103378 <HAL_DMA_IRQHandler+0xe1c>)
 8103280:	4293      	cmp	r3, r2
 8103282:	d040      	beq.n	8103306 <HAL_DMA_IRQHandler+0xdaa>
 8103284:	687b      	ldr	r3, [r7, #4]
 8103286:	681b      	ldr	r3, [r3, #0]
 8103288:	4a3c      	ldr	r2, [pc, #240]	; (810337c <HAL_DMA_IRQHandler+0xe20>)
 810328a:	4293      	cmp	r3, r2
 810328c:	d03b      	beq.n	8103306 <HAL_DMA_IRQHandler+0xdaa>
 810328e:	687b      	ldr	r3, [r7, #4]
 8103290:	681b      	ldr	r3, [r3, #0]
 8103292:	4a3b      	ldr	r2, [pc, #236]	; (8103380 <HAL_DMA_IRQHandler+0xe24>)
 8103294:	4293      	cmp	r3, r2
 8103296:	d036      	beq.n	8103306 <HAL_DMA_IRQHandler+0xdaa>
 8103298:	687b      	ldr	r3, [r7, #4]
 810329a:	681b      	ldr	r3, [r3, #0]
 810329c:	4a39      	ldr	r2, [pc, #228]	; (8103384 <HAL_DMA_IRQHandler+0xe28>)
 810329e:	4293      	cmp	r3, r2
 81032a0:	d031      	beq.n	8103306 <HAL_DMA_IRQHandler+0xdaa>
 81032a2:	687b      	ldr	r3, [r7, #4]
 81032a4:	681b      	ldr	r3, [r3, #0]
 81032a6:	4a38      	ldr	r2, [pc, #224]	; (8103388 <HAL_DMA_IRQHandler+0xe2c>)
 81032a8:	4293      	cmp	r3, r2
 81032aa:	d02c      	beq.n	8103306 <HAL_DMA_IRQHandler+0xdaa>
 81032ac:	687b      	ldr	r3, [r7, #4]
 81032ae:	681b      	ldr	r3, [r3, #0]
 81032b0:	4a36      	ldr	r2, [pc, #216]	; (810338c <HAL_DMA_IRQHandler+0xe30>)
 81032b2:	4293      	cmp	r3, r2
 81032b4:	d027      	beq.n	8103306 <HAL_DMA_IRQHandler+0xdaa>
 81032b6:	687b      	ldr	r3, [r7, #4]
 81032b8:	681b      	ldr	r3, [r3, #0]
 81032ba:	4a35      	ldr	r2, [pc, #212]	; (8103390 <HAL_DMA_IRQHandler+0xe34>)
 81032bc:	4293      	cmp	r3, r2
 81032be:	d022      	beq.n	8103306 <HAL_DMA_IRQHandler+0xdaa>
 81032c0:	687b      	ldr	r3, [r7, #4]
 81032c2:	681b      	ldr	r3, [r3, #0]
 81032c4:	4a33      	ldr	r2, [pc, #204]	; (8103394 <HAL_DMA_IRQHandler+0xe38>)
 81032c6:	4293      	cmp	r3, r2
 81032c8:	d01d      	beq.n	8103306 <HAL_DMA_IRQHandler+0xdaa>
 81032ca:	687b      	ldr	r3, [r7, #4]
 81032cc:	681b      	ldr	r3, [r3, #0]
 81032ce:	4a32      	ldr	r2, [pc, #200]	; (8103398 <HAL_DMA_IRQHandler+0xe3c>)
 81032d0:	4293      	cmp	r3, r2
 81032d2:	d018      	beq.n	8103306 <HAL_DMA_IRQHandler+0xdaa>
 81032d4:	687b      	ldr	r3, [r7, #4]
 81032d6:	681b      	ldr	r3, [r3, #0]
 81032d8:	4a30      	ldr	r2, [pc, #192]	; (810339c <HAL_DMA_IRQHandler+0xe40>)
 81032da:	4293      	cmp	r3, r2
 81032dc:	d013      	beq.n	8103306 <HAL_DMA_IRQHandler+0xdaa>
 81032de:	687b      	ldr	r3, [r7, #4]
 81032e0:	681b      	ldr	r3, [r3, #0]
 81032e2:	4a2f      	ldr	r2, [pc, #188]	; (81033a0 <HAL_DMA_IRQHandler+0xe44>)
 81032e4:	4293      	cmp	r3, r2
 81032e6:	d00e      	beq.n	8103306 <HAL_DMA_IRQHandler+0xdaa>
 81032e8:	687b      	ldr	r3, [r7, #4]
 81032ea:	681b      	ldr	r3, [r3, #0]
 81032ec:	4a2d      	ldr	r2, [pc, #180]	; (81033a4 <HAL_DMA_IRQHandler+0xe48>)
 81032ee:	4293      	cmp	r3, r2
 81032f0:	d009      	beq.n	8103306 <HAL_DMA_IRQHandler+0xdaa>
 81032f2:	687b      	ldr	r3, [r7, #4]
 81032f4:	681b      	ldr	r3, [r3, #0]
 81032f6:	4a2c      	ldr	r2, [pc, #176]	; (81033a8 <HAL_DMA_IRQHandler+0xe4c>)
 81032f8:	4293      	cmp	r3, r2
 81032fa:	d004      	beq.n	8103306 <HAL_DMA_IRQHandler+0xdaa>
 81032fc:	687b      	ldr	r3, [r7, #4]
 81032fe:	681b      	ldr	r3, [r3, #0]
 8103300:	4a2a      	ldr	r2, [pc, #168]	; (81033ac <HAL_DMA_IRQHandler+0xe50>)
 8103302:	4293      	cmp	r3, r2
 8103304:	d108      	bne.n	8103318 <HAL_DMA_IRQHandler+0xdbc>
 8103306:	687b      	ldr	r3, [r7, #4]
 8103308:	681b      	ldr	r3, [r3, #0]
 810330a:	681a      	ldr	r2, [r3, #0]
 810330c:	687b      	ldr	r3, [r7, #4]
 810330e:	681b      	ldr	r3, [r3, #0]
 8103310:	f022 021c 	bic.w	r2, r2, #28
 8103314:	601a      	str	r2, [r3, #0]
 8103316:	e007      	b.n	8103328 <HAL_DMA_IRQHandler+0xdcc>
 8103318:	687b      	ldr	r3, [r7, #4]
 810331a:	681b      	ldr	r3, [r3, #0]
 810331c:	681a      	ldr	r2, [r3, #0]
 810331e:	687b      	ldr	r3, [r7, #4]
 8103320:	681b      	ldr	r3, [r3, #0]
 8103322:	f022 020e 	bic.w	r2, r2, #14
 8103326:	601a      	str	r2, [r3, #0]

      /* Clear all flags */
      regs_bdma->IFCR = (BDMA_ISR_GIF0) << (hdma->StreamIndex & 0x1FU);
 8103328:	687b      	ldr	r3, [r7, #4]
 810332a:	6ddb      	ldr	r3, [r3, #92]	; 0x5c
 810332c:	f003 031f 	and.w	r3, r3, #31
 8103330:	2201      	movs	r2, #1
 8103332:	409a      	lsls	r2, r3
 8103334:	69fb      	ldr	r3, [r7, #28]
 8103336:	605a      	str	r2, [r3, #4]

      /* Update error code */
      hdma->ErrorCode = HAL_DMA_ERROR_TE;
 8103338:	687b      	ldr	r3, [r7, #4]
 810333a:	2201      	movs	r2, #1
 810333c:	655a      	str	r2, [r3, #84]	; 0x54

      /* Change the DMA state */
      hdma->State = HAL_DMA_STATE_READY;
 810333e:	687b      	ldr	r3, [r7, #4]
 8103340:	2201      	movs	r2, #1
 8103342:	f883 2035 	strb.w	r2, [r3, #53]	; 0x35

      /* Process Unlocked */
      __HAL_UNLOCK(hdma);
 8103346:	687b      	ldr	r3, [r7, #4]
 8103348:	2200      	movs	r2, #0
 810334a:	f883 2034 	strb.w	r2, [r3, #52]	; 0x34

      if (hdma->XferErrorCallback != NULL)
 810334e:	687b      	ldr	r3, [r7, #4]
 8103350:	6cdb      	ldr	r3, [r3, #76]	; 0x4c
 8103352:	2b00      	cmp	r3, #0
 8103354:	d009      	beq.n	810336a <HAL_DMA_IRQHandler+0xe0e>
      {
        /* Transfer error callback */
        hdma->XferErrorCallback(hdma);
 8103356:	687b      	ldr	r3, [r7, #4]
 8103358:	6cdb      	ldr	r3, [r3, #76]	; 0x4c
 810335a:	6878      	ldr	r0, [r7, #4]
 810335c:	4798      	blx	r3
 810335e:	e004      	b.n	810336a <HAL_DMA_IRQHandler+0xe0e>
          return;
 8103360:	bf00      	nop
 8103362:	e002      	b.n	810336a <HAL_DMA_IRQHandler+0xe0e>
      if((ccr_reg & BDMA_CCR_DBM) != 0U)
 8103364:	bf00      	nop
 8103366:	e000      	b.n	810336a <HAL_DMA_IRQHandler+0xe0e>
      if((ccr_reg & BDMA_CCR_DBM) != 0U)
 8103368:	bf00      	nop
  }
  else
  {
    /* Nothing To Do */
  }
}
 810336a:	3728      	adds	r7, #40	; 0x28
 810336c:	46bd      	mov	sp, r7
 810336e:	bd80      	pop	{r7, pc}
 8103370:	40020010 	.word	0x40020010
 8103374:	40020028 	.word	0x40020028
 8103378:	40020040 	.word	0x40020040
 810337c:	40020058 	.word	0x40020058
 8103380:	40020070 	.word	0x40020070
 8103384:	40020088 	.word	0x40020088
 8103388:	400200a0 	.word	0x400200a0
 810338c:	400200b8 	.word	0x400200b8
 8103390:	40020410 	.word	0x40020410
 8103394:	40020428 	.word	0x40020428
 8103398:	40020440 	.word	0x40020440
 810339c:	40020458 	.word	0x40020458
 81033a0:	40020470 	.word	0x40020470
 81033a4:	40020488 	.word	0x40020488
 81033a8:	400204a0 	.word	0x400204a0
 81033ac:	400204b8 	.word	0x400204b8

081033b0 <DMA_CalcBaseAndBitshift>:
  * @param  hdma:       pointer to a DMA_HandleTypeDef structure that contains
  *                     the configuration information for the specified DMA Stream.
  * @retval Stream base address
  */
static uint32_t DMA_CalcBaseAndBitshift(DMA_HandleTypeDef *hdma)
{
 81033b0:	b480      	push	{r7}
 81033b2:	b085      	sub	sp, #20
 81033b4:	af00      	add	r7, sp, #0
 81033b6:	6078      	str	r0, [r7, #4]
  if(IS_DMA_STREAM_INSTANCE(hdma->Instance) != 0U) /* DMA1 or DMA2 instance */
 81033b8:	687b      	ldr	r3, [r7, #4]
 81033ba:	681b      	ldr	r3, [r3, #0]
 81033bc:	4a43      	ldr	r2, [pc, #268]	; (81034cc <DMA_CalcBaseAndBitshift+0x11c>)
 81033be:	4293      	cmp	r3, r2
 81033c0:	d04a      	beq.n	8103458 <DMA_CalcBaseAndBitshift+0xa8>
 81033c2:	687b      	ldr	r3, [r7, #4]
 81033c4:	681b      	ldr	r3, [r3, #0]
 81033c6:	4a42      	ldr	r2, [pc, #264]	; (81034d0 <DMA_CalcBaseAndBitshift+0x120>)
 81033c8:	4293      	cmp	r3, r2
 81033ca:	d045      	beq.n	8103458 <DMA_CalcBaseAndBitshift+0xa8>
 81033cc:	687b      	ldr	r3, [r7, #4]
 81033ce:	681b      	ldr	r3, [r3, #0]
 81033d0:	4a40      	ldr	r2, [pc, #256]	; (81034d4 <DMA_CalcBaseAndBitshift+0x124>)
 81033d2:	4293      	cmp	r3, r2
 81033d4:	d040      	beq.n	8103458 <DMA_CalcBaseAndBitshift+0xa8>
 81033d6:	687b      	ldr	r3, [r7, #4]
 81033d8:	681b      	ldr	r3, [r3, #0]
 81033da:	4a3f      	ldr	r2, [pc, #252]	; (81034d8 <DMA_CalcBaseAndBitshift+0x128>)
 81033dc:	4293      	cmp	r3, r2
 81033de:	d03b      	beq.n	8103458 <DMA_CalcBaseAndBitshift+0xa8>
 81033e0:	687b      	ldr	r3, [r7, #4]
 81033e2:	681b      	ldr	r3, [r3, #0]
 81033e4:	4a3d      	ldr	r2, [pc, #244]	; (81034dc <DMA_CalcBaseAndBitshift+0x12c>)
 81033e6:	4293      	cmp	r3, r2
 81033e8:	d036      	beq.n	8103458 <DMA_CalcBaseAndBitshift+0xa8>
 81033ea:	687b      	ldr	r3, [r7, #4]
 81033ec:	681b      	ldr	r3, [r3, #0]
 81033ee:	4a3c      	ldr	r2, [pc, #240]	; (81034e0 <DMA_CalcBaseAndBitshift+0x130>)
 81033f0:	4293      	cmp	r3, r2
 81033f2:	d031      	beq.n	8103458 <DMA_CalcBaseAndBitshift+0xa8>
 81033f4:	687b      	ldr	r3, [r7, #4]
 81033f6:	681b      	ldr	r3, [r3, #0]
 81033f8:	4a3a      	ldr	r2, [pc, #232]	; (81034e4 <DMA_CalcBaseAndBitshift+0x134>)
 81033fa:	4293      	cmp	r3, r2
 81033fc:	d02c      	beq.n	8103458 <DMA_CalcBaseAndBitshift+0xa8>
 81033fe:	687b      	ldr	r3, [r7, #4]
 8103400:	681b      	ldr	r3, [r3, #0]
 8103402:	4a39      	ldr	r2, [pc, #228]	; (81034e8 <DMA_CalcBaseAndBitshift+0x138>)
 8103404:	4293      	cmp	r3, r2
 8103406:	d027      	beq.n	8103458 <DMA_CalcBaseAndBitshift+0xa8>
 8103408:	687b      	ldr	r3, [r7, #4]
 810340a:	681b      	ldr	r3, [r3, #0]
 810340c:	4a37      	ldr	r2, [pc, #220]	; (81034ec <DMA_CalcBaseAndBitshift+0x13c>)
 810340e:	4293      	cmp	r3, r2
 8103410:	d022      	beq.n	8103458 <DMA_CalcBaseAndBitshift+0xa8>
 8103412:	687b      	ldr	r3, [r7, #4]
 8103414:	681b      	ldr	r3, [r3, #0]
 8103416:	4a36      	ldr	r2, [pc, #216]	; (81034f0 <DMA_CalcBaseAndBitshift+0x140>)
 8103418:	4293      	cmp	r3, r2
 810341a:	d01d      	beq.n	8103458 <DMA_CalcBaseAndBitshift+0xa8>
 810341c:	687b      	ldr	r3, [r7, #4]
 810341e:	681b      	ldr	r3, [r3, #0]
 8103420:	4a34      	ldr	r2, [pc, #208]	; (81034f4 <DMA_CalcBaseAndBitshift+0x144>)
 8103422:	4293      	cmp	r3, r2
 8103424:	d018      	beq.n	8103458 <DMA_CalcBaseAndBitshift+0xa8>
 8103426:	687b      	ldr	r3, [r7, #4]
 8103428:	681b      	ldr	r3, [r3, #0]
 810342a:	4a33      	ldr	r2, [pc, #204]	; (81034f8 <DMA_CalcBaseAndBitshift+0x148>)
 810342c:	4293      	cmp	r3, r2
 810342e:	d013      	beq.n	8103458 <DMA_CalcBaseAndBitshift+0xa8>
 8103430:	687b      	ldr	r3, [r7, #4]
 8103432:	681b      	ldr	r3, [r3, #0]
 8103434:	4a31      	ldr	r2, [pc, #196]	; (81034fc <DMA_CalcBaseAndBitshift+0x14c>)
 8103436:	4293      	cmp	r3, r2
 8103438:	d00e      	beq.n	8103458 <DMA_CalcBaseAndBitshift+0xa8>
 810343a:	687b      	ldr	r3, [r7, #4]
 810343c:	681b      	ldr	r3, [r3, #0]
 810343e:	4a30      	ldr	r2, [pc, #192]	; (8103500 <DMA_CalcBaseAndBitshift+0x150>)
 8103440:	4293      	cmp	r3, r2
 8103442:	d009      	beq.n	8103458 <DMA_CalcBaseAndBitshift+0xa8>
 8103444:	687b      	ldr	r3, [r7, #4]
 8103446:	681b      	ldr	r3, [r3, #0]
 8103448:	4a2e      	ldr	r2, [pc, #184]	; (8103504 <DMA_CalcBaseAndBitshift+0x154>)
 810344a:	4293      	cmp	r3, r2
 810344c:	d004      	beq.n	8103458 <DMA_CalcBaseAndBitshift+0xa8>
 810344e:	687b      	ldr	r3, [r7, #4]
 8103450:	681b      	ldr	r3, [r3, #0]
 8103452:	4a2d      	ldr	r2, [pc, #180]	; (8103508 <DMA_CalcBaseAndBitshift+0x158>)
 8103454:	4293      	cmp	r3, r2
 8103456:	d101      	bne.n	810345c <DMA_CalcBaseAndBitshift+0xac>
 8103458:	2301      	movs	r3, #1
 810345a:	e000      	b.n	810345e <DMA_CalcBaseAndBitshift+0xae>
 810345c:	2300      	movs	r3, #0
 810345e:	2b00      	cmp	r3, #0
 8103460:	d026      	beq.n	81034b0 <DMA_CalcBaseAndBitshift+0x100>
  {
    uint32_t stream_number = (((uint32_t)((uint32_t*)hdma->Instance) & 0xFFU) - 16U) / 24U;
 8103462:	687b      	ldr	r3, [r7, #4]
 8103464:	681b      	ldr	r3, [r3, #0]
 8103466:	b2db      	uxtb	r3, r3
 8103468:	3b10      	subs	r3, #16
 810346a:	4a28      	ldr	r2, [pc, #160]	; (810350c <DMA_CalcBaseAndBitshift+0x15c>)
 810346c:	fba2 2303 	umull	r2, r3, r2, r3
 8103470:	091b      	lsrs	r3, r3, #4
 8103472:	60fb      	str	r3, [r7, #12]

    /* lookup table for necessary bitshift of flags within status registers */
    static const uint8_t flagBitshiftOffset[8U] = {0U, 6U, 16U, 22U, 0U, 6U, 16U, 22U};
    hdma->StreamIndex = flagBitshiftOffset[stream_number & 0x7U];
 8103474:	68fb      	ldr	r3, [r7, #12]
 8103476:	f003 0307 	and.w	r3, r3, #7
 810347a:	4a25      	ldr	r2, [pc, #148]	; (8103510 <DMA_CalcBaseAndBitshift+0x160>)
 810347c:	5cd3      	ldrb	r3, [r2, r3]
 810347e:	461a      	mov	r2, r3
 8103480:	687b      	ldr	r3, [r7, #4]
 8103482:	65da      	str	r2, [r3, #92]	; 0x5c

    if (stream_number > 3U)
 8103484:	68fb      	ldr	r3, [r7, #12]
 8103486:	2b03      	cmp	r3, #3
 8103488:	d909      	bls.n	810349e <DMA_CalcBaseAndBitshift+0xee>
    {
      /* return pointer to HISR and HIFCR */
      hdma->StreamBaseAddress = (((uint32_t)((uint32_t*)hdma->Instance) & (uint32_t)(~0x3FFU)) + 4U);
 810348a:	687b      	ldr	r3, [r7, #4]
 810348c:	681b      	ldr	r3, [r3, #0]
 810348e:	f423 737f 	bic.w	r3, r3, #1020	; 0x3fc
 8103492:	f023 0303 	bic.w	r3, r3, #3
 8103496:	1d1a      	adds	r2, r3, #4
 8103498:	687b      	ldr	r3, [r7, #4]
 810349a:	659a      	str	r2, [r3, #88]	; 0x58
 810349c:	e00e      	b.n	81034bc <DMA_CalcBaseAndBitshift+0x10c>
    }
    else
    {
      /* return pointer to LISR and LIFCR */
      hdma->StreamBaseAddress = ((uint32_t)((uint32_t*)hdma->Instance) & (uint32_t)(~0x3FFU));
 810349e:	687b      	ldr	r3, [r7, #4]
 81034a0:	681b      	ldr	r3, [r3, #0]
 81034a2:	f423 737f 	bic.w	r3, r3, #1020	; 0x3fc
 81034a6:	f023 0303 	bic.w	r3, r3, #3
 81034aa:	687a      	ldr	r2, [r7, #4]
 81034ac:	6593      	str	r3, [r2, #88]	; 0x58
 81034ae:	e005      	b.n	81034bc <DMA_CalcBaseAndBitshift+0x10c>
    }
  }
  else /* BDMA instance(s) */
  {
    /* return pointer to ISR and IFCR */
    hdma->StreamBaseAddress = ((uint32_t)((uint32_t*)hdma->Instance) & (uint32_t)(~0xFFU));
 81034b0:	687b      	ldr	r3, [r7, #4]
 81034b2:	681b      	ldr	r3, [r3, #0]
 81034b4:	f023 02ff 	bic.w	r2, r3, #255	; 0xff
 81034b8:	687b      	ldr	r3, [r7, #4]
 81034ba:	659a      	str	r2, [r3, #88]	; 0x58
  }

  return hdma->StreamBaseAddress;
 81034bc:	687b      	ldr	r3, [r7, #4]
 81034be:	6d9b      	ldr	r3, [r3, #88]	; 0x58
}
 81034c0:	4618      	mov	r0, r3
 81034c2:	3714      	adds	r7, #20
 81034c4:	46bd      	mov	sp, r7
 81034c6:	f85d 7b04 	ldr.w	r7, [sp], #4
 81034ca:	4770      	bx	lr
 81034cc:	40020010 	.word	0x40020010
 81034d0:	40020028 	.word	0x40020028
 81034d4:	40020040 	.word	0x40020040
 81034d8:	40020058 	.word	0x40020058
 81034dc:	40020070 	.word	0x40020070
 81034e0:	40020088 	.word	0x40020088
 81034e4:	400200a0 	.word	0x400200a0
 81034e8:	400200b8 	.word	0x400200b8
 81034ec:	40020410 	.word	0x40020410
 81034f0:	40020428 	.word	0x40020428
 81034f4:	40020440 	.word	0x40020440
 81034f8:	40020458 	.word	0x40020458
 81034fc:	40020470 	.word	0x40020470
 8103500:	40020488 	.word	0x40020488
 8103504:	400204a0 	.word	0x400204a0
 8103508:	400204b8 	.word	0x400204b8
 810350c:	aaaaaaab 	.word	0xaaaaaaab
 8103510:	081050ac 	.word	0x081050ac

08103514 <DMA_CheckFifoParam>:
  * @param  hdma:       pointer to a DMA_HandleTypeDef structure that contains
  *                     the configuration information for the specified DMA Stream.
  * @retval HAL status
  */
static HAL_StatusTypeDef DMA_CheckFifoParam(DMA_HandleTypeDef *hdma)
{
 8103514:	b480      	push	{r7}
 8103516:	b085      	sub	sp, #20
 8103518:	af00      	add	r7, sp, #0
 810351a:	6078      	str	r0, [r7, #4]
  HAL_StatusTypeDef status = HAL_OK;
 810351c:	2300      	movs	r3, #0
 810351e:	73fb      	strb	r3, [r7, #15]

  /* Memory Data size equal to Byte */
  if (hdma->Init.MemDataAlignment == DMA_MDATAALIGN_BYTE)
 8103520:	687b      	ldr	r3, [r7, #4]
 8103522:	699b      	ldr	r3, [r3, #24]
 8103524:	2b00      	cmp	r3, #0
 8103526:	d120      	bne.n	810356a <DMA_CheckFifoParam+0x56>
  {
    switch (hdma->Init.FIFOThreshold)
 8103528:	687b      	ldr	r3, [r7, #4]
 810352a:	6a9b      	ldr	r3, [r3, #40]	; 0x28
 810352c:	2b03      	cmp	r3, #3
 810352e:	d858      	bhi.n	81035e2 <DMA_CheckFifoParam+0xce>
 8103530:	a201      	add	r2, pc, #4	; (adr r2, 8103538 <DMA_CheckFifoParam+0x24>)
 8103532:	f852 f023 	ldr.w	pc, [r2, r3, lsl #2]
 8103536:	bf00      	nop
 8103538:	08103549 	.word	0x08103549
 810353c:	0810355b 	.word	0x0810355b
 8103540:	08103549 	.word	0x08103549
 8103544:	081035e3 	.word	0x081035e3
    {
      case DMA_FIFO_THRESHOLD_1QUARTERFULL:
      case DMA_FIFO_THRESHOLD_3QUARTERSFULL:

        if ((hdma->Init.MemBurst & DMA_SxCR_MBURST_1) == DMA_SxCR_MBURST_1)
 8103548:	687b      	ldr	r3, [r7, #4]
 810354a:	6adb      	ldr	r3, [r3, #44]	; 0x2c
 810354c:	f003 7380 	and.w	r3, r3, #16777216	; 0x1000000
 8103550:	2b00      	cmp	r3, #0
 8103552:	d048      	beq.n	81035e6 <DMA_CheckFifoParam+0xd2>
        {
          status = HAL_ERROR;
 8103554:	2301      	movs	r3, #1
 8103556:	73fb      	strb	r3, [r7, #15]
        }
        break;
 8103558:	e045      	b.n	81035e6 <DMA_CheckFifoParam+0xd2>

      case DMA_FIFO_THRESHOLD_HALFFULL:
        if (hdma->Init.MemBurst == DMA_MBURST_INC16)
 810355a:	687b      	ldr	r3, [r7, #4]
 810355c:	6adb      	ldr	r3, [r3, #44]	; 0x2c
 810355e:	f1b3 7fc0 	cmp.w	r3, #25165824	; 0x1800000
 8103562:	d142      	bne.n	81035ea <DMA_CheckFifoParam+0xd6>
        {
          status = HAL_ERROR;
 8103564:	2301      	movs	r3, #1
 8103566:	73fb      	strb	r3, [r7, #15]
        }
        break;
 8103568:	e03f      	b.n	81035ea <DMA_CheckFifoParam+0xd6>
        break;
    }
  }

  /* Memory Data size equal to Half-Word */
  else if (hdma->Init.MemDataAlignment == DMA_MDATAALIGN_HALFWORD)
 810356a:	687b      	ldr	r3, [r7, #4]
 810356c:	699b      	ldr	r3, [r3, #24]
 810356e:	f5b3 5f00 	cmp.w	r3, #8192	; 0x2000
 8103572:	d123      	bne.n	81035bc <DMA_CheckFifoParam+0xa8>
  {
    switch (hdma->Init.FIFOThreshold)
 8103574:	687b      	ldr	r3, [r7, #4]
 8103576:	6a9b      	ldr	r3, [r3, #40]	; 0x28
 8103578:	2b03      	cmp	r3, #3
 810357a:	d838      	bhi.n	81035ee <DMA_CheckFifoParam+0xda>
 810357c:	a201      	add	r2, pc, #4	; (adr r2, 8103584 <DMA_CheckFifoParam+0x70>)
 810357e:	f852 f023 	ldr.w	pc, [r2, r3, lsl #2]
 8103582:	bf00      	nop
 8103584:	08103595 	.word	0x08103595
 8103588:	0810359b 	.word	0x0810359b
 810358c:	08103595 	.word	0x08103595
 8103590:	081035ad 	.word	0x081035ad
    {
      case DMA_FIFO_THRESHOLD_1QUARTERFULL:
      case DMA_FIFO_THRESHOLD_3QUARTERSFULL:
        status = HAL_ERROR;
 8103594:	2301      	movs	r3, #1
 8103596:	73fb      	strb	r3, [r7, #15]
        break;
 8103598:	e030      	b.n	81035fc <DMA_CheckFifoParam+0xe8>

      case DMA_FIFO_THRESHOLD_HALFFULL:
        if ((hdma->Init.MemBurst & DMA_SxCR_MBURST_1) == DMA_SxCR_MBURST_1)
 810359a:	687b      	ldr	r3, [r7, #4]
 810359c:	6adb      	ldr	r3, [r3, #44]	; 0x2c
 810359e:	f003 7380 	and.w	r3, r3, #16777216	; 0x1000000
 81035a2:	2b00      	cmp	r3, #0
 81035a4:	d025      	beq.n	81035f2 <DMA_CheckFifoParam+0xde>
        {
          status = HAL_ERROR;
 81035a6:	2301      	movs	r3, #1
 81035a8:	73fb      	strb	r3, [r7, #15]
        }
        break;
 81035aa:	e022      	b.n	81035f2 <DMA_CheckFifoParam+0xde>

      case DMA_FIFO_THRESHOLD_FULL:
        if (hdma->Init.MemBurst == DMA_MBURST_INC16)
 81035ac:	687b      	ldr	r3, [r7, #4]
 81035ae:	6adb      	ldr	r3, [r3, #44]	; 0x2c
 81035b0:	f1b3 7fc0 	cmp.w	r3, #25165824	; 0x1800000
 81035b4:	d11f      	bne.n	81035f6 <DMA_CheckFifoParam+0xe2>
        {
          status = HAL_ERROR;
 81035b6:	2301      	movs	r3, #1
 81035b8:	73fb      	strb	r3, [r7, #15]
        }
        break;
 81035ba:	e01c      	b.n	81035f6 <DMA_CheckFifoParam+0xe2>
  }

  /* Memory Data size equal to Word */
  else
  {
    switch (hdma->Init.FIFOThreshold)
 81035bc:	687b      	ldr	r3, [r7, #4]
 81035be:	6a9b      	ldr	r3, [r3, #40]	; 0x28
 81035c0:	2b02      	cmp	r3, #2
 81035c2:	d902      	bls.n	81035ca <DMA_CheckFifoParam+0xb6>
 81035c4:	2b03      	cmp	r3, #3
 81035c6:	d003      	beq.n	81035d0 <DMA_CheckFifoParam+0xbc>
          status = HAL_ERROR;
        }
    break;

      default:
        break;
 81035c8:	e018      	b.n	81035fc <DMA_CheckFifoParam+0xe8>
        status = HAL_ERROR;
 81035ca:	2301      	movs	r3, #1
 81035cc:	73fb      	strb	r3, [r7, #15]
        break;
 81035ce:	e015      	b.n	81035fc <DMA_CheckFifoParam+0xe8>
        if ((hdma->Init.MemBurst & DMA_SxCR_MBURST_1) == DMA_SxCR_MBURST_1)
 81035d0:	687b      	ldr	r3, [r7, #4]
 81035d2:	6adb      	ldr	r3, [r3, #44]	; 0x2c
 81035d4:	f003 7380 	and.w	r3, r3, #16777216	; 0x1000000
 81035d8:	2b00      	cmp	r3, #0
 81035da:	d00e      	beq.n	81035fa <DMA_CheckFifoParam+0xe6>
          status = HAL_ERROR;
 81035dc:	2301      	movs	r3, #1
 81035de:	73fb      	strb	r3, [r7, #15]
    break;
 81035e0:	e00b      	b.n	81035fa <DMA_CheckFifoParam+0xe6>
        break;
 81035e2:	bf00      	nop
 81035e4:	e00a      	b.n	81035fc <DMA_CheckFifoParam+0xe8>
        break;
 81035e6:	bf00      	nop
 81035e8:	e008      	b.n	81035fc <DMA_CheckFifoParam+0xe8>
        break;
 81035ea:	bf00      	nop
 81035ec:	e006      	b.n	81035fc <DMA_CheckFifoParam+0xe8>
        break;
 81035ee:	bf00      	nop
 81035f0:	e004      	b.n	81035fc <DMA_CheckFifoParam+0xe8>
        break;
 81035f2:	bf00      	nop
 81035f4:	e002      	b.n	81035fc <DMA_CheckFifoParam+0xe8>
        break;
 81035f6:	bf00      	nop
 81035f8:	e000      	b.n	81035fc <DMA_CheckFifoParam+0xe8>
    break;
 81035fa:	bf00      	nop
    }
  }

  return status;
 81035fc:	7bfb      	ldrb	r3, [r7, #15]
}
 81035fe:	4618      	mov	r0, r3
 8103600:	3714      	adds	r7, #20
 8103602:	46bd      	mov	sp, r7
 8103604:	f85d 7b04 	ldr.w	r7, [sp], #4
 8103608:	4770      	bx	lr
 810360a:	bf00      	nop

0810360c <DMA_CalcDMAMUXChannelBaseAndMask>:
  * @param  hdma:       pointer to a DMA_HandleTypeDef structure that contains
  *                     the configuration information for the specified DMA Stream.
  * @retval HAL status
  */
static void DMA_CalcDMAMUXChannelBaseAndMask(DMA_HandleTypeDef *hdma)
{
 810360c:	b480      	push	{r7}
 810360e:	b085      	sub	sp, #20
 8103610:	af00      	add	r7, sp, #0
 8103612:	6078      	str	r0, [r7, #4]
  uint32_t stream_number;
  uint32_t stream_baseaddress = (uint32_t)((uint32_t*)hdma->Instance);
 8103614:	687b      	ldr	r3, [r7, #4]
 8103616:	681b      	ldr	r3, [r3, #0]
 8103618:	60bb      	str	r3, [r7, #8]

  if(IS_BDMA_CHANNEL_DMAMUX_INSTANCE(hdma->Instance) != 0U)
 810361a:	687b      	ldr	r3, [r7, #4]
 810361c:	681b      	ldr	r3, [r3, #0]
 810361e:	4a3a      	ldr	r2, [pc, #232]	; (8103708 <DMA_CalcDMAMUXChannelBaseAndMask+0xfc>)
 8103620:	4293      	cmp	r3, r2
 8103622:	d022      	beq.n	810366a <DMA_CalcDMAMUXChannelBaseAndMask+0x5e>
 8103624:	687b      	ldr	r3, [r7, #4]
 8103626:	681b      	ldr	r3, [r3, #0]
 8103628:	4a38      	ldr	r2, [pc, #224]	; (810370c <DMA_CalcDMAMUXChannelBaseAndMask+0x100>)
 810362a:	4293      	cmp	r3, r2
 810362c:	d01d      	beq.n	810366a <DMA_CalcDMAMUXChannelBaseAndMask+0x5e>
 810362e:	687b      	ldr	r3, [r7, #4]
 8103630:	681b      	ldr	r3, [r3, #0]
 8103632:	4a37      	ldr	r2, [pc, #220]	; (8103710 <DMA_CalcDMAMUXChannelBaseAndMask+0x104>)
 8103634:	4293      	cmp	r3, r2
 8103636:	d018      	beq.n	810366a <DMA_CalcDMAMUXChannelBaseAndMask+0x5e>
 8103638:	687b      	ldr	r3, [r7, #4]
 810363a:	681b      	ldr	r3, [r3, #0]
 810363c:	4a35      	ldr	r2, [pc, #212]	; (8103714 <DMA_CalcDMAMUXChannelBaseAndMask+0x108>)
 810363e:	4293      	cmp	r3, r2
 8103640:	d013      	beq.n	810366a <DMA_CalcDMAMUXChannelBaseAndMask+0x5e>
 8103642:	687b      	ldr	r3, [r7, #4]
 8103644:	681b      	ldr	r3, [r3, #0]
 8103646:	4a34      	ldr	r2, [pc, #208]	; (8103718 <DMA_CalcDMAMUXChannelBaseAndMask+0x10c>)
 8103648:	4293      	cmp	r3, r2
 810364a:	d00e      	beq.n	810366a <DMA_CalcDMAMUXChannelBaseAndMask+0x5e>
 810364c:	687b      	ldr	r3, [r7, #4]
 810364e:	681b      	ldr	r3, [r3, #0]
 8103650:	4a32      	ldr	r2, [pc, #200]	; (810371c <DMA_CalcDMAMUXChannelBaseAndMask+0x110>)
 8103652:	4293      	cmp	r3, r2
 8103654:	d009      	beq.n	810366a <DMA_CalcDMAMUXChannelBaseAndMask+0x5e>
 8103656:	687b      	ldr	r3, [r7, #4]
 8103658:	681b      	ldr	r3, [r3, #0]
 810365a:	4a31      	ldr	r2, [pc, #196]	; (8103720 <DMA_CalcDMAMUXChannelBaseAndMask+0x114>)
 810365c:	4293      	cmp	r3, r2
 810365e:	d004      	beq.n	810366a <DMA_CalcDMAMUXChannelBaseAndMask+0x5e>
 8103660:	687b      	ldr	r3, [r7, #4]
 8103662:	681b      	ldr	r3, [r3, #0]
 8103664:	4a2f      	ldr	r2, [pc, #188]	; (8103724 <DMA_CalcDMAMUXChannelBaseAndMask+0x118>)
 8103666:	4293      	cmp	r3, r2
 8103668:	d101      	bne.n	810366e <DMA_CalcDMAMUXChannelBaseAndMask+0x62>
 810366a:	2301      	movs	r3, #1
 810366c:	e000      	b.n	8103670 <DMA_CalcDMAMUXChannelBaseAndMask+0x64>
 810366e:	2300      	movs	r3, #0
 8103670:	2b00      	cmp	r3, #0
 8103672:	d01c      	beq.n	81036ae <DMA_CalcDMAMUXChannelBaseAndMask+0xa2>
  {
    /* BDMA Channels are connected to DMAMUX2 channels */
    stream_number = (((uint32_t)((uint32_t*)hdma->Instance) & 0xFFU) - 8U) / 20U;
 8103674:	687b      	ldr	r3, [r7, #4]
 8103676:	681b      	ldr	r3, [r3, #0]
 8103678:	b2db      	uxtb	r3, r3
 810367a:	3b08      	subs	r3, #8
 810367c:	4a2a      	ldr	r2, [pc, #168]	; (8103728 <DMA_CalcDMAMUXChannelBaseAndMask+0x11c>)
 810367e:	fba2 2303 	umull	r2, r3, r2, r3
 8103682:	091b      	lsrs	r3, r3, #4
 8103684:	60fb      	str	r3, [r7, #12]
    hdma->DMAmuxChannel = (DMAMUX_Channel_TypeDef *)((uint32_t)(((uint32_t)DMAMUX2_Channel0) + (stream_number * 4U)));
 8103686:	68fb      	ldr	r3, [r7, #12]
 8103688:	f103 53b0 	add.w	r3, r3, #369098752	; 0x16000000
 810368c:	f503 4316 	add.w	r3, r3, #38400	; 0x9600
 8103690:	009b      	lsls	r3, r3, #2
 8103692:	461a      	mov	r2, r3
 8103694:	687b      	ldr	r3, [r7, #4]
 8103696:	661a      	str	r2, [r3, #96]	; 0x60
    hdma->DMAmuxChannelStatus = DMAMUX2_ChannelStatus;
 8103698:	687b      	ldr	r3, [r7, #4]
 810369a:	4a24      	ldr	r2, [pc, #144]	; (810372c <DMA_CalcDMAMUXChannelBaseAndMask+0x120>)
 810369c:	665a      	str	r2, [r3, #100]	; 0x64
    hdma->DMAmuxChannelStatusMask = 1UL << (stream_number & 0x1FU);
 810369e:	68fb      	ldr	r3, [r7, #12]
 81036a0:	f003 031f 	and.w	r3, r3, #31
 81036a4:	2201      	movs	r2, #1
 81036a6:	409a      	lsls	r2, r3
 81036a8:	687b      	ldr	r3, [r7, #4]
 81036aa:	669a      	str	r2, [r3, #104]	; 0x68
    }
    hdma->DMAmuxChannel = (DMAMUX_Channel_TypeDef *)((uint32_t)(((uint32_t)DMAMUX1_Channel0) + (stream_number * 4U)));
    hdma->DMAmuxChannelStatus = DMAMUX1_ChannelStatus;
    hdma->DMAmuxChannelStatusMask = 1UL << (stream_number & 0x1FU);
  }
}
 81036ac:	e026      	b.n	81036fc <DMA_CalcDMAMUXChannelBaseAndMask+0xf0>
    stream_number = (((uint32_t)((uint32_t*)hdma->Instance) & 0xFFU) - 16U) / 24U;
 81036ae:	687b      	ldr	r3, [r7, #4]
 81036b0:	681b      	ldr	r3, [r3, #0]
 81036b2:	b2db      	uxtb	r3, r3
 81036b4:	3b10      	subs	r3, #16
 81036b6:	4a1e      	ldr	r2, [pc, #120]	; (8103730 <DMA_CalcDMAMUXChannelBaseAndMask+0x124>)
 81036b8:	fba2 2303 	umull	r2, r3, r2, r3
 81036bc:	091b      	lsrs	r3, r3, #4
 81036be:	60fb      	str	r3, [r7, #12]
    if((stream_baseaddress <= ((uint32_t)DMA2_Stream7) ) && \
 81036c0:	68bb      	ldr	r3, [r7, #8]
 81036c2:	4a1c      	ldr	r2, [pc, #112]	; (8103734 <DMA_CalcDMAMUXChannelBaseAndMask+0x128>)
 81036c4:	4293      	cmp	r3, r2
 81036c6:	d806      	bhi.n	81036d6 <DMA_CalcDMAMUXChannelBaseAndMask+0xca>
 81036c8:	68bb      	ldr	r3, [r7, #8]
 81036ca:	4a1b      	ldr	r2, [pc, #108]	; (8103738 <DMA_CalcDMAMUXChannelBaseAndMask+0x12c>)
 81036cc:	4293      	cmp	r3, r2
 81036ce:	d902      	bls.n	81036d6 <DMA_CalcDMAMUXChannelBaseAndMask+0xca>
      stream_number += 8U;
 81036d0:	68fb      	ldr	r3, [r7, #12]
 81036d2:	3308      	adds	r3, #8
 81036d4:	60fb      	str	r3, [r7, #12]
    hdma->DMAmuxChannel = (DMAMUX_Channel_TypeDef *)((uint32_t)(((uint32_t)DMAMUX1_Channel0) + (stream_number * 4U)));
 81036d6:	68fb      	ldr	r3, [r7, #12]
 81036d8:	f103 5380 	add.w	r3, r3, #268435456	; 0x10000000
 81036dc:	f503 4302 	add.w	r3, r3, #33280	; 0x8200
 81036e0:	009b      	lsls	r3, r3, #2
 81036e2:	461a      	mov	r2, r3
 81036e4:	687b      	ldr	r3, [r7, #4]
 81036e6:	661a      	str	r2, [r3, #96]	; 0x60
    hdma->DMAmuxChannelStatus = DMAMUX1_ChannelStatus;
 81036e8:	687b      	ldr	r3, [r7, #4]
 81036ea:	4a14      	ldr	r2, [pc, #80]	; (810373c <DMA_CalcDMAMUXChannelBaseAndMask+0x130>)
 81036ec:	665a      	str	r2, [r3, #100]	; 0x64
    hdma->DMAmuxChannelStatusMask = 1UL << (stream_number & 0x1FU);
 81036ee:	68fb      	ldr	r3, [r7, #12]
 81036f0:	f003 031f 	and.w	r3, r3, #31
 81036f4:	2201      	movs	r2, #1
 81036f6:	409a      	lsls	r2, r3
 81036f8:	687b      	ldr	r3, [r7, #4]
 81036fa:	669a      	str	r2, [r3, #104]	; 0x68
}
 81036fc:	bf00      	nop
 81036fe:	3714      	adds	r7, #20
 8103700:	46bd      	mov	sp, r7
 8103702:	f85d 7b04 	ldr.w	r7, [sp], #4
 8103706:	4770      	bx	lr
 8103708:	58025408 	.word	0x58025408
 810370c:	5802541c 	.word	0x5802541c
 8103710:	58025430 	.word	0x58025430
 8103714:	58025444 	.word	0x58025444
 8103718:	58025458 	.word	0x58025458
 810371c:	5802546c 	.word	0x5802546c
 8103720:	58025480 	.word	0x58025480
 8103724:	58025494 	.word	0x58025494
 8103728:	cccccccd 	.word	0xcccccccd
 810372c:	58025880 	.word	0x58025880
 8103730:	aaaaaaab 	.word	0xaaaaaaab
 8103734:	400204b8 	.word	0x400204b8
 8103738:	4002040f 	.word	0x4002040f
 810373c:	40020880 	.word	0x40020880

08103740 <DMA_CalcDMAMUXRequestGenBaseAndMask>:
  * @param  hdma:       pointer to a DMA_HandleTypeDef structure that contains
  *                     the configuration information for the specified DMA Stream.
  * @retval HAL status
  */
static void DMA_CalcDMAMUXRequestGenBaseAndMask(DMA_HandleTypeDef *hdma)
{
 8103740:	b480      	push	{r7}
 8103742:	b085      	sub	sp, #20
 8103744:	af00      	add	r7, sp, #0
 8103746:	6078      	str	r0, [r7, #4]
  uint32_t request =  hdma->Init.Request & DMAMUX_CxCR_DMAREQ_ID;
 8103748:	687b      	ldr	r3, [r7, #4]
 810374a:	685b      	ldr	r3, [r3, #4]
 810374c:	b2db      	uxtb	r3, r3
 810374e:	60fb      	str	r3, [r7, #12]

  if((request >= DMA_REQUEST_GENERATOR0) && (request <= DMA_REQUEST_GENERATOR7))
 8103750:	68fb      	ldr	r3, [r7, #12]
 8103752:	2b00      	cmp	r3, #0
 8103754:	d04a      	beq.n	81037ec <DMA_CalcDMAMUXRequestGenBaseAndMask+0xac>
 8103756:	68fb      	ldr	r3, [r7, #12]
 8103758:	2b08      	cmp	r3, #8
 810375a:	d847      	bhi.n	81037ec <DMA_CalcDMAMUXRequestGenBaseAndMask+0xac>
  {
    if(IS_BDMA_CHANNEL_DMAMUX_INSTANCE(hdma->Instance) != 0U)
 810375c:	687b      	ldr	r3, [r7, #4]
 810375e:	681b      	ldr	r3, [r3, #0]
 8103760:	4a25      	ldr	r2, [pc, #148]	; (81037f8 <DMA_CalcDMAMUXRequestGenBaseAndMask+0xb8>)
 8103762:	4293      	cmp	r3, r2
 8103764:	d022      	beq.n	81037ac <DMA_CalcDMAMUXRequestGenBaseAndMask+0x6c>
 8103766:	687b      	ldr	r3, [r7, #4]
 8103768:	681b      	ldr	r3, [r3, #0]
 810376a:	4a24      	ldr	r2, [pc, #144]	; (81037fc <DMA_CalcDMAMUXRequestGenBaseAndMask+0xbc>)
 810376c:	4293      	cmp	r3, r2
 810376e:	d01d      	beq.n	81037ac <DMA_CalcDMAMUXRequestGenBaseAndMask+0x6c>
 8103770:	687b      	ldr	r3, [r7, #4]
 8103772:	681b      	ldr	r3, [r3, #0]
 8103774:	4a22      	ldr	r2, [pc, #136]	; (8103800 <DMA_CalcDMAMUXRequestGenBaseAndMask+0xc0>)
 8103776:	4293      	cmp	r3, r2
 8103778:	d018      	beq.n	81037ac <DMA_CalcDMAMUXRequestGenBaseAndMask+0x6c>
 810377a:	687b      	ldr	r3, [r7, #4]
 810377c:	681b      	ldr	r3, [r3, #0]
 810377e:	4a21      	ldr	r2, [pc, #132]	; (8103804 <DMA_CalcDMAMUXRequestGenBaseAndMask+0xc4>)
 8103780:	4293      	cmp	r3, r2
 8103782:	d013      	beq.n	81037ac <DMA_CalcDMAMUXRequestGenBaseAndMask+0x6c>
 8103784:	687b      	ldr	r3, [r7, #4]
 8103786:	681b      	ldr	r3, [r3, #0]
 8103788:	4a1f      	ldr	r2, [pc, #124]	; (8103808 <DMA_CalcDMAMUXRequestGenBaseAndMask+0xc8>)
 810378a:	4293      	cmp	r3, r2
 810378c:	d00e      	beq.n	81037ac <DMA_CalcDMAMUXRequestGenBaseAndMask+0x6c>
 810378e:	687b      	ldr	r3, [r7, #4]
 8103790:	681b      	ldr	r3, [r3, #0]
 8103792:	4a1e      	ldr	r2, [pc, #120]	; (810380c <DMA_CalcDMAMUXRequestGenBaseAndMask+0xcc>)
 8103794:	4293      	cmp	r3, r2
 8103796:	d009      	beq.n	81037ac <DMA_CalcDMAMUXRequestGenBaseAndMask+0x6c>
 8103798:	687b      	ldr	r3, [r7, #4]
 810379a:	681b      	ldr	r3, [r3, #0]
 810379c:	4a1c      	ldr	r2, [pc, #112]	; (8103810 <DMA_CalcDMAMUXRequestGenBaseAndMask+0xd0>)
 810379e:	4293      	cmp	r3, r2
 81037a0:	d004      	beq.n	81037ac <DMA_CalcDMAMUXRequestGenBaseAndMask+0x6c>
 81037a2:	687b      	ldr	r3, [r7, #4]
 81037a4:	681b      	ldr	r3, [r3, #0]
 81037a6:	4a1b      	ldr	r2, [pc, #108]	; (8103814 <DMA_CalcDMAMUXRequestGenBaseAndMask+0xd4>)
 81037a8:	4293      	cmp	r3, r2
 81037aa:	d101      	bne.n	81037b0 <DMA_CalcDMAMUXRequestGenBaseAndMask+0x70>
 81037ac:	2301      	movs	r3, #1
 81037ae:	e000      	b.n	81037b2 <DMA_CalcDMAMUXRequestGenBaseAndMask+0x72>
 81037b0:	2300      	movs	r3, #0
 81037b2:	2b00      	cmp	r3, #0
 81037b4:	d00a      	beq.n	81037cc <DMA_CalcDMAMUXRequestGenBaseAndMask+0x8c>
    {
      /* BDMA Channels are connected to DMAMUX2 request generator blocks */
      hdma->DMAmuxRequestGen = (DMAMUX_RequestGen_TypeDef *)((uint32_t)(((uint32_t)DMAMUX2_RequestGenerator0) + ((request - 1U) * 4U)));
 81037b6:	68fa      	ldr	r2, [r7, #12]
 81037b8:	4b17      	ldr	r3, [pc, #92]	; (8103818 <DMA_CalcDMAMUXRequestGenBaseAndMask+0xd8>)
 81037ba:	4413      	add	r3, r2
 81037bc:	009b      	lsls	r3, r3, #2
 81037be:	461a      	mov	r2, r3
 81037c0:	687b      	ldr	r3, [r7, #4]
 81037c2:	66da      	str	r2, [r3, #108]	; 0x6c

      hdma->DMAmuxRequestGenStatus = DMAMUX2_RequestGenStatus;
 81037c4:	687b      	ldr	r3, [r7, #4]
 81037c6:	4a15      	ldr	r2, [pc, #84]	; (810381c <DMA_CalcDMAMUXRequestGenBaseAndMask+0xdc>)
 81037c8:	671a      	str	r2, [r3, #112]	; 0x70
 81037ca:	e009      	b.n	81037e0 <DMA_CalcDMAMUXRequestGenBaseAndMask+0xa0>
    }
    else
    {
      /* DMA1 and DMA2 Streams use DMAMUX1 request generator blocks */
      hdma->DMAmuxRequestGen = (DMAMUX_RequestGen_TypeDef *)((uint32_t)(((uint32_t)DMAMUX1_RequestGenerator0) + ((request - 1U) * 4U)));
 81037cc:	68fa      	ldr	r2, [r7, #12]
 81037ce:	4b14      	ldr	r3, [pc, #80]	; (8103820 <DMA_CalcDMAMUXRequestGenBaseAndMask+0xe0>)
 81037d0:	4413      	add	r3, r2
 81037d2:	009b      	lsls	r3, r3, #2
 81037d4:	461a      	mov	r2, r3
 81037d6:	687b      	ldr	r3, [r7, #4]
 81037d8:	66da      	str	r2, [r3, #108]	; 0x6c

      hdma->DMAmuxRequestGenStatus = DMAMUX1_RequestGenStatus;
 81037da:	687b      	ldr	r3, [r7, #4]
 81037dc:	4a11      	ldr	r2, [pc, #68]	; (8103824 <DMA_CalcDMAMUXRequestGenBaseAndMask+0xe4>)
 81037de:	671a      	str	r2, [r3, #112]	; 0x70
    }

    hdma->DMAmuxRequestGenStatusMask = 1UL << (request - 1U);
 81037e0:	68fb      	ldr	r3, [r7, #12]
 81037e2:	3b01      	subs	r3, #1
 81037e4:	2201      	movs	r2, #1
 81037e6:	409a      	lsls	r2, r3
 81037e8:	687b      	ldr	r3, [r7, #4]
 81037ea:	675a      	str	r2, [r3, #116]	; 0x74
  }
}
 81037ec:	bf00      	nop
 81037ee:	3714      	adds	r7, #20
 81037f0:	46bd      	mov	sp, r7
 81037f2:	f85d 7b04 	ldr.w	r7, [sp], #4
 81037f6:	4770      	bx	lr
 81037f8:	58025408 	.word	0x58025408
 81037fc:	5802541c 	.word	0x5802541c
 8103800:	58025430 	.word	0x58025430
 8103804:	58025444 	.word	0x58025444
 8103808:	58025458 	.word	0x58025458
 810380c:	5802546c 	.word	0x5802546c
 8103810:	58025480 	.word	0x58025480
 8103814:	58025494 	.word	0x58025494
 8103818:	1600963f 	.word	0x1600963f
 810381c:	58025940 	.word	0x58025940
 8103820:	1000823f 	.word	0x1000823f
 8103824:	40020940 	.word	0x40020940

08103828 <HAL_GPIO_Init>:
  * @param  GPIO_Init: pointer to a GPIO_InitTypeDef structure that contains
  *         the configuration information for the specified GPIO peripheral.
  * @retval None
  */
void HAL_GPIO_Init(GPIO_TypeDef  *GPIOx, GPIO_InitTypeDef *GPIO_Init)
{
 8103828:	b480      	push	{r7}
 810382a:	b089      	sub	sp, #36	; 0x24
 810382c:	af00      	add	r7, sp, #0
 810382e:	6078      	str	r0, [r7, #4]
 8103830:	6039      	str	r1, [r7, #0]
  uint32_t position = 0x00U;
 8103832:	2300      	movs	r3, #0
 8103834:	61fb      	str	r3, [r7, #28]
  uint32_t iocurrent;
  uint32_t temp;
  EXTI_Core_TypeDef *EXTI_CurrentCPU;

#if defined(DUAL_CORE) && defined(CORE_CM4)
  EXTI_CurrentCPU = EXTI_D2; /* EXTI for CM4 CPU */
 8103836:	4b89      	ldr	r3, [pc, #548]	; (8103a5c <HAL_GPIO_Init+0x234>)
 8103838:	617b      	str	r3, [r7, #20]
  assert_param(IS_GPIO_ALL_INSTANCE(GPIOx));
  assert_param(IS_GPIO_PIN(GPIO_Init->Pin));
  assert_param(IS_GPIO_MODE(GPIO_Init->Mode));

  /* Configure the port pins */
  while (((GPIO_Init->Pin) >> position) != 0x00U)
 810383a:	e194      	b.n	8103b66 <HAL_GPIO_Init+0x33e>
  {
    /* Get current io position */
    iocurrent = (GPIO_Init->Pin) & (1UL << position);
 810383c:	683b      	ldr	r3, [r7, #0]
 810383e:	681a      	ldr	r2, [r3, #0]
 8103840:	2101      	movs	r1, #1
 8103842:	69fb      	ldr	r3, [r7, #28]
 8103844:	fa01 f303 	lsl.w	r3, r1, r3
 8103848:	4013      	ands	r3, r2
 810384a:	613b      	str	r3, [r7, #16]

    if (iocurrent != 0x00U)
 810384c:	693b      	ldr	r3, [r7, #16]
 810384e:	2b00      	cmp	r3, #0
 8103850:	f000 8186 	beq.w	8103b60 <HAL_GPIO_Init+0x338>
    {
      /*--------------------- GPIO Mode Configuration ------------------------*/
      /* In case of Output or Alternate function mode selection */
      if (((GPIO_Init->Mode & GPIO_MODE) == MODE_OUTPUT) || ((GPIO_Init->Mode & GPIO_MODE) == MODE_AF))
 8103854:	683b      	ldr	r3, [r7, #0]
 8103856:	685b      	ldr	r3, [r3, #4]
 8103858:	f003 0303 	and.w	r3, r3, #3
 810385c:	2b01      	cmp	r3, #1
 810385e:	d005      	beq.n	810386c <HAL_GPIO_Init+0x44>
 8103860:	683b      	ldr	r3, [r7, #0]
 8103862:	685b      	ldr	r3, [r3, #4]
 8103864:	f003 0303 	and.w	r3, r3, #3
 8103868:	2b02      	cmp	r3, #2
 810386a:	d130      	bne.n	81038ce <HAL_GPIO_Init+0xa6>
      {
        /* Check the Speed parameter */
        assert_param(IS_GPIO_SPEED(GPIO_Init->Speed));

        /* Configure the IO Speed */
        temp = GPIOx->OSPEEDR;
 810386c:	687b      	ldr	r3, [r7, #4]
 810386e:	689b      	ldr	r3, [r3, #8]
 8103870:	61bb      	str	r3, [r7, #24]
        temp &= ~(GPIO_OSPEEDR_OSPEED0 << (position * 2U));
 8103872:	69fb      	ldr	r3, [r7, #28]
 8103874:	005b      	lsls	r3, r3, #1
 8103876:	2203      	movs	r2, #3
 8103878:	fa02 f303 	lsl.w	r3, r2, r3
 810387c:	43db      	mvns	r3, r3
 810387e:	69ba      	ldr	r2, [r7, #24]
 8103880:	4013      	ands	r3, r2
 8103882:	61bb      	str	r3, [r7, #24]
        temp |= (GPIO_Init->Speed << (position * 2U));
 8103884:	683b      	ldr	r3, [r7, #0]
 8103886:	68da      	ldr	r2, [r3, #12]
 8103888:	69fb      	ldr	r3, [r7, #28]
 810388a:	005b      	lsls	r3, r3, #1
 810388c:	fa02 f303 	lsl.w	r3, r2, r3
 8103890:	69ba      	ldr	r2, [r7, #24]
 8103892:	4313      	orrs	r3, r2
 8103894:	61bb      	str	r3, [r7, #24]
        GPIOx->OSPEEDR = temp;
 8103896:	687b      	ldr	r3, [r7, #4]
 8103898:	69ba      	ldr	r2, [r7, #24]
 810389a:	609a      	str	r2, [r3, #8]

        /* Configure the IO Output Type */
        temp = GPIOx->OTYPER;
 810389c:	687b      	ldr	r3, [r7, #4]
 810389e:	685b      	ldr	r3, [r3, #4]
 81038a0:	61bb      	str	r3, [r7, #24]
        temp &= ~(GPIO_OTYPER_OT0 << position) ;
 81038a2:	2201      	movs	r2, #1
 81038a4:	69fb      	ldr	r3, [r7, #28]
 81038a6:	fa02 f303 	lsl.w	r3, r2, r3
 81038aa:	43db      	mvns	r3, r3
 81038ac:	69ba      	ldr	r2, [r7, #24]
 81038ae:	4013      	ands	r3, r2
 81038b0:	61bb      	str	r3, [r7, #24]
        temp |= (((GPIO_Init->Mode & OUTPUT_TYPE) >> OUTPUT_TYPE_Pos) << position);
 81038b2:	683b      	ldr	r3, [r7, #0]
 81038b4:	685b      	ldr	r3, [r3, #4]
 81038b6:	091b      	lsrs	r3, r3, #4
 81038b8:	f003 0201 	and.w	r2, r3, #1
 81038bc:	69fb      	ldr	r3, [r7, #28]
 81038be:	fa02 f303 	lsl.w	r3, r2, r3
 81038c2:	69ba      	ldr	r2, [r7, #24]
 81038c4:	4313      	orrs	r3, r2
 81038c6:	61bb      	str	r3, [r7, #24]
        GPIOx->OTYPER = temp;
 81038c8:	687b      	ldr	r3, [r7, #4]
 81038ca:	69ba      	ldr	r2, [r7, #24]
 81038cc:	605a      	str	r2, [r3, #4]
      }

      if ((GPIO_Init->Mode & GPIO_MODE) != MODE_ANALOG)
 81038ce:	683b      	ldr	r3, [r7, #0]
 81038d0:	685b      	ldr	r3, [r3, #4]
 81038d2:	f003 0303 	and.w	r3, r3, #3
 81038d6:	2b03      	cmp	r3, #3
 81038d8:	d017      	beq.n	810390a <HAL_GPIO_Init+0xe2>
      {
       /* Check the Pull parameter */
       assert_param(IS_GPIO_PULL(GPIO_Init->Pull));

      /* Activate the Pull-up or Pull down resistor for the current IO */
      temp = GPIOx->PUPDR;
 81038da:	687b      	ldr	r3, [r7, #4]
 81038dc:	68db      	ldr	r3, [r3, #12]
 81038de:	61bb      	str	r3, [r7, #24]
      temp &= ~(GPIO_PUPDR_PUPD0 << (position * 2U));
 81038e0:	69fb      	ldr	r3, [r7, #28]
 81038e2:	005b      	lsls	r3, r3, #1
 81038e4:	2203      	movs	r2, #3
 81038e6:	fa02 f303 	lsl.w	r3, r2, r3
 81038ea:	43db      	mvns	r3, r3
 81038ec:	69ba      	ldr	r2, [r7, #24]
 81038ee:	4013      	ands	r3, r2
 81038f0:	61bb      	str	r3, [r7, #24]
      temp |= ((GPIO_Init->Pull) << (position * 2U));
 81038f2:	683b      	ldr	r3, [r7, #0]
 81038f4:	689a      	ldr	r2, [r3, #8]
 81038f6:	69fb      	ldr	r3, [r7, #28]
 81038f8:	005b      	lsls	r3, r3, #1
 81038fa:	fa02 f303 	lsl.w	r3, r2, r3
 81038fe:	69ba      	ldr	r2, [r7, #24]
 8103900:	4313      	orrs	r3, r2
 8103902:	61bb      	str	r3, [r7, #24]
      GPIOx->PUPDR = temp;
 8103904:	687b      	ldr	r3, [r7, #4]
 8103906:	69ba      	ldr	r2, [r7, #24]
 8103908:	60da      	str	r2, [r3, #12]
      }

      /* In case of Alternate function mode selection */
      if ((GPIO_Init->Mode & GPIO_MODE) == MODE_AF)
 810390a:	683b      	ldr	r3, [r7, #0]
 810390c:	685b      	ldr	r3, [r3, #4]
 810390e:	f003 0303 	and.w	r3, r3, #3
 8103912:	2b02      	cmp	r3, #2
 8103914:	d123      	bne.n	810395e <HAL_GPIO_Init+0x136>
        /* Check the Alternate function parameters */
        assert_param(IS_GPIO_AF_INSTANCE(GPIOx));
        assert_param(IS_GPIO_AF(GPIO_Init->Alternate));

        /* Configure Alternate function mapped with the current IO */
        temp = GPIOx->AFR[position >> 3U];
 8103916:	69fb      	ldr	r3, [r7, #28]
 8103918:	08da      	lsrs	r2, r3, #3
 810391a:	687b      	ldr	r3, [r7, #4]
 810391c:	3208      	adds	r2, #8
 810391e:	f853 3022 	ldr.w	r3, [r3, r2, lsl #2]
 8103922:	61bb      	str	r3, [r7, #24]
        temp &= ~(0xFU << ((position & 0x07U) * 4U));
 8103924:	69fb      	ldr	r3, [r7, #28]
 8103926:	f003 0307 	and.w	r3, r3, #7
 810392a:	009b      	lsls	r3, r3, #2
 810392c:	220f      	movs	r2, #15
 810392e:	fa02 f303 	lsl.w	r3, r2, r3
 8103932:	43db      	mvns	r3, r3
 8103934:	69ba      	ldr	r2, [r7, #24]
 8103936:	4013      	ands	r3, r2
 8103938:	61bb      	str	r3, [r7, #24]
        temp |= ((GPIO_Init->Alternate) << ((position & 0x07U) * 4U));
 810393a:	683b      	ldr	r3, [r7, #0]
 810393c:	691a      	ldr	r2, [r3, #16]
 810393e:	69fb      	ldr	r3, [r7, #28]
 8103940:	f003 0307 	and.w	r3, r3, #7
 8103944:	009b      	lsls	r3, r3, #2
 8103946:	fa02 f303 	lsl.w	r3, r2, r3
 810394a:	69ba      	ldr	r2, [r7, #24]
 810394c:	4313      	orrs	r3, r2
 810394e:	61bb      	str	r3, [r7, #24]
        GPIOx->AFR[position >> 3U] = temp;
 8103950:	69fb      	ldr	r3, [r7, #28]
 8103952:	08da      	lsrs	r2, r3, #3
 8103954:	687b      	ldr	r3, [r7, #4]
 8103956:	3208      	adds	r2, #8
 8103958:	69b9      	ldr	r1, [r7, #24]
 810395a:	f843 1022 	str.w	r1, [r3, r2, lsl #2]
      }

      /* Configure IO Direction mode (Input, Output, Alternate or Analog) */
      temp = GPIOx->MODER;
 810395e:	687b      	ldr	r3, [r7, #4]
 8103960:	681b      	ldr	r3, [r3, #0]
 8103962:	61bb      	str	r3, [r7, #24]
      temp &= ~(GPIO_MODER_MODE0 << (position * 2U));
 8103964:	69fb      	ldr	r3, [r7, #28]
 8103966:	005b      	lsls	r3, r3, #1
 8103968:	2203      	movs	r2, #3
 810396a:	fa02 f303 	lsl.w	r3, r2, r3
 810396e:	43db      	mvns	r3, r3
 8103970:	69ba      	ldr	r2, [r7, #24]
 8103972:	4013      	ands	r3, r2
 8103974:	61bb      	str	r3, [r7, #24]
      temp |= ((GPIO_Init->Mode & GPIO_MODE) << (position * 2U));
 8103976:	683b      	ldr	r3, [r7, #0]
 8103978:	685b      	ldr	r3, [r3, #4]
 810397a:	f003 0203 	and.w	r2, r3, #3
 810397e:	69fb      	ldr	r3, [r7, #28]
 8103980:	005b      	lsls	r3, r3, #1
 8103982:	fa02 f303 	lsl.w	r3, r2, r3
 8103986:	69ba      	ldr	r2, [r7, #24]
 8103988:	4313      	orrs	r3, r2
 810398a:	61bb      	str	r3, [r7, #24]
      GPIOx->MODER = temp;
 810398c:	687b      	ldr	r3, [r7, #4]
 810398e:	69ba      	ldr	r2, [r7, #24]
 8103990:	601a      	str	r2, [r3, #0]

      /*--------------------- EXTI Mode Configuration ------------------------*/
      /* Configure the External Interrupt or event for the current IO */
      if ((GPIO_Init->Mode & EXTI_MODE) != 0x00U)
 8103992:	683b      	ldr	r3, [r7, #0]
 8103994:	685b      	ldr	r3, [r3, #4]
 8103996:	f403 3340 	and.w	r3, r3, #196608	; 0x30000
 810399a:	2b00      	cmp	r3, #0
 810399c:	f000 80e0 	beq.w	8103b60 <HAL_GPIO_Init+0x338>
      {
        /* Enable SYSCFG Clock */
        __HAL_RCC_SYSCFG_CLK_ENABLE();
 81039a0:	4b2f      	ldr	r3, [pc, #188]	; (8103a60 <HAL_GPIO_Init+0x238>)
 81039a2:	f8d3 30f4 	ldr.w	r3, [r3, #244]	; 0xf4
 81039a6:	4a2e      	ldr	r2, [pc, #184]	; (8103a60 <HAL_GPIO_Init+0x238>)
 81039a8:	f043 0302 	orr.w	r3, r3, #2
 81039ac:	f8c2 30f4 	str.w	r3, [r2, #244]	; 0xf4
 81039b0:	4b2b      	ldr	r3, [pc, #172]	; (8103a60 <HAL_GPIO_Init+0x238>)
 81039b2:	f8d3 30f4 	ldr.w	r3, [r3, #244]	; 0xf4
 81039b6:	f003 0302 	and.w	r3, r3, #2
 81039ba:	60fb      	str	r3, [r7, #12]
 81039bc:	68fb      	ldr	r3, [r7, #12]

        temp = SYSCFG->EXTICR[position >> 2U];
 81039be:	4a29      	ldr	r2, [pc, #164]	; (8103a64 <HAL_GPIO_Init+0x23c>)
 81039c0:	69fb      	ldr	r3, [r7, #28]
 81039c2:	089b      	lsrs	r3, r3, #2
 81039c4:	3302      	adds	r3, #2
 81039c6:	f852 3023 	ldr.w	r3, [r2, r3, lsl #2]
 81039ca:	61bb      	str	r3, [r7, #24]
        temp &= ~(0x0FUL << (4U * (position & 0x03U)));
 81039cc:	69fb      	ldr	r3, [r7, #28]
 81039ce:	f003 0303 	and.w	r3, r3, #3
 81039d2:	009b      	lsls	r3, r3, #2
 81039d4:	220f      	movs	r2, #15
 81039d6:	fa02 f303 	lsl.w	r3, r2, r3
 81039da:	43db      	mvns	r3, r3
 81039dc:	69ba      	ldr	r2, [r7, #24]
 81039de:	4013      	ands	r3, r2
 81039e0:	61bb      	str	r3, [r7, #24]
        temp |= (GPIO_GET_INDEX(GPIOx) << (4U * (position & 0x03U)));
 81039e2:	687b      	ldr	r3, [r7, #4]
 81039e4:	4a20      	ldr	r2, [pc, #128]	; (8103a68 <HAL_GPIO_Init+0x240>)
 81039e6:	4293      	cmp	r3, r2
 81039e8:	d052      	beq.n	8103a90 <HAL_GPIO_Init+0x268>
 81039ea:	687b      	ldr	r3, [r7, #4]
 81039ec:	4a1f      	ldr	r2, [pc, #124]	; (8103a6c <HAL_GPIO_Init+0x244>)
 81039ee:	4293      	cmp	r3, r2
 81039f0:	d031      	beq.n	8103a56 <HAL_GPIO_Init+0x22e>
 81039f2:	687b      	ldr	r3, [r7, #4]
 81039f4:	4a1e      	ldr	r2, [pc, #120]	; (8103a70 <HAL_GPIO_Init+0x248>)
 81039f6:	4293      	cmp	r3, r2
 81039f8:	d02b      	beq.n	8103a52 <HAL_GPIO_Init+0x22a>
 81039fa:	687b      	ldr	r3, [r7, #4]
 81039fc:	4a1d      	ldr	r2, [pc, #116]	; (8103a74 <HAL_GPIO_Init+0x24c>)
 81039fe:	4293      	cmp	r3, r2
 8103a00:	d025      	beq.n	8103a4e <HAL_GPIO_Init+0x226>
 8103a02:	687b      	ldr	r3, [r7, #4]
 8103a04:	4a1c      	ldr	r2, [pc, #112]	; (8103a78 <HAL_GPIO_Init+0x250>)
 8103a06:	4293      	cmp	r3, r2
 8103a08:	d01f      	beq.n	8103a4a <HAL_GPIO_Init+0x222>
 8103a0a:	687b      	ldr	r3, [r7, #4]
 8103a0c:	4a1b      	ldr	r2, [pc, #108]	; (8103a7c <HAL_GPIO_Init+0x254>)
 8103a0e:	4293      	cmp	r3, r2
 8103a10:	d019      	beq.n	8103a46 <HAL_GPIO_Init+0x21e>
 8103a12:	687b      	ldr	r3, [r7, #4]
 8103a14:	4a1a      	ldr	r2, [pc, #104]	; (8103a80 <HAL_GPIO_Init+0x258>)
 8103a16:	4293      	cmp	r3, r2
 8103a18:	d013      	beq.n	8103a42 <HAL_GPIO_Init+0x21a>
 8103a1a:	687b      	ldr	r3, [r7, #4]
 8103a1c:	4a19      	ldr	r2, [pc, #100]	; (8103a84 <HAL_GPIO_Init+0x25c>)
 8103a1e:	4293      	cmp	r3, r2
 8103a20:	d00d      	beq.n	8103a3e <HAL_GPIO_Init+0x216>
 8103a22:	687b      	ldr	r3, [r7, #4]
 8103a24:	4a18      	ldr	r2, [pc, #96]	; (8103a88 <HAL_GPIO_Init+0x260>)
 8103a26:	4293      	cmp	r3, r2
 8103a28:	d007      	beq.n	8103a3a <HAL_GPIO_Init+0x212>
 8103a2a:	687b      	ldr	r3, [r7, #4]
 8103a2c:	4a17      	ldr	r2, [pc, #92]	; (8103a8c <HAL_GPIO_Init+0x264>)
 8103a2e:	4293      	cmp	r3, r2
 8103a30:	d101      	bne.n	8103a36 <HAL_GPIO_Init+0x20e>
 8103a32:	2309      	movs	r3, #9
 8103a34:	e02d      	b.n	8103a92 <HAL_GPIO_Init+0x26a>
 8103a36:	230a      	movs	r3, #10
 8103a38:	e02b      	b.n	8103a92 <HAL_GPIO_Init+0x26a>
 8103a3a:	2308      	movs	r3, #8
 8103a3c:	e029      	b.n	8103a92 <HAL_GPIO_Init+0x26a>
 8103a3e:	2307      	movs	r3, #7
 8103a40:	e027      	b.n	8103a92 <HAL_GPIO_Init+0x26a>
 8103a42:	2306      	movs	r3, #6
 8103a44:	e025      	b.n	8103a92 <HAL_GPIO_Init+0x26a>
 8103a46:	2305      	movs	r3, #5
 8103a48:	e023      	b.n	8103a92 <HAL_GPIO_Init+0x26a>
 8103a4a:	2304      	movs	r3, #4
 8103a4c:	e021      	b.n	8103a92 <HAL_GPIO_Init+0x26a>
 8103a4e:	2303      	movs	r3, #3
 8103a50:	e01f      	b.n	8103a92 <HAL_GPIO_Init+0x26a>
 8103a52:	2302      	movs	r3, #2
 8103a54:	e01d      	b.n	8103a92 <HAL_GPIO_Init+0x26a>
 8103a56:	2301      	movs	r3, #1
 8103a58:	e01b      	b.n	8103a92 <HAL_GPIO_Init+0x26a>
 8103a5a:	bf00      	nop
 8103a5c:	580000c0 	.word	0x580000c0
 8103a60:	58024400 	.word	0x58024400
 8103a64:	58000400 	.word	0x58000400
 8103a68:	58020000 	.word	0x58020000
 8103a6c:	58020400 	.word	0x58020400
 8103a70:	58020800 	.word	0x58020800
 8103a74:	58020c00 	.word	0x58020c00
 8103a78:	58021000 	.word	0x58021000
 8103a7c:	58021400 	.word	0x58021400
 8103a80:	58021800 	.word	0x58021800
 8103a84:	58021c00 	.word	0x58021c00
 8103a88:	58022000 	.word	0x58022000
 8103a8c:	58022400 	.word	0x58022400
 8103a90:	2300      	movs	r3, #0
 8103a92:	69fa      	ldr	r2, [r7, #28]
 8103a94:	f002 0203 	and.w	r2, r2, #3
 8103a98:	0092      	lsls	r2, r2, #2
 8103a9a:	4093      	lsls	r3, r2
 8103a9c:	69ba      	ldr	r2, [r7, #24]
 8103a9e:	4313      	orrs	r3, r2
 8103aa0:	61bb      	str	r3, [r7, #24]
        SYSCFG->EXTICR[position >> 2U] = temp;
 8103aa2:	4938      	ldr	r1, [pc, #224]	; (8103b84 <HAL_GPIO_Init+0x35c>)
 8103aa4:	69fb      	ldr	r3, [r7, #28]
 8103aa6:	089b      	lsrs	r3, r3, #2
 8103aa8:	3302      	adds	r3, #2
 8103aaa:	69ba      	ldr	r2, [r7, #24]
 8103aac:	f841 2023 	str.w	r2, [r1, r3, lsl #2]

        /* Clear Rising Falling edge configuration */
        temp = EXTI->RTSR1;
 8103ab0:	f04f 43b0 	mov.w	r3, #1476395008	; 0x58000000
 8103ab4:	681b      	ldr	r3, [r3, #0]
 8103ab6:	61bb      	str	r3, [r7, #24]
        temp &= ~(iocurrent);
 8103ab8:	693b      	ldr	r3, [r7, #16]
 8103aba:	43db      	mvns	r3, r3
 8103abc:	69ba      	ldr	r2, [r7, #24]
 8103abe:	4013      	ands	r3, r2
 8103ac0:	61bb      	str	r3, [r7, #24]
        if ((GPIO_Init->Mode & TRIGGER_RISING) != 0x00U)
 8103ac2:	683b      	ldr	r3, [r7, #0]
 8103ac4:	685b      	ldr	r3, [r3, #4]
 8103ac6:	f403 1380 	and.w	r3, r3, #1048576	; 0x100000
 8103aca:	2b00      	cmp	r3, #0
 8103acc:	d003      	beq.n	8103ad6 <HAL_GPIO_Init+0x2ae>
        {
          temp |= iocurrent;
 8103ace:	69ba      	ldr	r2, [r7, #24]
 8103ad0:	693b      	ldr	r3, [r7, #16]
 8103ad2:	4313      	orrs	r3, r2
 8103ad4:	61bb      	str	r3, [r7, #24]
        }
        EXTI->RTSR1 = temp;
 8103ad6:	f04f 42b0 	mov.w	r2, #1476395008	; 0x58000000
 8103ada:	69bb      	ldr	r3, [r7, #24]
 8103adc:	6013      	str	r3, [r2, #0]

        temp = EXTI->FTSR1;
 8103ade:	f04f 43b0 	mov.w	r3, #1476395008	; 0x58000000
 8103ae2:	685b      	ldr	r3, [r3, #4]
 8103ae4:	61bb      	str	r3, [r7, #24]
        temp &= ~(iocurrent);
 8103ae6:	693b      	ldr	r3, [r7, #16]
 8103ae8:	43db      	mvns	r3, r3
 8103aea:	69ba      	ldr	r2, [r7, #24]
 8103aec:	4013      	ands	r3, r2
 8103aee:	61bb      	str	r3, [r7, #24]
        if ((GPIO_Init->Mode & TRIGGER_FALLING) != 0x00U)
 8103af0:	683b      	ldr	r3, [r7, #0]
 8103af2:	685b      	ldr	r3, [r3, #4]
 8103af4:	f403 1300 	and.w	r3, r3, #2097152	; 0x200000
 8103af8:	2b00      	cmp	r3, #0
 8103afa:	d003      	beq.n	8103b04 <HAL_GPIO_Init+0x2dc>
        {
          temp |= iocurrent;
 8103afc:	69ba      	ldr	r2, [r7, #24]
 8103afe:	693b      	ldr	r3, [r7, #16]
 8103b00:	4313      	orrs	r3, r2
 8103b02:	61bb      	str	r3, [r7, #24]
        }
        EXTI->FTSR1 = temp;
 8103b04:	f04f 42b0 	mov.w	r2, #1476395008	; 0x58000000
 8103b08:	69bb      	ldr	r3, [r7, #24]
 8103b0a:	6053      	str	r3, [r2, #4]

        temp = EXTI_CurrentCPU->EMR1;
 8103b0c:	697b      	ldr	r3, [r7, #20]
 8103b0e:	685b      	ldr	r3, [r3, #4]
 8103b10:	61bb      	str	r3, [r7, #24]
        temp &= ~(iocurrent);
 8103b12:	693b      	ldr	r3, [r7, #16]
 8103b14:	43db      	mvns	r3, r3
 8103b16:	69ba      	ldr	r2, [r7, #24]
 8103b18:	4013      	ands	r3, r2
 8103b1a:	61bb      	str	r3, [r7, #24]
        if ((GPIO_Init->Mode & EXTI_EVT) != 0x00U)
 8103b1c:	683b      	ldr	r3, [r7, #0]
 8103b1e:	685b      	ldr	r3, [r3, #4]
 8103b20:	f403 3300 	and.w	r3, r3, #131072	; 0x20000
 8103b24:	2b00      	cmp	r3, #0
 8103b26:	d003      	beq.n	8103b30 <HAL_GPIO_Init+0x308>
        {
          temp |= iocurrent;
 8103b28:	69ba      	ldr	r2, [r7, #24]
 8103b2a:	693b      	ldr	r3, [r7, #16]
 8103b2c:	4313      	orrs	r3, r2
 8103b2e:	61bb      	str	r3, [r7, #24]
        }
        EXTI_CurrentCPU->EMR1 = temp;
 8103b30:	697b      	ldr	r3, [r7, #20]
 8103b32:	69ba      	ldr	r2, [r7, #24]
 8103b34:	605a      	str	r2, [r3, #4]

        /* Clear EXTI line configuration */
        temp = EXTI_CurrentCPU->IMR1;
 8103b36:	697b      	ldr	r3, [r7, #20]
 8103b38:	681b      	ldr	r3, [r3, #0]
 8103b3a:	61bb      	str	r3, [r7, #24]
        temp &= ~(iocurrent);
 8103b3c:	693b      	ldr	r3, [r7, #16]
 8103b3e:	43db      	mvns	r3, r3
 8103b40:	69ba      	ldr	r2, [r7, #24]
 8103b42:	4013      	ands	r3, r2
 8103b44:	61bb      	str	r3, [r7, #24]
        if ((GPIO_Init->Mode & EXTI_IT) != 0x00U)
 8103b46:	683b      	ldr	r3, [r7, #0]
 8103b48:	685b      	ldr	r3, [r3, #4]
 8103b4a:	f403 3380 	and.w	r3, r3, #65536	; 0x10000
 8103b4e:	2b00      	cmp	r3, #0
 8103b50:	d003      	beq.n	8103b5a <HAL_GPIO_Init+0x332>
        {
          temp |= iocurrent;
 8103b52:	69ba      	ldr	r2, [r7, #24]
 8103b54:	693b      	ldr	r3, [r7, #16]
 8103b56:	4313      	orrs	r3, r2
 8103b58:	61bb      	str	r3, [r7, #24]
        }
        EXTI_CurrentCPU->IMR1 = temp;
 8103b5a:	697b      	ldr	r3, [r7, #20]
 8103b5c:	69ba      	ldr	r2, [r7, #24]
 8103b5e:	601a      	str	r2, [r3, #0]
      }
    }

    position++;
 8103b60:	69fb      	ldr	r3, [r7, #28]
 8103b62:	3301      	adds	r3, #1
 8103b64:	61fb      	str	r3, [r7, #28]
  while (((GPIO_Init->Pin) >> position) != 0x00U)
 8103b66:	683b      	ldr	r3, [r7, #0]
 8103b68:	681a      	ldr	r2, [r3, #0]
 8103b6a:	69fb      	ldr	r3, [r7, #28]
 8103b6c:	fa22 f303 	lsr.w	r3, r2, r3
 8103b70:	2b00      	cmp	r3, #0
 8103b72:	f47f ae63 	bne.w	810383c <HAL_GPIO_Init+0x14>
  }
}
 8103b76:	bf00      	nop
 8103b78:	bf00      	nop
 8103b7a:	3724      	adds	r7, #36	; 0x24
 8103b7c:	46bd      	mov	sp, r7
 8103b7e:	f85d 7b04 	ldr.w	r7, [sp], #4
 8103b82:	4770      	bx	lr
 8103b84:	58000400 	.word	0x58000400

08103b88 <HAL_GPIO_WritePin>:
  *            @arg GPIO_PIN_RESET: to clear the port pin
  *            @arg GPIO_PIN_SET: to set the port pin
  * @retval None
  */
void HAL_GPIO_WritePin(GPIO_TypeDef *GPIOx, uint16_t GPIO_Pin, GPIO_PinState PinState)
{
 8103b88:	b480      	push	{r7}
 8103b8a:	b083      	sub	sp, #12
 8103b8c:	af00      	add	r7, sp, #0
 8103b8e:	6078      	str	r0, [r7, #4]
 8103b90:	460b      	mov	r3, r1
 8103b92:	807b      	strh	r3, [r7, #2]
 8103b94:	4613      	mov	r3, r2
 8103b96:	707b      	strb	r3, [r7, #1]
  /* Check the parameters */
  assert_param(IS_GPIO_PIN(GPIO_Pin));
  assert_param(IS_GPIO_PIN_ACTION(PinState));

  if (PinState != GPIO_PIN_RESET)
 8103b98:	787b      	ldrb	r3, [r7, #1]
 8103b9a:	2b00      	cmp	r3, #0
 8103b9c:	d003      	beq.n	8103ba6 <HAL_GPIO_WritePin+0x1e>
  {
    GPIOx->BSRR = GPIO_Pin;
 8103b9e:	887a      	ldrh	r2, [r7, #2]
 8103ba0:	687b      	ldr	r3, [r7, #4]
 8103ba2:	619a      	str	r2, [r3, #24]
  }
  else
  {
    GPIOx->BSRR = (uint32_t)GPIO_Pin << GPIO_NUMBER;
  }
}
 8103ba4:	e003      	b.n	8103bae <HAL_GPIO_WritePin+0x26>
    GPIOx->BSRR = (uint32_t)GPIO_Pin << GPIO_NUMBER;
 8103ba6:	887b      	ldrh	r3, [r7, #2]
 8103ba8:	041a      	lsls	r2, r3, #16
 8103baa:	687b      	ldr	r3, [r7, #4]
 8103bac:	619a      	str	r2, [r3, #24]
}
 8103bae:	bf00      	nop
 8103bb0:	370c      	adds	r7, #12
 8103bb2:	46bd      	mov	sp, r7
 8103bb4:	f85d 7b04 	ldr.w	r7, [sp], #4
 8103bb8:	4770      	bx	lr

08103bba <HAL_GPIO_TogglePin>:
  * @param  GPIOx: Where x can be (A..K) to select the GPIO peripheral.
  * @param  GPIO_Pin: Specifies the pins to be toggled.
  * @retval None
  */
void HAL_GPIO_TogglePin(GPIO_TypeDef *GPIOx, uint16_t GPIO_Pin)
{
 8103bba:	b480      	push	{r7}
 8103bbc:	b085      	sub	sp, #20
 8103bbe:	af00      	add	r7, sp, #0
 8103bc0:	6078      	str	r0, [r7, #4]
 8103bc2:	460b      	mov	r3, r1
 8103bc4:	807b      	strh	r3, [r7, #2]

  /* Check the parameters */
  assert_param(IS_GPIO_PIN(GPIO_Pin));

  /* get current Output Data Register value */
  odr = GPIOx->ODR;
 8103bc6:	687b      	ldr	r3, [r7, #4]
 8103bc8:	695b      	ldr	r3, [r3, #20]
 8103bca:	60fb      	str	r3, [r7, #12]

  /* Set selected pins that were at low level, and reset ones that were high */
  GPIOx->BSRR = ((odr & GPIO_Pin) << GPIO_NUMBER) | (~odr & GPIO_Pin);
 8103bcc:	887a      	ldrh	r2, [r7, #2]
 8103bce:	68fb      	ldr	r3, [r7, #12]
 8103bd0:	4013      	ands	r3, r2
 8103bd2:	041a      	lsls	r2, r3, #16
 8103bd4:	68fb      	ldr	r3, [r7, #12]
 8103bd6:	43d9      	mvns	r1, r3
 8103bd8:	887b      	ldrh	r3, [r7, #2]
 8103bda:	400b      	ands	r3, r1
 8103bdc:	431a      	orrs	r2, r3
 8103bde:	687b      	ldr	r3, [r7, #4]
 8103be0:	619a      	str	r2, [r3, #24]
}
 8103be2:	bf00      	nop
 8103be4:	3714      	adds	r7, #20
 8103be6:	46bd      	mov	sp, r7
 8103be8:	f85d 7b04 	ldr.w	r7, [sp], #4
 8103bec:	4770      	bx	lr
	...

08103bf0 <HAL_HSEM_ActivateNotification>:
  * @brief  Activate Semaphore release Notification for a given Semaphores Mask .
  * @param  SemMask: Mask of Released semaphores
  * @retval Semaphore Key
  */
void HAL_HSEM_ActivateNotification(uint32_t SemMask)
{
 8103bf0:	b480      	push	{r7}
 8103bf2:	b083      	sub	sp, #12
 8103bf4:	af00      	add	r7, sp, #0
 8103bf6:	6078      	str	r0, [r7, #4]
  {
    /*Use interrupt line 1 for CPU2 Master*/
    HSEM->C2IER |= SemMask;
  }
#else
  HSEM_COMMON->IER |= SemMask;
 8103bf8:	4b05      	ldr	r3, [pc, #20]	; (8103c10 <HAL_HSEM_ActivateNotification+0x20>)
 8103bfa:	681a      	ldr	r2, [r3, #0]
 8103bfc:	4904      	ldr	r1, [pc, #16]	; (8103c10 <HAL_HSEM_ActivateNotification+0x20>)
 8103bfe:	687b      	ldr	r3, [r7, #4]
 8103c00:	4313      	orrs	r3, r2
 8103c02:	600b      	str	r3, [r1, #0]
#endif
}
 8103c04:	bf00      	nop
 8103c06:	370c      	adds	r7, #12
 8103c08:	46bd      	mov	sp, r7
 8103c0a:	f85d 7b04 	ldr.w	r7, [sp], #4
 8103c0e:	4770      	bx	lr
 8103c10:	58026510 	.word	0x58026510

08103c14 <HAL_PWREx_EnterSTOPMode>:
  *            @arg PWR_D2_DOMAIN : Enter D2 Domain to DSTOP mode.
  *            @arg PWR_D3_DOMAIN : Enter D3/SRD Domain to DSTOP mode.
  * @retval None.
  */
void HAL_PWREx_EnterSTOPMode (uint32_t Regulator, uint8_t STOPEntry, uint32_t Domain)
{
 8103c14:	b580      	push	{r7, lr}
 8103c16:	b084      	sub	sp, #16
 8103c18:	af00      	add	r7, sp, #0
 8103c1a:	60f8      	str	r0, [r7, #12]
 8103c1c:	460b      	mov	r3, r1
 8103c1e:	607a      	str	r2, [r7, #4]
 8103c20:	72fb      	strb	r3, [r7, #11]
  assert_param (IS_PWR_REGULATOR (Regulator));
  assert_param (IS_PWR_STOP_ENTRY (STOPEntry));
  assert_param (IS_PWR_DOMAIN (Domain));

  /* Select the regulator state in Stop mode */
  MODIFY_REG (PWR->CR1, PWR_CR1_LPDS, Regulator);
 8103c22:	4b37      	ldr	r3, [pc, #220]	; (8103d00 <HAL_PWREx_EnterSTOPMode+0xec>)
 8103c24:	681b      	ldr	r3, [r3, #0]
 8103c26:	f023 0201 	bic.w	r2, r3, #1
 8103c2a:	4935      	ldr	r1, [pc, #212]	; (8103d00 <HAL_PWREx_EnterSTOPMode+0xec>)
 8103c2c:	68fb      	ldr	r3, [r7, #12]
 8103c2e:	4313      	orrs	r3, r2
 8103c30:	600b      	str	r3, [r1, #0]

  /* Select the domain Power Down DeepSleep */
  if (Domain == PWR_D1_DOMAIN)
 8103c32:	687b      	ldr	r3, [r7, #4]
 8103c34:	2b00      	cmp	r3, #0
 8103c36:	d123      	bne.n	8103c80 <HAL_PWREx_EnterSTOPMode+0x6c>
  {
#if defined (DUAL_CORE)
    /* Check current core */
    if (HAL_GetCurrentCPUID () != CM7_CPUID)
 8103c38:	f7fd fedc 	bl	81019f4 <HAL_GetCurrentCPUID>
 8103c3c:	4603      	mov	r3, r0
 8103c3e:	2b03      	cmp	r3, #3
 8103c40:	d158      	bne.n	8103cf4 <HAL_PWREx_EnterSTOPMode+0xe0>
      return;
    }
#endif /* defined (DUAL_CORE) */

    /* Keep DSTOP mode when D1/CD domain enters Deepsleep */
    CLEAR_BIT (PWR->CPUCR, PWR_CPUCR_PDDS_D1);
 8103c42:	4b2f      	ldr	r3, [pc, #188]	; (8103d00 <HAL_PWREx_EnterSTOPMode+0xec>)
 8103c44:	691b      	ldr	r3, [r3, #16]
 8103c46:	4a2e      	ldr	r2, [pc, #184]	; (8103d00 <HAL_PWREx_EnterSTOPMode+0xec>)
 8103c48:	f023 0301 	bic.w	r3, r3, #1
 8103c4c:	6113      	str	r3, [r2, #16]

    /* Set SLEEPDEEP bit of Cortex System Control Register */
    SET_BIT (SCB->SCR, SCB_SCR_SLEEPDEEP_Msk);
 8103c4e:	4b2d      	ldr	r3, [pc, #180]	; (8103d04 <HAL_PWREx_EnterSTOPMode+0xf0>)
 8103c50:	691b      	ldr	r3, [r3, #16]
 8103c52:	4a2c      	ldr	r2, [pc, #176]	; (8103d04 <HAL_PWREx_EnterSTOPMode+0xf0>)
 8103c54:	f043 0304 	orr.w	r3, r3, #4
 8103c58:	6113      	str	r3, [r2, #16]
  \details Acts as a special kind of Data Memory Barrier.
           It completes when all explicit memory accesses before this instruction complete.
 */
__STATIC_FORCEINLINE void __DSB(void)
{
  __ASM volatile ("dsb 0xF":::"memory");
 8103c5a:	f3bf 8f4f 	dsb	sy
}
 8103c5e:	bf00      	nop
  __ASM volatile ("isb 0xF":::"memory");
 8103c60:	f3bf 8f6f 	isb	sy
}
 8103c64:	bf00      	nop
    /* Ensure that all instructions are done before entering STOP mode */
    __DSB ();
    __ISB ();

    /* Select Stop mode entry */
    if (STOPEntry == PWR_STOPENTRY_WFI)
 8103c66:	7afb      	ldrb	r3, [r7, #11]
 8103c68:	2b01      	cmp	r3, #1
 8103c6a:	d101      	bne.n	8103c70 <HAL_PWREx_EnterSTOPMode+0x5c>
    {
      /* Request Wait For Interrupt */
      __WFI ();
 8103c6c:	bf30      	wfi
 8103c6e:	e000      	b.n	8103c72 <HAL_PWREx_EnterSTOPMode+0x5e>
    }
    else
    {
      /* Request Wait For Event */
      __WFE ();
 8103c70:	bf20      	wfe
    }

    /* Clear SLEEPDEEP bit of Cortex-Mx in the System Control Register */
    CLEAR_BIT (SCB->SCR, SCB_SCR_SLEEPDEEP_Msk);
 8103c72:	4b24      	ldr	r3, [pc, #144]	; (8103d04 <HAL_PWREx_EnterSTOPMode+0xf0>)
 8103c74:	691b      	ldr	r3, [r3, #16]
 8103c76:	4a23      	ldr	r2, [pc, #140]	; (8103d04 <HAL_PWREx_EnterSTOPMode+0xf0>)
 8103c78:	f023 0304 	bic.w	r3, r3, #4
 8103c7c:	6113      	str	r3, [r2, #16]
 8103c7e:	e03c      	b.n	8103cfa <HAL_PWREx_EnterSTOPMode+0xe6>
  }
#if defined (PWR_CPUCR_PDDS_D2)
  else if (Domain == PWR_D2_DOMAIN)
 8103c80:	687b      	ldr	r3, [r7, #4]
 8103c82:	2b01      	cmp	r3, #1
 8103c84:	d123      	bne.n	8103cce <HAL_PWREx_EnterSTOPMode+0xba>
  {
#if defined (DUAL_CORE)
    /* Check current core */
    if (HAL_GetCurrentCPUID () != CM4_CPUID)
 8103c86:	f7fd feb5 	bl	81019f4 <HAL_GetCurrentCPUID>
 8103c8a:	4603      	mov	r3, r0
 8103c8c:	2b01      	cmp	r3, #1
 8103c8e:	d133      	bne.n	8103cf8 <HAL_PWREx_EnterSTOPMode+0xe4>
      */
      return;
    }

    /* Keep DSTOP mode when D2 domain enters Deepsleep */
    CLEAR_BIT (PWR->CPU2CR, PWR_CPU2CR_PDDS_D2);
 8103c90:	4b1b      	ldr	r3, [pc, #108]	; (8103d00 <HAL_PWREx_EnterSTOPMode+0xec>)
 8103c92:	695b      	ldr	r3, [r3, #20]
 8103c94:	4a1a      	ldr	r2, [pc, #104]	; (8103d00 <HAL_PWREx_EnterSTOPMode+0xec>)
 8103c96:	f023 0302 	bic.w	r3, r3, #2
 8103c9a:	6153      	str	r3, [r2, #20]

    /* Set SLEEPDEEP bit of Cortex System Control Register */
    SET_BIT (SCB->SCR, SCB_SCR_SLEEPDEEP_Msk);
 8103c9c:	4b19      	ldr	r3, [pc, #100]	; (8103d04 <HAL_PWREx_EnterSTOPMode+0xf0>)
 8103c9e:	691b      	ldr	r3, [r3, #16]
 8103ca0:	4a18      	ldr	r2, [pc, #96]	; (8103d04 <HAL_PWREx_EnterSTOPMode+0xf0>)
 8103ca2:	f043 0304 	orr.w	r3, r3, #4
 8103ca6:	6113      	str	r3, [r2, #16]
  __ASM volatile ("dsb 0xF":::"memory");
 8103ca8:	f3bf 8f4f 	dsb	sy
}
 8103cac:	bf00      	nop
  __ASM volatile ("isb 0xF":::"memory");
 8103cae:	f3bf 8f6f 	isb	sy
}
 8103cb2:	bf00      	nop
    /* Ensure that all instructions are done before entering STOP mode */
    __DSB ();
    __ISB ();

    /* Select Stop mode entry */
    if (STOPEntry == PWR_STOPENTRY_WFI)
 8103cb4:	7afb      	ldrb	r3, [r7, #11]
 8103cb6:	2b01      	cmp	r3, #1
 8103cb8:	d101      	bne.n	8103cbe <HAL_PWREx_EnterSTOPMode+0xaa>
    {
      /* Request Wait For Interrupt */
      __WFI ();
 8103cba:	bf30      	wfi
 8103cbc:	e000      	b.n	8103cc0 <HAL_PWREx_EnterSTOPMode+0xac>
    }
    else
    {
      /* Request Wait For Event */
      __WFE ();
 8103cbe:	bf20      	wfe
    }

    /* Clear SLEEPDEEP bit of Cortex-Mx in the System Control Register */
    CLEAR_BIT (SCB->SCR, SCB_SCR_SLEEPDEEP_Msk);
 8103cc0:	4b10      	ldr	r3, [pc, #64]	; (8103d04 <HAL_PWREx_EnterSTOPMode+0xf0>)
 8103cc2:	691b      	ldr	r3, [r3, #16]
 8103cc4:	4a0f      	ldr	r2, [pc, #60]	; (8103d04 <HAL_PWREx_EnterSTOPMode+0xf0>)
 8103cc6:	f023 0304 	bic.w	r3, r3, #4
 8103cca:	6113      	str	r3, [r2, #16]
 8103ccc:	e015      	b.n	8103cfa <HAL_PWREx_EnterSTOPMode+0xe6>
#endif /* defined (PWR_CPUCR_PDDS_D2) */
  else
  {
#if defined (DUAL_CORE)
    /* Check current core */
    if (HAL_GetCurrentCPUID () == CM7_CPUID)
 8103cce:	f7fd fe91 	bl	81019f4 <HAL_GetCurrentCPUID>
 8103cd2:	4603      	mov	r3, r0
 8103cd4:	2b03      	cmp	r3, #3
 8103cd6:	d106      	bne.n	8103ce6 <HAL_PWREx_EnterSTOPMode+0xd2>
    {
      /* Keep DSTOP mode when D3 domain enters Deepsleep */
      CLEAR_BIT (PWR->CPUCR, PWR_CPUCR_PDDS_D3);
 8103cd8:	4b09      	ldr	r3, [pc, #36]	; (8103d00 <HAL_PWREx_EnterSTOPMode+0xec>)
 8103cda:	691b      	ldr	r3, [r3, #16]
 8103cdc:	4a08      	ldr	r2, [pc, #32]	; (8103d00 <HAL_PWREx_EnterSTOPMode+0xec>)
 8103cde:	f023 0304 	bic.w	r3, r3, #4
 8103ce2:	6113      	str	r3, [r2, #16]
 8103ce4:	e009      	b.n	8103cfa <HAL_PWREx_EnterSTOPMode+0xe6>
    }
    else
    {
      /* Keep DSTOP mode when D3 domain enters Deepsleep */
      CLEAR_BIT (PWR->CPU2CR, PWR_CPU2CR_PDDS_D3);
 8103ce6:	4b06      	ldr	r3, [pc, #24]	; (8103d00 <HAL_PWREx_EnterSTOPMode+0xec>)
 8103ce8:	695b      	ldr	r3, [r3, #20]
 8103cea:	4a05      	ldr	r2, [pc, #20]	; (8103d00 <HAL_PWREx_EnterSTOPMode+0xec>)
 8103cec:	f023 0304 	bic.w	r3, r3, #4
 8103cf0:	6153      	str	r3, [r2, #20]
 8103cf2:	e002      	b.n	8103cfa <HAL_PWREx_EnterSTOPMode+0xe6>
      return;
 8103cf4:	bf00      	nop
 8103cf6:	e000      	b.n	8103cfa <HAL_PWREx_EnterSTOPMode+0xe6>
      return;
 8103cf8:	bf00      	nop
#else
    /* Keep DSTOP mode when D3/SRD domain enters Deepsleep */
    CLEAR_BIT (PWR->CPUCR, PWR_CPUCR_PDDS_D3);
#endif  /* defined (DUAL_CORE) */
  }
}
 8103cfa:	3710      	adds	r7, #16
 8103cfc:	46bd      	mov	sp, r7
 8103cfe:	bd80      	pop	{r7, pc}
 8103d00:	58024800 	.word	0x58024800
 8103d04:	e000ed00 	.word	0xe000ed00

08103d08 <HAL_PWREx_ClearPendingEvent>:
  *         enter low power mode using Wait For Event request.
  * @note   Cortex-M7 must be in CRUN mode when calling this API by Cortex-M4.
  * @retval None.
  */
void HAL_PWREx_ClearPendingEvent (void)
{
 8103d08:	b580      	push	{r7, lr}
 8103d0a:	af00      	add	r7, sp, #0
#if defined (DUAL_CORE)
  /* Check the current Core */
  if (HAL_GetCurrentCPUID () == CM7_CPUID)
 8103d0c:	f7fd fe72 	bl	81019f4 <HAL_GetCurrentCPUID>
 8103d10:	4603      	mov	r3, r0
 8103d12:	2b03      	cmp	r3, #3
 8103d14:	d101      	bne.n	8103d1a <HAL_PWREx_ClearPendingEvent+0x12>
  {
    __WFE ();
 8103d16:	bf20      	wfe
    __WFE ();
  }
#else
  __WFE ();
#endif /* defined (DUAL_CORE) */
}
 8103d18:	e001      	b.n	8103d1e <HAL_PWREx_ClearPendingEvent+0x16>
    __SEV ();
 8103d1a:	bf40      	sev
    __WFE ();
 8103d1c:	bf20      	wfe
}
 8103d1e:	bf00      	nop
 8103d20:	bd80      	pop	{r7, pc}
	...

08103d24 <HAL_RCC_GetSysClockFreq>:
  *
  *
  * @retval SYSCLK frequency
  */
uint32_t HAL_RCC_GetSysClockFreq(void)
{
 8103d24:	b480      	push	{r7}
 8103d26:	b089      	sub	sp, #36	; 0x24
 8103d28:	af00      	add	r7, sp, #0
  float_t fracn1, pllvco;
  uint32_t sysclockfreq;

  /* Get SYSCLK source -------------------------------------------------------*/

  switch (RCC->CFGR & RCC_CFGR_SWS)
 8103d2a:	4bb3      	ldr	r3, [pc, #716]	; (8103ff8 <HAL_RCC_GetSysClockFreq+0x2d4>)
 8103d2c:	691b      	ldr	r3, [r3, #16]
 8103d2e:	f003 0338 	and.w	r3, r3, #56	; 0x38
 8103d32:	2b18      	cmp	r3, #24
 8103d34:	f200 8155 	bhi.w	8103fe2 <HAL_RCC_GetSysClockFreq+0x2be>
 8103d38:	a201      	add	r2, pc, #4	; (adr r2, 8103d40 <HAL_RCC_GetSysClockFreq+0x1c>)
 8103d3a:	f852 f023 	ldr.w	pc, [r2, r3, lsl #2]
 8103d3e:	bf00      	nop
 8103d40:	08103da5 	.word	0x08103da5
 8103d44:	08103fe3 	.word	0x08103fe3
 8103d48:	08103fe3 	.word	0x08103fe3
 8103d4c:	08103fe3 	.word	0x08103fe3
 8103d50:	08103fe3 	.word	0x08103fe3
 8103d54:	08103fe3 	.word	0x08103fe3
 8103d58:	08103fe3 	.word	0x08103fe3
 8103d5c:	08103fe3 	.word	0x08103fe3
 8103d60:	08103dcb 	.word	0x08103dcb
 8103d64:	08103fe3 	.word	0x08103fe3
 8103d68:	08103fe3 	.word	0x08103fe3
 8103d6c:	08103fe3 	.word	0x08103fe3
 8103d70:	08103fe3 	.word	0x08103fe3
 8103d74:	08103fe3 	.word	0x08103fe3
 8103d78:	08103fe3 	.word	0x08103fe3
 8103d7c:	08103fe3 	.word	0x08103fe3
 8103d80:	08103dd1 	.word	0x08103dd1
 8103d84:	08103fe3 	.word	0x08103fe3
 8103d88:	08103fe3 	.word	0x08103fe3
 8103d8c:	08103fe3 	.word	0x08103fe3
 8103d90:	08103fe3 	.word	0x08103fe3
 8103d94:	08103fe3 	.word	0x08103fe3
 8103d98:	08103fe3 	.word	0x08103fe3
 8103d9c:	08103fe3 	.word	0x08103fe3
 8103da0:	08103dd7 	.word	0x08103dd7
  {
  case RCC_CFGR_SWS_HSI:  /* HSI used as system clock source */

   if (__HAL_RCC_GET_FLAG(RCC_FLAG_HSIDIV) != 0U)
 8103da4:	4b94      	ldr	r3, [pc, #592]	; (8103ff8 <HAL_RCC_GetSysClockFreq+0x2d4>)
 8103da6:	681b      	ldr	r3, [r3, #0]
 8103da8:	f003 0320 	and.w	r3, r3, #32
 8103dac:	2b00      	cmp	r3, #0
 8103dae:	d009      	beq.n	8103dc4 <HAL_RCC_GetSysClockFreq+0xa0>
      {
        sysclockfreq = (uint32_t) (HSI_VALUE >> (__HAL_RCC_GET_HSI_DIVIDER()>> 3));
 8103db0:	4b91      	ldr	r3, [pc, #580]	; (8103ff8 <HAL_RCC_GetSysClockFreq+0x2d4>)
 8103db2:	681b      	ldr	r3, [r3, #0]
 8103db4:	08db      	lsrs	r3, r3, #3
 8103db6:	f003 0303 	and.w	r3, r3, #3
 8103dba:	4a90      	ldr	r2, [pc, #576]	; (8103ffc <HAL_RCC_GetSysClockFreq+0x2d8>)
 8103dbc:	fa22 f303 	lsr.w	r3, r2, r3
 8103dc0:	61bb      	str	r3, [r7, #24]
      else
      {
        sysclockfreq = (uint32_t) HSI_VALUE;
      }

    break;
 8103dc2:	e111      	b.n	8103fe8 <HAL_RCC_GetSysClockFreq+0x2c4>
        sysclockfreq = (uint32_t) HSI_VALUE;
 8103dc4:	4b8d      	ldr	r3, [pc, #564]	; (8103ffc <HAL_RCC_GetSysClockFreq+0x2d8>)
 8103dc6:	61bb      	str	r3, [r7, #24]
    break;
 8103dc8:	e10e      	b.n	8103fe8 <HAL_RCC_GetSysClockFreq+0x2c4>

  case RCC_CFGR_SWS_CSI:  /* CSI used as system clock  source */
    sysclockfreq = CSI_VALUE;
 8103dca:	4b8d      	ldr	r3, [pc, #564]	; (8104000 <HAL_RCC_GetSysClockFreq+0x2dc>)
 8103dcc:	61bb      	str	r3, [r7, #24]
    break;
 8103dce:	e10b      	b.n	8103fe8 <HAL_RCC_GetSysClockFreq+0x2c4>

  case RCC_CFGR_SWS_HSE:  /* HSE used as system clock  source */
    sysclockfreq = HSE_VALUE;
 8103dd0:	4b8c      	ldr	r3, [pc, #560]	; (8104004 <HAL_RCC_GetSysClockFreq+0x2e0>)
 8103dd2:	61bb      	str	r3, [r7, #24]
    break;
 8103dd4:	e108      	b.n	8103fe8 <HAL_RCC_GetSysClockFreq+0x2c4>
  case RCC_CFGR_SWS_PLL1:  /* PLL1 used as system clock  source */

    /* PLL_VCO = (HSE_VALUE or HSI_VALUE or CSI_VALUE/ PLLM) * PLLN
    SYSCLK = PLL_VCO / PLLR
    */
    pllsource = (RCC->PLLCKSELR & RCC_PLLCKSELR_PLLSRC);
 8103dd6:	4b88      	ldr	r3, [pc, #544]	; (8103ff8 <HAL_RCC_GetSysClockFreq+0x2d4>)
 8103dd8:	6a9b      	ldr	r3, [r3, #40]	; 0x28
 8103dda:	f003 0303 	and.w	r3, r3, #3
 8103dde:	617b      	str	r3, [r7, #20]
    pllm = ((RCC->PLLCKSELR & RCC_PLLCKSELR_DIVM1)>> 4)  ;
 8103de0:	4b85      	ldr	r3, [pc, #532]	; (8103ff8 <HAL_RCC_GetSysClockFreq+0x2d4>)
 8103de2:	6a9b      	ldr	r3, [r3, #40]	; 0x28
 8103de4:	091b      	lsrs	r3, r3, #4
 8103de6:	f003 033f 	and.w	r3, r3, #63	; 0x3f
 8103dea:	613b      	str	r3, [r7, #16]
    pllfracen = ((RCC-> PLLCFGR & RCC_PLLCFGR_PLL1FRACEN)>>RCC_PLLCFGR_PLL1FRACEN_Pos);
 8103dec:	4b82      	ldr	r3, [pc, #520]	; (8103ff8 <HAL_RCC_GetSysClockFreq+0x2d4>)
 8103dee:	6adb      	ldr	r3, [r3, #44]	; 0x2c
 8103df0:	f003 0301 	and.w	r3, r3, #1
 8103df4:	60fb      	str	r3, [r7, #12]
    fracn1 = (float_t)(uint32_t)(pllfracen* ((RCC->PLL1FRACR & RCC_PLL1FRACR_FRACN1)>> 3));
 8103df6:	4b80      	ldr	r3, [pc, #512]	; (8103ff8 <HAL_RCC_GetSysClockFreq+0x2d4>)
 8103df8:	6b5b      	ldr	r3, [r3, #52]	; 0x34
 8103dfa:	08db      	lsrs	r3, r3, #3
 8103dfc:	f3c3 030c 	ubfx	r3, r3, #0, #13
 8103e00:	68fa      	ldr	r2, [r7, #12]
 8103e02:	fb02 f303 	mul.w	r3, r2, r3
 8103e06:	ee07 3a90 	vmov	s15, r3
 8103e0a:	eef8 7a67 	vcvt.f32.u32	s15, s15
 8103e0e:	edc7 7a02 	vstr	s15, [r7, #8]

    if (pllm != 0U)
 8103e12:	693b      	ldr	r3, [r7, #16]
 8103e14:	2b00      	cmp	r3, #0
 8103e16:	f000 80e1 	beq.w	8103fdc <HAL_RCC_GetSysClockFreq+0x2b8>
 8103e1a:	697b      	ldr	r3, [r7, #20]
 8103e1c:	2b02      	cmp	r3, #2
 8103e1e:	f000 8083 	beq.w	8103f28 <HAL_RCC_GetSysClockFreq+0x204>
 8103e22:	697b      	ldr	r3, [r7, #20]
 8103e24:	2b02      	cmp	r3, #2
 8103e26:	f200 80a1 	bhi.w	8103f6c <HAL_RCC_GetSysClockFreq+0x248>
 8103e2a:	697b      	ldr	r3, [r7, #20]
 8103e2c:	2b00      	cmp	r3, #0
 8103e2e:	d003      	beq.n	8103e38 <HAL_RCC_GetSysClockFreq+0x114>
 8103e30:	697b      	ldr	r3, [r7, #20]
 8103e32:	2b01      	cmp	r3, #1
 8103e34:	d056      	beq.n	8103ee4 <HAL_RCC_GetSysClockFreq+0x1c0>
 8103e36:	e099      	b.n	8103f6c <HAL_RCC_GetSysClockFreq+0x248>
    {
      switch (pllsource)
      {
      case RCC_PLLSOURCE_HSI:  /* HSI used as PLL clock source */

       if (__HAL_RCC_GET_FLAG(RCC_FLAG_HSIDIV) != 0U)
 8103e38:	4b6f      	ldr	r3, [pc, #444]	; (8103ff8 <HAL_RCC_GetSysClockFreq+0x2d4>)
 8103e3a:	681b      	ldr	r3, [r3, #0]
 8103e3c:	f003 0320 	and.w	r3, r3, #32
 8103e40:	2b00      	cmp	r3, #0
 8103e42:	d02d      	beq.n	8103ea0 <HAL_RCC_GetSysClockFreq+0x17c>
        {
          hsivalue= (HSI_VALUE >> (__HAL_RCC_GET_HSI_DIVIDER()>> 3));
 8103e44:	4b6c      	ldr	r3, [pc, #432]	; (8103ff8 <HAL_RCC_GetSysClockFreq+0x2d4>)
 8103e46:	681b      	ldr	r3, [r3, #0]
 8103e48:	08db      	lsrs	r3, r3, #3
 8103e4a:	f003 0303 	and.w	r3, r3, #3
 8103e4e:	4a6b      	ldr	r2, [pc, #428]	; (8103ffc <HAL_RCC_GetSysClockFreq+0x2d8>)
 8103e50:	fa22 f303 	lsr.w	r3, r2, r3
 8103e54:	607b      	str	r3, [r7, #4]
          pllvco = ( (float_t)hsivalue / (float_t)pllm) * ((float_t)(uint32_t)(RCC->PLL1DIVR & RCC_PLL1DIVR_N1) + (fracn1/(float_t)0x2000) +(float_t)1 );
 8103e56:	687b      	ldr	r3, [r7, #4]
 8103e58:	ee07 3a90 	vmov	s15, r3
 8103e5c:	eef8 6a67 	vcvt.f32.u32	s13, s15
 8103e60:	693b      	ldr	r3, [r7, #16]
 8103e62:	ee07 3a90 	vmov	s15, r3
 8103e66:	eef8 7a67 	vcvt.f32.u32	s15, s15
 8103e6a:	ee86 7aa7 	vdiv.f32	s14, s13, s15
 8103e6e:	4b62      	ldr	r3, [pc, #392]	; (8103ff8 <HAL_RCC_GetSysClockFreq+0x2d4>)
 8103e70:	6b1b      	ldr	r3, [r3, #48]	; 0x30
 8103e72:	f3c3 0308 	ubfx	r3, r3, #0, #9
 8103e76:	ee07 3a90 	vmov	s15, r3
 8103e7a:	eef8 6a67 	vcvt.f32.u32	s13, s15
 8103e7e:	ed97 6a02 	vldr	s12, [r7, #8]
 8103e82:	eddf 5a61 	vldr	s11, [pc, #388]	; 8104008 <HAL_RCC_GetSysClockFreq+0x2e4>
 8103e86:	eec6 7a25 	vdiv.f32	s15, s12, s11
 8103e8a:	ee76 7aa7 	vadd.f32	s15, s13, s15
 8103e8e:	eef7 6a00 	vmov.f32	s13, #112	; 0x3f800000  1.0
 8103e92:	ee77 7aa6 	vadd.f32	s15, s15, s13
 8103e96:	ee67 7a27 	vmul.f32	s15, s14, s15
 8103e9a:	edc7 7a07 	vstr	s15, [r7, #28]
        }
        else
        {
          pllvco = ((float_t)HSI_VALUE / (float_t)pllm) * ((float_t)(uint32_t)(RCC->PLL1DIVR & RCC_PLL1DIVR_N1) + (fracn1/(float_t)0x2000) +(float_t)1 );
        }
        break;
 8103e9e:	e087      	b.n	8103fb0 <HAL_RCC_GetSysClockFreq+0x28c>
          pllvco = ((float_t)HSI_VALUE / (float_t)pllm) * ((float_t)(uint32_t)(RCC->PLL1DIVR & RCC_PLL1DIVR_N1) + (fracn1/(float_t)0x2000) +(float_t)1 );
 8103ea0:	693b      	ldr	r3, [r7, #16]
 8103ea2:	ee07 3a90 	vmov	s15, r3
 8103ea6:	eef8 7a67 	vcvt.f32.u32	s15, s15
 8103eaa:	eddf 6a58 	vldr	s13, [pc, #352]	; 810400c <HAL_RCC_GetSysClockFreq+0x2e8>
 8103eae:	ee86 7aa7 	vdiv.f32	s14, s13, s15
 8103eb2:	4b51      	ldr	r3, [pc, #324]	; (8103ff8 <HAL_RCC_GetSysClockFreq+0x2d4>)
 8103eb4:	6b1b      	ldr	r3, [r3, #48]	; 0x30
 8103eb6:	f3c3 0308 	ubfx	r3, r3, #0, #9
 8103eba:	ee07 3a90 	vmov	s15, r3
 8103ebe:	eef8 6a67 	vcvt.f32.u32	s13, s15
 8103ec2:	ed97 6a02 	vldr	s12, [r7, #8]
 8103ec6:	eddf 5a50 	vldr	s11, [pc, #320]	; 8104008 <HAL_RCC_GetSysClockFreq+0x2e4>
 8103eca:	eec6 7a25 	vdiv.f32	s15, s12, s11
 8103ece:	ee76 7aa7 	vadd.f32	s15, s13, s15
 8103ed2:	eef7 6a00 	vmov.f32	s13, #112	; 0x3f800000  1.0
 8103ed6:	ee77 7aa6 	vadd.f32	s15, s15, s13
 8103eda:	ee67 7a27 	vmul.f32	s15, s14, s15
 8103ede:	edc7 7a07 	vstr	s15, [r7, #28]
        break;
 8103ee2:	e065      	b.n	8103fb0 <HAL_RCC_GetSysClockFreq+0x28c>

      case RCC_PLLSOURCE_CSI:  /* CSI used as PLL clock source */
        pllvco = ((float_t)CSI_VALUE / (float_t)pllm) * ((float_t)(uint32_t)(RCC->PLL1DIVR & RCC_PLL1DIVR_N1) + (fracn1/(float_t)0x2000) +(float_t)1 );
 8103ee4:	693b      	ldr	r3, [r7, #16]
 8103ee6:	ee07 3a90 	vmov	s15, r3
 8103eea:	eef8 7a67 	vcvt.f32.u32	s15, s15
 8103eee:	eddf 6a48 	vldr	s13, [pc, #288]	; 8104010 <HAL_RCC_GetSysClockFreq+0x2ec>
 8103ef2:	ee86 7aa7 	vdiv.f32	s14, s13, s15
 8103ef6:	4b40      	ldr	r3, [pc, #256]	; (8103ff8 <HAL_RCC_GetSysClockFreq+0x2d4>)
 8103ef8:	6b1b      	ldr	r3, [r3, #48]	; 0x30
 8103efa:	f3c3 0308 	ubfx	r3, r3, #0, #9
 8103efe:	ee07 3a90 	vmov	s15, r3
 8103f02:	eef8 6a67 	vcvt.f32.u32	s13, s15
 8103f06:	ed97 6a02 	vldr	s12, [r7, #8]
 8103f0a:	eddf 5a3f 	vldr	s11, [pc, #252]	; 8104008 <HAL_RCC_GetSysClockFreq+0x2e4>
 8103f0e:	eec6 7a25 	vdiv.f32	s15, s12, s11
 8103f12:	ee76 7aa7 	vadd.f32	s15, s13, s15
 8103f16:	eef7 6a00 	vmov.f32	s13, #112	; 0x3f800000  1.0
 8103f1a:	ee77 7aa6 	vadd.f32	s15, s15, s13
 8103f1e:	ee67 7a27 	vmul.f32	s15, s14, s15
 8103f22:	edc7 7a07 	vstr	s15, [r7, #28]
        break;
 8103f26:	e043      	b.n	8103fb0 <HAL_RCC_GetSysClockFreq+0x28c>

      case RCC_PLLSOURCE_HSE:  /* HSE used as PLL clock source */
        pllvco = ((float_t)HSE_VALUE / (float_t)pllm) * ((float_t)(uint32_t)(RCC->PLL1DIVR & RCC_PLL1DIVR_N1) + (fracn1/(float_t)0x2000) +(float_t)1 );
 8103f28:	693b      	ldr	r3, [r7, #16]
 8103f2a:	ee07 3a90 	vmov	s15, r3
 8103f2e:	eef8 7a67 	vcvt.f32.u32	s15, s15
 8103f32:	eddf 6a38 	vldr	s13, [pc, #224]	; 8104014 <HAL_RCC_GetSysClockFreq+0x2f0>
 8103f36:	ee86 7aa7 	vdiv.f32	s14, s13, s15
 8103f3a:	4b2f      	ldr	r3, [pc, #188]	; (8103ff8 <HAL_RCC_GetSysClockFreq+0x2d4>)
 8103f3c:	6b1b      	ldr	r3, [r3, #48]	; 0x30
 8103f3e:	f3c3 0308 	ubfx	r3, r3, #0, #9
 8103f42:	ee07 3a90 	vmov	s15, r3
 8103f46:	eef8 6a67 	vcvt.f32.u32	s13, s15
 8103f4a:	ed97 6a02 	vldr	s12, [r7, #8]
 8103f4e:	eddf 5a2e 	vldr	s11, [pc, #184]	; 8104008 <HAL_RCC_GetSysClockFreq+0x2e4>
 8103f52:	eec6 7a25 	vdiv.f32	s15, s12, s11
 8103f56:	ee76 7aa7 	vadd.f32	s15, s13, s15
 8103f5a:	eef7 6a00 	vmov.f32	s13, #112	; 0x3f800000  1.0
 8103f5e:	ee77 7aa6 	vadd.f32	s15, s15, s13
 8103f62:	ee67 7a27 	vmul.f32	s15, s14, s15
 8103f66:	edc7 7a07 	vstr	s15, [r7, #28]
        break;
 8103f6a:	e021      	b.n	8103fb0 <HAL_RCC_GetSysClockFreq+0x28c>

      default:
        pllvco = ((float_t)CSI_VALUE / (float_t)pllm) * ((float_t)(uint32_t)(RCC->PLL1DIVR & RCC_PLL1DIVR_N1) + (fracn1/(float_t)0x2000) +(float_t)1 );
 8103f6c:	693b      	ldr	r3, [r7, #16]
 8103f6e:	ee07 3a90 	vmov	s15, r3
 8103f72:	eef8 7a67 	vcvt.f32.u32	s15, s15
 8103f76:	eddf 6a26 	vldr	s13, [pc, #152]	; 8104010 <HAL_RCC_GetSysClockFreq+0x2ec>
 8103f7a:	ee86 7aa7 	vdiv.f32	s14, s13, s15
 8103f7e:	4b1e      	ldr	r3, [pc, #120]	; (8103ff8 <HAL_RCC_GetSysClockFreq+0x2d4>)
 8103f80:	6b1b      	ldr	r3, [r3, #48]	; 0x30
 8103f82:	f3c3 0308 	ubfx	r3, r3, #0, #9
 8103f86:	ee07 3a90 	vmov	s15, r3
 8103f8a:	eef8 6a67 	vcvt.f32.u32	s13, s15
 8103f8e:	ed97 6a02 	vldr	s12, [r7, #8]
 8103f92:	eddf 5a1d 	vldr	s11, [pc, #116]	; 8104008 <HAL_RCC_GetSysClockFreq+0x2e4>
 8103f96:	eec6 7a25 	vdiv.f32	s15, s12, s11
 8103f9a:	ee76 7aa7 	vadd.f32	s15, s13, s15
 8103f9e:	eef7 6a00 	vmov.f32	s13, #112	; 0x3f800000  1.0
 8103fa2:	ee77 7aa6 	vadd.f32	s15, s15, s13
 8103fa6:	ee67 7a27 	vmul.f32	s15, s14, s15
 8103faa:	edc7 7a07 	vstr	s15, [r7, #28]
        break;
 8103fae:	bf00      	nop
      }
      pllp = (((RCC->PLL1DIVR & RCC_PLL1DIVR_P1) >>9) + 1U ) ;
 8103fb0:	4b11      	ldr	r3, [pc, #68]	; (8103ff8 <HAL_RCC_GetSysClockFreq+0x2d4>)
 8103fb2:	6b1b      	ldr	r3, [r3, #48]	; 0x30
 8103fb4:	0a5b      	lsrs	r3, r3, #9
 8103fb6:	f003 037f 	and.w	r3, r3, #127	; 0x7f
 8103fba:	3301      	adds	r3, #1
 8103fbc:	603b      	str	r3, [r7, #0]
      sysclockfreq =  (uint32_t)(float_t)(pllvco/(float_t)pllp);
 8103fbe:	683b      	ldr	r3, [r7, #0]
 8103fc0:	ee07 3a90 	vmov	s15, r3
 8103fc4:	eeb8 7a67 	vcvt.f32.u32	s14, s15
 8103fc8:	edd7 6a07 	vldr	s13, [r7, #28]
 8103fcc:	eec6 7a87 	vdiv.f32	s15, s13, s14
 8103fd0:	eefc 7ae7 	vcvt.u32.f32	s15, s15
 8103fd4:	ee17 3a90 	vmov	r3, s15
 8103fd8:	61bb      	str	r3, [r7, #24]
    }
    else
    {
      sysclockfreq = 0U;
    }
    break;
 8103fda:	e005      	b.n	8103fe8 <HAL_RCC_GetSysClockFreq+0x2c4>
      sysclockfreq = 0U;
 8103fdc:	2300      	movs	r3, #0
 8103fde:	61bb      	str	r3, [r7, #24]
    break;
 8103fe0:	e002      	b.n	8103fe8 <HAL_RCC_GetSysClockFreq+0x2c4>

  default:
    sysclockfreq = CSI_VALUE;
 8103fe2:	4b07      	ldr	r3, [pc, #28]	; (8104000 <HAL_RCC_GetSysClockFreq+0x2dc>)
 8103fe4:	61bb      	str	r3, [r7, #24]
    break;
 8103fe6:	bf00      	nop
  }

  return sysclockfreq;
 8103fe8:	69bb      	ldr	r3, [r7, #24]
}
 8103fea:	4618      	mov	r0, r3
 8103fec:	3724      	adds	r7, #36	; 0x24
 8103fee:	46bd      	mov	sp, r7
 8103ff0:	f85d 7b04 	ldr.w	r7, [sp], #4
 8103ff4:	4770      	bx	lr
 8103ff6:	bf00      	nop
 8103ff8:	58024400 	.word	0x58024400
 8103ffc:	03d09000 	.word	0x03d09000
 8104000:	003d0900 	.word	0x003d0900
 8104004:	007a1200 	.word	0x007a1200
 8104008:	46000000 	.word	0x46000000
 810400c:	4c742400 	.word	0x4c742400
 8104010:	4a742400 	.word	0x4a742400
 8104014:	4af42400 	.word	0x4af42400

08104018 <HAL_SPI_Init>:
  * @param  hspi: pointer to a SPI_HandleTypeDef structure that contains
  *               the configuration information for SPI module.
  * @retval HAL status
  */
HAL_StatusTypeDef HAL_SPI_Init(SPI_HandleTypeDef *hspi)
{
 8104018:	b580      	push	{r7, lr}
 810401a:	b084      	sub	sp, #16
 810401c:	af00      	add	r7, sp, #0
 810401e:	6078      	str	r0, [r7, #4]
  uint32_t crc_length;
  uint32_t packet_length;

  /* Check the SPI handle allocation */
  if (hspi == NULL)
 8104020:	687b      	ldr	r3, [r7, #4]
 8104022:	2b00      	cmp	r3, #0
 8104024:	d101      	bne.n	810402a <HAL_SPI_Init+0x12>
  {
    return HAL_ERROR;
 8104026:	2301      	movs	r3, #1
 8104028:	e0f1      	b.n	810420e <HAL_SPI_Init+0x1f6>
    assert_param(IS_SPI_CRC_POLYNOMIAL(hspi->Init.CRCPolynomial));
    assert_param(IS_SPI_CRC_INITIALIZATION_PATTERN(hspi->Init.TxCRCInitializationPattern));
    assert_param(IS_SPI_CRC_INITIALIZATION_PATTERN(hspi->Init.RxCRCInitializationPattern));
  }
#else
  hspi->Init.CRCCalculation = SPI_CRCCALCULATION_DISABLE;
 810402a:	687b      	ldr	r3, [r7, #4]
 810402c:	2200      	movs	r2, #0
 810402e:	629a      	str	r2, [r3, #40]	; 0x28
#endif /* USE_SPI_CRC */

  /* Verify that the SPI instance supports Data Size higher than 16bits */
  if ((!IS_SPI_HIGHEND_INSTANCE(hspi->Instance)) && (hspi->Init.DataSize > SPI_DATASIZE_16BIT))
 8104030:	687b      	ldr	r3, [r7, #4]
 8104032:	681b      	ldr	r3, [r3, #0]
 8104034:	4a78      	ldr	r2, [pc, #480]	; (8104218 <HAL_SPI_Init+0x200>)
 8104036:	4293      	cmp	r3, r2
 8104038:	d00f      	beq.n	810405a <HAL_SPI_Init+0x42>
 810403a:	687b      	ldr	r3, [r7, #4]
 810403c:	681b      	ldr	r3, [r3, #0]
 810403e:	4a77      	ldr	r2, [pc, #476]	; (810421c <HAL_SPI_Init+0x204>)
 8104040:	4293      	cmp	r3, r2
 8104042:	d00a      	beq.n	810405a <HAL_SPI_Init+0x42>
 8104044:	687b      	ldr	r3, [r7, #4]
 8104046:	681b      	ldr	r3, [r3, #0]
 8104048:	4a75      	ldr	r2, [pc, #468]	; (8104220 <HAL_SPI_Init+0x208>)
 810404a:	4293      	cmp	r3, r2
 810404c:	d005      	beq.n	810405a <HAL_SPI_Init+0x42>
 810404e:	687b      	ldr	r3, [r7, #4]
 8104050:	68db      	ldr	r3, [r3, #12]
 8104052:	2b0f      	cmp	r3, #15
 8104054:	d901      	bls.n	810405a <HAL_SPI_Init+0x42>
  {
    return HAL_ERROR;
 8104056:	2301      	movs	r3, #1
 8104058:	e0d9      	b.n	810420e <HAL_SPI_Init+0x1f6>
  }

  /* Verify that the SPI instance supports requested data packing */
  packet_length = SPI_GetPacketSize(hspi);
 810405a:	6878      	ldr	r0, [r7, #4]
 810405c:	f000 ffd2 	bl	8105004 <SPI_GetPacketSize>
 8104060:	60f8      	str	r0, [r7, #12]
  if (((!IS_SPI_HIGHEND_INSTANCE(hspi->Instance)) && (packet_length > SPI_LOWEND_FIFO_SIZE)) ||
 8104062:	687b      	ldr	r3, [r7, #4]
 8104064:	681b      	ldr	r3, [r3, #0]
 8104066:	4a6c      	ldr	r2, [pc, #432]	; (8104218 <HAL_SPI_Init+0x200>)
 8104068:	4293      	cmp	r3, r2
 810406a:	d00c      	beq.n	8104086 <HAL_SPI_Init+0x6e>
 810406c:	687b      	ldr	r3, [r7, #4]
 810406e:	681b      	ldr	r3, [r3, #0]
 8104070:	4a6a      	ldr	r2, [pc, #424]	; (810421c <HAL_SPI_Init+0x204>)
 8104072:	4293      	cmp	r3, r2
 8104074:	d007      	beq.n	8104086 <HAL_SPI_Init+0x6e>
 8104076:	687b      	ldr	r3, [r7, #4]
 8104078:	681b      	ldr	r3, [r3, #0]
 810407a:	4a69      	ldr	r2, [pc, #420]	; (8104220 <HAL_SPI_Init+0x208>)
 810407c:	4293      	cmp	r3, r2
 810407e:	d002      	beq.n	8104086 <HAL_SPI_Init+0x6e>
 8104080:	68fb      	ldr	r3, [r7, #12]
 8104082:	2b08      	cmp	r3, #8
 8104084:	d811      	bhi.n	81040aa <HAL_SPI_Init+0x92>
      ((IS_SPI_HIGHEND_INSTANCE(hspi->Instance)) && (packet_length > SPI_HIGHEND_FIFO_SIZE)))
 8104086:	687b      	ldr	r3, [r7, #4]
 8104088:	681b      	ldr	r3, [r3, #0]
  if (((!IS_SPI_HIGHEND_INSTANCE(hspi->Instance)) && (packet_length > SPI_LOWEND_FIFO_SIZE)) ||
 810408a:	4a63      	ldr	r2, [pc, #396]	; (8104218 <HAL_SPI_Init+0x200>)
 810408c:	4293      	cmp	r3, r2
 810408e:	d009      	beq.n	81040a4 <HAL_SPI_Init+0x8c>
      ((IS_SPI_HIGHEND_INSTANCE(hspi->Instance)) && (packet_length > SPI_HIGHEND_FIFO_SIZE)))
 8104090:	687b      	ldr	r3, [r7, #4]
 8104092:	681b      	ldr	r3, [r3, #0]
 8104094:	4a61      	ldr	r2, [pc, #388]	; (810421c <HAL_SPI_Init+0x204>)
 8104096:	4293      	cmp	r3, r2
 8104098:	d004      	beq.n	81040a4 <HAL_SPI_Init+0x8c>
 810409a:	687b      	ldr	r3, [r7, #4]
 810409c:	681b      	ldr	r3, [r3, #0]
 810409e:	4a60      	ldr	r2, [pc, #384]	; (8104220 <HAL_SPI_Init+0x208>)
 81040a0:	4293      	cmp	r3, r2
 81040a2:	d104      	bne.n	81040ae <HAL_SPI_Init+0x96>
 81040a4:	68fb      	ldr	r3, [r7, #12]
 81040a6:	2b10      	cmp	r3, #16
 81040a8:	d901      	bls.n	81040ae <HAL_SPI_Init+0x96>
  {
    return HAL_ERROR;
 81040aa:	2301      	movs	r3, #1
 81040ac:	e0af      	b.n	810420e <HAL_SPI_Init+0x1f6>
  {
    crc_length = hspi->Init.DataSize << SPI_CFG1_CRCSIZE_Pos;
  }
#endif /* USE_SPI_CRC */

  if (hspi->State == HAL_SPI_STATE_RESET)
 81040ae:	687b      	ldr	r3, [r7, #4]
 81040b0:	f893 3081 	ldrb.w	r3, [r3, #129]	; 0x81
 81040b4:	b2db      	uxtb	r3, r3
 81040b6:	2b00      	cmp	r3, #0
 81040b8:	d106      	bne.n	81040c8 <HAL_SPI_Init+0xb0>
  {
    /* Allocate lock resource and initialize it */
    hspi->Lock = HAL_UNLOCKED;
 81040ba:	687b      	ldr	r3, [r7, #4]
 81040bc:	2200      	movs	r2, #0
 81040be:	f883 2080 	strb.w	r2, [r3, #128]	; 0x80

    /* Init the low level hardware : GPIO, CLOCK, NVIC... */
    hspi->MspInitCallback(hspi);
#else
    /* Init the low level hardware : GPIO, CLOCK, NVIC... */
    HAL_SPI_MspInit(hspi);
 81040c2:	6878      	ldr	r0, [r7, #4]
 81040c4:	f7fd f966 	bl	8101394 <HAL_SPI_MspInit>
#endif /* USE_HAL_SPI_REGISTER_CALLBACKS */
  }

  hspi->State = HAL_SPI_STATE_BUSY;
 81040c8:	687b      	ldr	r3, [r7, #4]
 81040ca:	2202      	movs	r2, #2
 81040cc:	f883 2081 	strb.w	r2, [r3, #129]	; 0x81

  /* Disable the selected SPI peripheral */
  __HAL_SPI_DISABLE(hspi);
 81040d0:	687b      	ldr	r3, [r7, #4]
 81040d2:	681b      	ldr	r3, [r3, #0]
 81040d4:	681a      	ldr	r2, [r3, #0]
 81040d6:	687b      	ldr	r3, [r7, #4]
 81040d8:	681b      	ldr	r3, [r3, #0]
 81040da:	f022 0201 	bic.w	r2, r2, #1
 81040de:	601a      	str	r2, [r3, #0]

#if (USE_SPI_CRC == 0)
  /* Keep the default value of CRCSIZE in case of CRC is not used */
  crc_length = hspi->Instance->CFG1 & SPI_CFG1_CRCSIZE;
 81040e0:	687b      	ldr	r3, [r7, #4]
 81040e2:	681b      	ldr	r3, [r3, #0]
 81040e4:	689b      	ldr	r3, [r3, #8]
 81040e6:	f403 13f8 	and.w	r3, r3, #2031616	; 0x1f0000
 81040ea:	60bb      	str	r3, [r7, #8]
  /*----------------------- SPIx CR1 & CR2 Configuration ---------------------*/
  /* Configure : SPI Mode, Communication Mode, Clock polarity and phase, NSS management,
  Communication speed, First bit, CRC calculation state, CRC Length */

  /* SPIx NSS Software Management Configuration */
  if ((hspi->Init.NSS == SPI_NSS_SOFT) && (((hspi->Init.Mode == SPI_MODE_MASTER) &&  \
 81040ec:	687b      	ldr	r3, [r7, #4]
 81040ee:	699b      	ldr	r3, [r3, #24]
 81040f0:	f1b3 6f80 	cmp.w	r3, #67108864	; 0x4000000
 81040f4:	d119      	bne.n	810412a <HAL_SPI_Init+0x112>
 81040f6:	687b      	ldr	r3, [r7, #4]
 81040f8:	685b      	ldr	r3, [r3, #4]
 81040fa:	f5b3 0f80 	cmp.w	r3, #4194304	; 0x400000
 81040fe:	d103      	bne.n	8104108 <HAL_SPI_Init+0xf0>
                                            (hspi->Init.NSSPolarity == SPI_NSS_POLARITY_LOW)) || \
 8104100:	687b      	ldr	r3, [r7, #4]
 8104102:	6b9b      	ldr	r3, [r3, #56]	; 0x38
  if ((hspi->Init.NSS == SPI_NSS_SOFT) && (((hspi->Init.Mode == SPI_MODE_MASTER) &&  \
 8104104:	2b00      	cmp	r3, #0
 8104106:	d008      	beq.n	810411a <HAL_SPI_Init+0x102>
                                           ((hspi->Init.Mode == SPI_MODE_SLAVE) && \
 8104108:	687b      	ldr	r3, [r7, #4]
 810410a:	685b      	ldr	r3, [r3, #4]
                                            (hspi->Init.NSSPolarity == SPI_NSS_POLARITY_LOW)) || \
 810410c:	2b00      	cmp	r3, #0
 810410e:	d10c      	bne.n	810412a <HAL_SPI_Init+0x112>
                                            (hspi->Init.NSSPolarity == SPI_NSS_POLARITY_HIGH))))
 8104110:	687b      	ldr	r3, [r7, #4]
 8104112:	6b9b      	ldr	r3, [r3, #56]	; 0x38
                                           ((hspi->Init.Mode == SPI_MODE_SLAVE) && \
 8104114:	f1b3 5f80 	cmp.w	r3, #268435456	; 0x10000000
 8104118:	d107      	bne.n	810412a <HAL_SPI_Init+0x112>
  {
    SET_BIT(hspi->Instance->CR1, SPI_CR1_SSI);
 810411a:	687b      	ldr	r3, [r7, #4]
 810411c:	681b      	ldr	r3, [r3, #0]
 810411e:	681a      	ldr	r2, [r3, #0]
 8104120:	687b      	ldr	r3, [r7, #4]
 8104122:	681b      	ldr	r3, [r3, #0]
 8104124:	f442 5280 	orr.w	r2, r2, #4096	; 0x1000
 8104128:	601a      	str	r2, [r3, #0]
  }

  /* SPIx CFG1 Configuration */
  WRITE_REG(hspi->Instance->CFG1, (hspi->Init.BaudRatePrescaler | hspi->Init.CRCCalculation | crc_length |
 810412a:	687b      	ldr	r3, [r7, #4]
 810412c:	69da      	ldr	r2, [r3, #28]
 810412e:	687b      	ldr	r3, [r7, #4]
 8104130:	6a9b      	ldr	r3, [r3, #40]	; 0x28
 8104132:	431a      	orrs	r2, r3
 8104134:	68bb      	ldr	r3, [r7, #8]
 8104136:	431a      	orrs	r2, r3
 8104138:	687b      	ldr	r3, [r7, #4]
 810413a:	6bdb      	ldr	r3, [r3, #60]	; 0x3c
 810413c:	ea42 0103 	orr.w	r1, r2, r3
 8104140:	687b      	ldr	r3, [r7, #4]
 8104142:	68da      	ldr	r2, [r3, #12]
 8104144:	687b      	ldr	r3, [r7, #4]
 8104146:	681b      	ldr	r3, [r3, #0]
 8104148:	430a      	orrs	r2, r1
 810414a:	609a      	str	r2, [r3, #8]
                                   hspi->Init.FifoThreshold     | hspi->Init.DataSize));

  /* SPIx CFG2 Configuration */
  WRITE_REG(hspi->Instance->CFG2, (hspi->Init.NSSPMode                | hspi->Init.TIMode    |
 810414c:	687b      	ldr	r3, [r7, #4]
 810414e:	6b5a      	ldr	r2, [r3, #52]	; 0x34
 8104150:	687b      	ldr	r3, [r7, #4]
 8104152:	6a5b      	ldr	r3, [r3, #36]	; 0x24
 8104154:	431a      	orrs	r2, r3
 8104156:	687b      	ldr	r3, [r7, #4]
 8104158:	6b9b      	ldr	r3, [r3, #56]	; 0x38
 810415a:	431a      	orrs	r2, r3
 810415c:	687b      	ldr	r3, [r7, #4]
 810415e:	699b      	ldr	r3, [r3, #24]
 8104160:	431a      	orrs	r2, r3
 8104162:	687b      	ldr	r3, [r7, #4]
 8104164:	691b      	ldr	r3, [r3, #16]
 8104166:	431a      	orrs	r2, r3
 8104168:	687b      	ldr	r3, [r7, #4]
 810416a:	695b      	ldr	r3, [r3, #20]
 810416c:	431a      	orrs	r2, r3
 810416e:	687b      	ldr	r3, [r7, #4]
 8104170:	6a1b      	ldr	r3, [r3, #32]
 8104172:	431a      	orrs	r2, r3
 8104174:	687b      	ldr	r3, [r7, #4]
 8104176:	685b      	ldr	r3, [r3, #4]
 8104178:	431a      	orrs	r2, r3
 810417a:	687b      	ldr	r3, [r7, #4]
 810417c:	6cdb      	ldr	r3, [r3, #76]	; 0x4c
 810417e:	431a      	orrs	r2, r3
 8104180:	687b      	ldr	r3, [r7, #4]
 8104182:	689b      	ldr	r3, [r3, #8]
 8104184:	431a      	orrs	r2, r3
 8104186:	687b      	ldr	r3, [r7, #4]
 8104188:	6c9b      	ldr	r3, [r3, #72]	; 0x48
 810418a:	ea42 0103 	orr.w	r1, r2, r3
 810418e:	687b      	ldr	r3, [r7, #4]
 8104190:	6d9a      	ldr	r2, [r3, #88]	; 0x58
 8104192:	687b      	ldr	r3, [r7, #4]
 8104194:	681b      	ldr	r3, [r3, #0]
 8104196:	430a      	orrs	r2, r1
 8104198:	60da      	str	r2, [r3, #12]
    WRITE_REG(hspi->Instance->CRCPOLY, hspi->Init.CRCPolynomial);
  }
#endif /* USE_SPI_CRC */

  /* Insure that Underrun configuration is managed only by Salve */
  if (hspi->Init.Mode == SPI_MODE_SLAVE)
 810419a:	687b      	ldr	r3, [r7, #4]
 810419c:	685b      	ldr	r3, [r3, #4]
 810419e:	2b00      	cmp	r3, #0
 81041a0:	d113      	bne.n	81041ca <HAL_SPI_Init+0x1b2>
    /* Set Default Underrun configuration */
#if (USE_SPI_CRC != 0UL)
    if (hspi->Init.CRCCalculation == SPI_CRCCALCULATION_DISABLE)
#endif /* USE_SPI_CRC */
    {
      MODIFY_REG(hspi->Instance->CFG1, SPI_CFG1_UDRDET, SPI_CFG1_UDRDET_0);
 81041a2:	687b      	ldr	r3, [r7, #4]
 81041a4:	681b      	ldr	r3, [r3, #0]
 81041a6:	689b      	ldr	r3, [r3, #8]
 81041a8:	f423 52c0 	bic.w	r2, r3, #6144	; 0x1800
 81041ac:	687b      	ldr	r3, [r7, #4]
 81041ae:	681b      	ldr	r3, [r3, #0]
 81041b0:	f442 6200 	orr.w	r2, r2, #2048	; 0x800
 81041b4:	609a      	str	r2, [r3, #8]
    }
    MODIFY_REG(hspi->Instance->CFG1, SPI_CFG1_UDRCFG, SPI_CFG1_UDRCFG_1);
 81041b6:	687b      	ldr	r3, [r7, #4]
 81041b8:	681b      	ldr	r3, [r3, #0]
 81041ba:	689b      	ldr	r3, [r3, #8]
 81041bc:	f423 62c0 	bic.w	r2, r3, #1536	; 0x600
 81041c0:	687b      	ldr	r3, [r7, #4]
 81041c2:	681b      	ldr	r3, [r3, #0]
 81041c4:	f442 6280 	orr.w	r2, r2, #1024	; 0x400
 81041c8:	609a      	str	r2, [r3, #8]
  }

#if defined(SPI_I2SCFGR_I2SMOD)
  /* Activate the SPI mode (Make sure that I2SMOD bit in I2SCFGR register is reset) */
  CLEAR_BIT(hspi->Instance->I2SCFGR, SPI_I2SCFGR_I2SMOD);
 81041ca:	687b      	ldr	r3, [r7, #4]
 81041cc:	681b      	ldr	r3, [r3, #0]
 81041ce:	6d1a      	ldr	r2, [r3, #80]	; 0x50
 81041d0:	687b      	ldr	r3, [r7, #4]
 81041d2:	681b      	ldr	r3, [r3, #0]
 81041d4:	f022 0201 	bic.w	r2, r2, #1
 81041d8:	651a      	str	r2, [r3, #80]	; 0x50
#endif /* SPI_I2SCFGR_I2SMOD */

  /* Insure that AFCNTR is managed only by Master */
  if ((hspi->Init.Mode & SPI_MODE_MASTER) == SPI_MODE_MASTER)
 81041da:	687b      	ldr	r3, [r7, #4]
 81041dc:	685b      	ldr	r3, [r3, #4]
 81041de:	f403 0380 	and.w	r3, r3, #4194304	; 0x400000
 81041e2:	2b00      	cmp	r3, #0
 81041e4:	d00a      	beq.n	81041fc <HAL_SPI_Init+0x1e4>
  {
    /* Alternate function GPIOs control */
    MODIFY_REG(hspi->Instance->CFG2, SPI_CFG2_AFCNTR, (hspi->Init.MasterKeepIOState));
 81041e6:	687b      	ldr	r3, [r7, #4]
 81041e8:	681b      	ldr	r3, [r3, #0]
 81041ea:	68db      	ldr	r3, [r3, #12]
 81041ec:	f023 4100 	bic.w	r1, r3, #2147483648	; 0x80000000
 81041f0:	687b      	ldr	r3, [r7, #4]
 81041f2:	6d5a      	ldr	r2, [r3, #84]	; 0x54
 81041f4:	687b      	ldr	r3, [r7, #4]
 81041f6:	681b      	ldr	r3, [r3, #0]
 81041f8:	430a      	orrs	r2, r1
 81041fa:	60da      	str	r2, [r3, #12]
  }

  hspi->ErrorCode = HAL_SPI_ERROR_NONE;
 81041fc:	687b      	ldr	r3, [r7, #4]
 81041fe:	2200      	movs	r2, #0
 8104200:	f8c3 2084 	str.w	r2, [r3, #132]	; 0x84
  hspi->State     = HAL_SPI_STATE_READY;
 8104204:	687b      	ldr	r3, [r7, #4]
 8104206:	2201      	movs	r2, #1
 8104208:	f883 2081 	strb.w	r2, [r3, #129]	; 0x81

  return HAL_OK;
 810420c:	2300      	movs	r3, #0
}
 810420e:	4618      	mov	r0, r3
 8104210:	3710      	adds	r7, #16
 8104212:	46bd      	mov	sp, r7
 8104214:	bd80      	pop	{r7, pc}
 8104216:	bf00      	nop
 8104218:	40013000 	.word	0x40013000
 810421c:	40003800 	.word	0x40003800
 8104220:	40003c00 	.word	0x40003c00

08104224 <HAL_SPI_Transmit>:
  * @param  Size   : amount of data to be sent
  * @param  Timeout: Timeout duration
  * @retval HAL status
  */
HAL_StatusTypeDef HAL_SPI_Transmit(SPI_HandleTypeDef *hspi, uint8_t *pData, uint16_t Size, uint32_t Timeout)
{
 8104224:	b580      	push	{r7, lr}
 8104226:	b08a      	sub	sp, #40	; 0x28
 8104228:	af02      	add	r7, sp, #8
 810422a:	60f8      	str	r0, [r7, #12]
 810422c:	60b9      	str	r1, [r7, #8]
 810422e:	603b      	str	r3, [r7, #0]
 8104230:	4613      	mov	r3, r2
 8104232:	80fb      	strh	r3, [r7, #6]
#if defined (__GNUC__)
  __IO uint16_t *ptxdr_16bits = (__IO uint16_t *)(&(hspi->Instance->TXDR));
 8104234:	68fb      	ldr	r3, [r7, #12]
 8104236:	681b      	ldr	r3, [r3, #0]
 8104238:	3320      	adds	r3, #32
 810423a:	61fb      	str	r3, [r7, #28]
#endif /* __GNUC__ */

  uint32_t tickstart;
  HAL_StatusTypeDef errorcode = HAL_OK;
 810423c:	2300      	movs	r3, #0
 810423e:	76fb      	strb	r3, [r7, #27]

  /* Check Direction parameter */
  assert_param(IS_SPI_DIRECTION_2LINES_OR_1LINE_2LINES_TXONLY(hspi->Init.Direction));

  /* Lock the process */
  __HAL_LOCK(hspi);
 8104240:	68fb      	ldr	r3, [r7, #12]
 8104242:	f893 3080 	ldrb.w	r3, [r3, #128]	; 0x80
 8104246:	2b01      	cmp	r3, #1
 8104248:	d101      	bne.n	810424e <HAL_SPI_Transmit+0x2a>
 810424a:	2302      	movs	r3, #2
 810424c:	e1d4      	b.n	81045f8 <HAL_SPI_Transmit+0x3d4>
 810424e:	68fb      	ldr	r3, [r7, #12]
 8104250:	2201      	movs	r2, #1
 8104252:	f883 2080 	strb.w	r2, [r3, #128]	; 0x80

  /* Init tickstart for timeout management*/
  tickstart = HAL_GetTick();
 8104256:	f7fd fa8d 	bl	8101774 <HAL_GetTick>
 810425a:	6178      	str	r0, [r7, #20]

  if (hspi->State != HAL_SPI_STATE_READY)
 810425c:	68fb      	ldr	r3, [r7, #12]
 810425e:	f893 3081 	ldrb.w	r3, [r3, #129]	; 0x81
 8104262:	b2db      	uxtb	r3, r3
 8104264:	2b01      	cmp	r3, #1
 8104266:	d007      	beq.n	8104278 <HAL_SPI_Transmit+0x54>
  {
    errorcode = HAL_BUSY;
 8104268:	2302      	movs	r3, #2
 810426a:	76fb      	strb	r3, [r7, #27]
    __HAL_UNLOCK(hspi);
 810426c:	68fb      	ldr	r3, [r7, #12]
 810426e:	2200      	movs	r2, #0
 8104270:	f883 2080 	strb.w	r2, [r3, #128]	; 0x80
    return errorcode;
 8104274:	7efb      	ldrb	r3, [r7, #27]
 8104276:	e1bf      	b.n	81045f8 <HAL_SPI_Transmit+0x3d4>
  }

  if ((pData == NULL) || (Size == 0UL))
 8104278:	68bb      	ldr	r3, [r7, #8]
 810427a:	2b00      	cmp	r3, #0
 810427c:	d002      	beq.n	8104284 <HAL_SPI_Transmit+0x60>
 810427e:	88fb      	ldrh	r3, [r7, #6]
 8104280:	2b00      	cmp	r3, #0
 8104282:	d107      	bne.n	8104294 <HAL_SPI_Transmit+0x70>
  {
    errorcode = HAL_ERROR;
 8104284:	2301      	movs	r3, #1
 8104286:	76fb      	strb	r3, [r7, #27]
    __HAL_UNLOCK(hspi);
 8104288:	68fb      	ldr	r3, [r7, #12]
 810428a:	2200      	movs	r2, #0
 810428c:	f883 2080 	strb.w	r2, [r3, #128]	; 0x80
    return errorcode;
 8104290:	7efb      	ldrb	r3, [r7, #27]
 8104292:	e1b1      	b.n	81045f8 <HAL_SPI_Transmit+0x3d4>
  }

  /* Set the transaction information */
  hspi->State       = HAL_SPI_STATE_BUSY_TX;
 8104294:	68fb      	ldr	r3, [r7, #12]
 8104296:	2203      	movs	r2, #3
 8104298:	f883 2081 	strb.w	r2, [r3, #129]	; 0x81
  hspi->ErrorCode   = HAL_SPI_ERROR_NONE;
 810429c:	68fb      	ldr	r3, [r7, #12]
 810429e:	2200      	movs	r2, #0
 81042a0:	f8c3 2084 	str.w	r2, [r3, #132]	; 0x84
  hspi->pTxBuffPtr  = (uint8_t *)pData;
 81042a4:	68fb      	ldr	r3, [r7, #12]
 81042a6:	68ba      	ldr	r2, [r7, #8]
 81042a8:	65da      	str	r2, [r3, #92]	; 0x5c
  hspi->TxXferSize  = Size;
 81042aa:	68fb      	ldr	r3, [r7, #12]
 81042ac:	88fa      	ldrh	r2, [r7, #6]
 81042ae:	f8a3 2060 	strh.w	r2, [r3, #96]	; 0x60
  hspi->TxXferCount = Size;
 81042b2:	68fb      	ldr	r3, [r7, #12]
 81042b4:	88fa      	ldrh	r2, [r7, #6]
 81042b6:	f8a3 2062 	strh.w	r2, [r3, #98]	; 0x62

  /*Init field not used in handle to zero */
  hspi->pRxBuffPtr  = NULL;
 81042ba:	68fb      	ldr	r3, [r7, #12]
 81042bc:	2200      	movs	r2, #0
 81042be:	665a      	str	r2, [r3, #100]	; 0x64
  hspi->RxXferSize  = (uint16_t) 0UL;
 81042c0:	68fb      	ldr	r3, [r7, #12]
 81042c2:	2200      	movs	r2, #0
 81042c4:	f8a3 2068 	strh.w	r2, [r3, #104]	; 0x68
  hspi->RxXferCount = (uint16_t) 0UL;
 81042c8:	68fb      	ldr	r3, [r7, #12]
 81042ca:	2200      	movs	r2, #0
 81042cc:	f8a3 206a 	strh.w	r2, [r3, #106]	; 0x6a
  hspi->TxISR       = NULL;
 81042d0:	68fb      	ldr	r3, [r7, #12]
 81042d2:	2200      	movs	r2, #0
 81042d4:	675a      	str	r2, [r3, #116]	; 0x74
  hspi->RxISR       = NULL;
 81042d6:	68fb      	ldr	r3, [r7, #12]
 81042d8:	2200      	movs	r2, #0
 81042da:	671a      	str	r2, [r3, #112]	; 0x70

  /* Configure communication direction : 1Line */
  if (hspi->Init.Direction == SPI_DIRECTION_1LINE)
 81042dc:	68fb      	ldr	r3, [r7, #12]
 81042de:	689b      	ldr	r3, [r3, #8]
 81042e0:	f5b3 2fc0 	cmp.w	r3, #393216	; 0x60000
 81042e4:	d107      	bne.n	81042f6 <HAL_SPI_Transmit+0xd2>
  {
    SPI_1LINE_TX(hspi);
 81042e6:	68fb      	ldr	r3, [r7, #12]
 81042e8:	681b      	ldr	r3, [r3, #0]
 81042ea:	681a      	ldr	r2, [r3, #0]
 81042ec:	68fb      	ldr	r3, [r7, #12]
 81042ee:	681b      	ldr	r3, [r3, #0]
 81042f0:	f442 6200 	orr.w	r2, r2, #2048	; 0x800
 81042f4:	601a      	str	r2, [r3, #0]
  }

  /* Set the number of data at current transfer */
  MODIFY_REG(hspi->Instance->CR2, SPI_CR2_TSIZE, Size);
 81042f6:	68fb      	ldr	r3, [r7, #12]
 81042f8:	681b      	ldr	r3, [r3, #0]
 81042fa:	685b      	ldr	r3, [r3, #4]
 81042fc:	0c1b      	lsrs	r3, r3, #16
 81042fe:	041b      	lsls	r3, r3, #16
 8104300:	88f9      	ldrh	r1, [r7, #6]
 8104302:	68fa      	ldr	r2, [r7, #12]
 8104304:	6812      	ldr	r2, [r2, #0]
 8104306:	430b      	orrs	r3, r1
 8104308:	6053      	str	r3, [r2, #4]

  /* Enable SPI peripheral */
  __HAL_SPI_ENABLE(hspi);
 810430a:	68fb      	ldr	r3, [r7, #12]
 810430c:	681b      	ldr	r3, [r3, #0]
 810430e:	681a      	ldr	r2, [r3, #0]
 8104310:	68fb      	ldr	r3, [r7, #12]
 8104312:	681b      	ldr	r3, [r3, #0]
 8104314:	f042 0201 	orr.w	r2, r2, #1
 8104318:	601a      	str	r2, [r3, #0]

  if (hspi->Init.Mode == SPI_MODE_MASTER)
 810431a:	68fb      	ldr	r3, [r7, #12]
 810431c:	685b      	ldr	r3, [r3, #4]
 810431e:	f5b3 0f80 	cmp.w	r3, #4194304	; 0x400000
 8104322:	d107      	bne.n	8104334 <HAL_SPI_Transmit+0x110>
  {
    /* Master transfer start */
    SET_BIT(hspi->Instance->CR1, SPI_CR1_CSTART);
 8104324:	68fb      	ldr	r3, [r7, #12]
 8104326:	681b      	ldr	r3, [r3, #0]
 8104328:	681a      	ldr	r2, [r3, #0]
 810432a:	68fb      	ldr	r3, [r7, #12]
 810432c:	681b      	ldr	r3, [r3, #0]
 810432e:	f442 7200 	orr.w	r2, r2, #512	; 0x200
 8104332:	601a      	str	r2, [r3, #0]
  }

  /* Transmit data in 32 Bit mode */
  if (hspi->Init.DataSize > SPI_DATASIZE_16BIT)
 8104334:	68fb      	ldr	r3, [r7, #12]
 8104336:	68db      	ldr	r3, [r3, #12]
 8104338:	2b0f      	cmp	r3, #15
 810433a:	d947      	bls.n	81043cc <HAL_SPI_Transmit+0x1a8>
  {
    /* Transmit data in 32 Bit mode */
    while (hspi->TxXferCount > 0UL)
 810433c:	e03f      	b.n	81043be <HAL_SPI_Transmit+0x19a>
    {
      /* Wait until TXP flag is set to send data */
      if (__HAL_SPI_GET_FLAG(hspi, SPI_FLAG_TXP))
 810433e:	68fb      	ldr	r3, [r7, #12]
 8104340:	681b      	ldr	r3, [r3, #0]
 8104342:	695b      	ldr	r3, [r3, #20]
 8104344:	f003 0302 	and.w	r3, r3, #2
 8104348:	2b02      	cmp	r3, #2
 810434a:	d114      	bne.n	8104376 <HAL_SPI_Transmit+0x152>
      {
        *((__IO uint32_t *)&hspi->Instance->TXDR) = *((uint32_t *)hspi->pTxBuffPtr);
 810434c:	68fb      	ldr	r3, [r7, #12]
 810434e:	6dda      	ldr	r2, [r3, #92]	; 0x5c
 8104350:	68fb      	ldr	r3, [r7, #12]
 8104352:	681b      	ldr	r3, [r3, #0]
 8104354:	6812      	ldr	r2, [r2, #0]
 8104356:	621a      	str	r2, [r3, #32]
        hspi->pTxBuffPtr += sizeof(uint32_t);
 8104358:	68fb      	ldr	r3, [r7, #12]
 810435a:	6ddb      	ldr	r3, [r3, #92]	; 0x5c
 810435c:	1d1a      	adds	r2, r3, #4
 810435e:	68fb      	ldr	r3, [r7, #12]
 8104360:	65da      	str	r2, [r3, #92]	; 0x5c
        hspi->TxXferCount--;
 8104362:	68fb      	ldr	r3, [r7, #12]
 8104364:	f8b3 3062 	ldrh.w	r3, [r3, #98]	; 0x62
 8104368:	b29b      	uxth	r3, r3
 810436a:	3b01      	subs	r3, #1
 810436c:	b29a      	uxth	r2, r3
 810436e:	68fb      	ldr	r3, [r7, #12]
 8104370:	f8a3 2062 	strh.w	r2, [r3, #98]	; 0x62
 8104374:	e023      	b.n	81043be <HAL_SPI_Transmit+0x19a>
      }
      else
      {
        /* Timeout management */
        if ((((HAL_GetTick() - tickstart) >=  Timeout) && (Timeout != HAL_MAX_DELAY)) || (Timeout == 0U))
 8104376:	f7fd f9fd 	bl	8101774 <HAL_GetTick>
 810437a:	4602      	mov	r2, r0
 810437c:	697b      	ldr	r3, [r7, #20]
 810437e:	1ad3      	subs	r3, r2, r3
 8104380:	683a      	ldr	r2, [r7, #0]
 8104382:	429a      	cmp	r2, r3
 8104384:	d803      	bhi.n	810438e <HAL_SPI_Transmit+0x16a>
 8104386:	683b      	ldr	r3, [r7, #0]
 8104388:	f1b3 3fff 	cmp.w	r3, #4294967295
 810438c:	d102      	bne.n	8104394 <HAL_SPI_Transmit+0x170>
 810438e:	683b      	ldr	r3, [r7, #0]
 8104390:	2b00      	cmp	r3, #0
 8104392:	d114      	bne.n	81043be <HAL_SPI_Transmit+0x19a>
        {
          /* Call standard close procedure with error check */
          SPI_CloseTransfer(hspi);
 8104394:	68f8      	ldr	r0, [r7, #12]
 8104396:	f000 fd67 	bl	8104e68 <SPI_CloseTransfer>

          /* Unlock the process */
          __HAL_UNLOCK(hspi);
 810439a:	68fb      	ldr	r3, [r7, #12]
 810439c:	2200      	movs	r2, #0
 810439e:	f883 2080 	strb.w	r2, [r3, #128]	; 0x80

          SET_BIT(hspi->ErrorCode, HAL_SPI_ERROR_TIMEOUT);
 81043a2:	68fb      	ldr	r3, [r7, #12]
 81043a4:	f8d3 3084 	ldr.w	r3, [r3, #132]	; 0x84
 81043a8:	f443 7280 	orr.w	r2, r3, #256	; 0x100
 81043ac:	68fb      	ldr	r3, [r7, #12]
 81043ae:	f8c3 2084 	str.w	r2, [r3, #132]	; 0x84
          hspi->State = HAL_SPI_STATE_READY;
 81043b2:	68fb      	ldr	r3, [r7, #12]
 81043b4:	2201      	movs	r2, #1
 81043b6:	f883 2081 	strb.w	r2, [r3, #129]	; 0x81
          return HAL_TIMEOUT;
 81043ba:	2303      	movs	r3, #3
 81043bc:	e11c      	b.n	81045f8 <HAL_SPI_Transmit+0x3d4>
    while (hspi->TxXferCount > 0UL)
 81043be:	68fb      	ldr	r3, [r7, #12]
 81043c0:	f8b3 3062 	ldrh.w	r3, [r3, #98]	; 0x62
 81043c4:	b29b      	uxth	r3, r3
 81043c6:	2b00      	cmp	r3, #0
 81043c8:	d1b9      	bne.n	810433e <HAL_SPI_Transmit+0x11a>
 81043ca:	e0ef      	b.n	81045ac <HAL_SPI_Transmit+0x388>
        }
      }
    }
  }
  /* Transmit data in 16 Bit mode */
  else if (hspi->Init.DataSize > SPI_DATASIZE_8BIT)
 81043cc:	68fb      	ldr	r3, [r7, #12]
 81043ce:	68db      	ldr	r3, [r3, #12]
 81043d0:	2b07      	cmp	r3, #7
 81043d2:	f240 80e4 	bls.w	810459e <HAL_SPI_Transmit+0x37a>
  {
    /* Transmit data in 16 Bit mode */
    while (hspi->TxXferCount > 0UL)
 81043d6:	e05d      	b.n	8104494 <HAL_SPI_Transmit+0x270>
    {
      /* Wait until TXP flag is set to send data */
      if (__HAL_SPI_GET_FLAG(hspi, SPI_FLAG_TXP))
 81043d8:	68fb      	ldr	r3, [r7, #12]
 81043da:	681b      	ldr	r3, [r3, #0]
 81043dc:	695b      	ldr	r3, [r3, #20]
 81043de:	f003 0302 	and.w	r3, r3, #2
 81043e2:	2b02      	cmp	r3, #2
 81043e4:	d132      	bne.n	810444c <HAL_SPI_Transmit+0x228>
      {
        if ((hspi->TxXferCount > 1UL) && (hspi->Init.FifoThreshold > SPI_FIFO_THRESHOLD_01DATA))
 81043e6:	68fb      	ldr	r3, [r7, #12]
 81043e8:	f8b3 3062 	ldrh.w	r3, [r3, #98]	; 0x62
 81043ec:	b29b      	uxth	r3, r3
 81043ee:	2b01      	cmp	r3, #1
 81043f0:	d918      	bls.n	8104424 <HAL_SPI_Transmit+0x200>
 81043f2:	68fb      	ldr	r3, [r7, #12]
 81043f4:	6bdb      	ldr	r3, [r3, #60]	; 0x3c
 81043f6:	2b00      	cmp	r3, #0
 81043f8:	d014      	beq.n	8104424 <HAL_SPI_Transmit+0x200>
        {
          *((__IO uint32_t *)&hspi->Instance->TXDR) = *((uint32_t *)hspi->pTxBuffPtr);
 81043fa:	68fb      	ldr	r3, [r7, #12]
 81043fc:	6dda      	ldr	r2, [r3, #92]	; 0x5c
 81043fe:	68fb      	ldr	r3, [r7, #12]
 8104400:	681b      	ldr	r3, [r3, #0]
 8104402:	6812      	ldr	r2, [r2, #0]
 8104404:	621a      	str	r2, [r3, #32]
          hspi->pTxBuffPtr += sizeof(uint32_t);
 8104406:	68fb      	ldr	r3, [r7, #12]
 8104408:	6ddb      	ldr	r3, [r3, #92]	; 0x5c
 810440a:	1d1a      	adds	r2, r3, #4
 810440c:	68fb      	ldr	r3, [r7, #12]
 810440e:	65da      	str	r2, [r3, #92]	; 0x5c
          hspi->TxXferCount -= (uint16_t)2UL;
 8104410:	68fb      	ldr	r3, [r7, #12]
 8104412:	f8b3 3062 	ldrh.w	r3, [r3, #98]	; 0x62
 8104416:	b29b      	uxth	r3, r3
 8104418:	3b02      	subs	r3, #2
 810441a:	b29a      	uxth	r2, r3
 810441c:	68fb      	ldr	r3, [r7, #12]
 810441e:	f8a3 2062 	strh.w	r2, [r3, #98]	; 0x62
 8104422:	e037      	b.n	8104494 <HAL_SPI_Transmit+0x270>
        }
        else
        {
#if defined (__GNUC__)
          *ptxdr_16bits = *((uint16_t *)hspi->pTxBuffPtr);
 8104424:	68fb      	ldr	r3, [r7, #12]
 8104426:	6ddb      	ldr	r3, [r3, #92]	; 0x5c
 8104428:	881a      	ldrh	r2, [r3, #0]
 810442a:	69fb      	ldr	r3, [r7, #28]
 810442c:	801a      	strh	r2, [r3, #0]
#else
          *((__IO uint16_t *)&hspi->Instance->TXDR) = *((uint16_t *)hspi->pTxBuffPtr);
#endif /* __GNUC__ */
          hspi->pTxBuffPtr += sizeof(uint16_t);
 810442e:	68fb      	ldr	r3, [r7, #12]
 8104430:	6ddb      	ldr	r3, [r3, #92]	; 0x5c
 8104432:	1c9a      	adds	r2, r3, #2
 8104434:	68fb      	ldr	r3, [r7, #12]
 8104436:	65da      	str	r2, [r3, #92]	; 0x5c
          hspi->TxXferCount--;
 8104438:	68fb      	ldr	r3, [r7, #12]
 810443a:	f8b3 3062 	ldrh.w	r3, [r3, #98]	; 0x62
 810443e:	b29b      	uxth	r3, r3
 8104440:	3b01      	subs	r3, #1
 8104442:	b29a      	uxth	r2, r3
 8104444:	68fb      	ldr	r3, [r7, #12]
 8104446:	f8a3 2062 	strh.w	r2, [r3, #98]	; 0x62
 810444a:	e023      	b.n	8104494 <HAL_SPI_Transmit+0x270>
        }
      }
      else
      {
        /* Timeout management */
        if ((((HAL_GetTick() - tickstart) >=  Timeout) && (Timeout != HAL_MAX_DELAY)) || (Timeout == 0U))
 810444c:	f7fd f992 	bl	8101774 <HAL_GetTick>
 8104450:	4602      	mov	r2, r0
 8104452:	697b      	ldr	r3, [r7, #20]
 8104454:	1ad3      	subs	r3, r2, r3
 8104456:	683a      	ldr	r2, [r7, #0]
 8104458:	429a      	cmp	r2, r3
 810445a:	d803      	bhi.n	8104464 <HAL_SPI_Transmit+0x240>
 810445c:	683b      	ldr	r3, [r7, #0]
 810445e:	f1b3 3fff 	cmp.w	r3, #4294967295
 8104462:	d102      	bne.n	810446a <HAL_SPI_Transmit+0x246>
 8104464:	683b      	ldr	r3, [r7, #0]
 8104466:	2b00      	cmp	r3, #0
 8104468:	d114      	bne.n	8104494 <HAL_SPI_Transmit+0x270>
        {
          /* Call standard close procedure with error check */
          SPI_CloseTransfer(hspi);
 810446a:	68f8      	ldr	r0, [r7, #12]
 810446c:	f000 fcfc 	bl	8104e68 <SPI_CloseTransfer>

          /* Unlock the process */
          __HAL_UNLOCK(hspi);
 8104470:	68fb      	ldr	r3, [r7, #12]
 8104472:	2200      	movs	r2, #0
 8104474:	f883 2080 	strb.w	r2, [r3, #128]	; 0x80

          SET_BIT(hspi->ErrorCode, HAL_SPI_ERROR_TIMEOUT);
 8104478:	68fb      	ldr	r3, [r7, #12]
 810447a:	f8d3 3084 	ldr.w	r3, [r3, #132]	; 0x84
 810447e:	f443 7280 	orr.w	r2, r3, #256	; 0x100
 8104482:	68fb      	ldr	r3, [r7, #12]
 8104484:	f8c3 2084 	str.w	r2, [r3, #132]	; 0x84
          hspi->State = HAL_SPI_STATE_READY;
 8104488:	68fb      	ldr	r3, [r7, #12]
 810448a:	2201      	movs	r2, #1
 810448c:	f883 2081 	strb.w	r2, [r3, #129]	; 0x81
          return HAL_TIMEOUT;
 8104490:	2303      	movs	r3, #3
 8104492:	e0b1      	b.n	81045f8 <HAL_SPI_Transmit+0x3d4>
    while (hspi->TxXferCount > 0UL)
 8104494:	68fb      	ldr	r3, [r7, #12]
 8104496:	f8b3 3062 	ldrh.w	r3, [r3, #98]	; 0x62
 810449a:	b29b      	uxth	r3, r3
 810449c:	2b00      	cmp	r3, #0
 810449e:	d19b      	bne.n	81043d8 <HAL_SPI_Transmit+0x1b4>
 81044a0:	e084      	b.n	81045ac <HAL_SPI_Transmit+0x388>
  else
  {
    while (hspi->TxXferCount > 0UL)
    {
      /* Wait until TXP flag is set to send data */
      if (__HAL_SPI_GET_FLAG(hspi, SPI_FLAG_TXP))
 81044a2:	68fb      	ldr	r3, [r7, #12]
 81044a4:	681b      	ldr	r3, [r3, #0]
 81044a6:	695b      	ldr	r3, [r3, #20]
 81044a8:	f003 0302 	and.w	r3, r3, #2
 81044ac:	2b02      	cmp	r3, #2
 81044ae:	d152      	bne.n	8104556 <HAL_SPI_Transmit+0x332>
      {
        if ((hspi->TxXferCount > 3UL) && (hspi->Init.FifoThreshold > SPI_FIFO_THRESHOLD_03DATA))
 81044b0:	68fb      	ldr	r3, [r7, #12]
 81044b2:	f8b3 3062 	ldrh.w	r3, [r3, #98]	; 0x62
 81044b6:	b29b      	uxth	r3, r3
 81044b8:	2b03      	cmp	r3, #3
 81044ba:	d918      	bls.n	81044ee <HAL_SPI_Transmit+0x2ca>
 81044bc:	68fb      	ldr	r3, [r7, #12]
 81044be:	6bdb      	ldr	r3, [r3, #60]	; 0x3c
 81044c0:	2b40      	cmp	r3, #64	; 0x40
 81044c2:	d914      	bls.n	81044ee <HAL_SPI_Transmit+0x2ca>
        {
          *((__IO uint32_t *)&hspi->Instance->TXDR) = *((uint32_t *)hspi->pTxBuffPtr);
 81044c4:	68fb      	ldr	r3, [r7, #12]
 81044c6:	6dda      	ldr	r2, [r3, #92]	; 0x5c
 81044c8:	68fb      	ldr	r3, [r7, #12]
 81044ca:	681b      	ldr	r3, [r3, #0]
 81044cc:	6812      	ldr	r2, [r2, #0]
 81044ce:	621a      	str	r2, [r3, #32]
          hspi->pTxBuffPtr += sizeof(uint32_t);
 81044d0:	68fb      	ldr	r3, [r7, #12]
 81044d2:	6ddb      	ldr	r3, [r3, #92]	; 0x5c
 81044d4:	1d1a      	adds	r2, r3, #4
 81044d6:	68fb      	ldr	r3, [r7, #12]
 81044d8:	65da      	str	r2, [r3, #92]	; 0x5c
          hspi->TxXferCount -= (uint16_t)4UL;
 81044da:	68fb      	ldr	r3, [r7, #12]
 81044dc:	f8b3 3062 	ldrh.w	r3, [r3, #98]	; 0x62
 81044e0:	b29b      	uxth	r3, r3
 81044e2:	3b04      	subs	r3, #4
 81044e4:	b29a      	uxth	r2, r3
 81044e6:	68fb      	ldr	r3, [r7, #12]
 81044e8:	f8a3 2062 	strh.w	r2, [r3, #98]	; 0x62
 81044ec:	e057      	b.n	810459e <HAL_SPI_Transmit+0x37a>
        }
        else if ((hspi->TxXferCount > 1UL) && (hspi->Init.FifoThreshold > SPI_FIFO_THRESHOLD_01DATA))
 81044ee:	68fb      	ldr	r3, [r7, #12]
 81044f0:	f8b3 3062 	ldrh.w	r3, [r3, #98]	; 0x62
 81044f4:	b29b      	uxth	r3, r3
 81044f6:	2b01      	cmp	r3, #1
 81044f8:	d917      	bls.n	810452a <HAL_SPI_Transmit+0x306>
 81044fa:	68fb      	ldr	r3, [r7, #12]
 81044fc:	6bdb      	ldr	r3, [r3, #60]	; 0x3c
 81044fe:	2b00      	cmp	r3, #0
 8104500:	d013      	beq.n	810452a <HAL_SPI_Transmit+0x306>
        {
#if defined (__GNUC__)
          *ptxdr_16bits = *((uint16_t *)hspi->pTxBuffPtr);
 8104502:	68fb      	ldr	r3, [r7, #12]
 8104504:	6ddb      	ldr	r3, [r3, #92]	; 0x5c
 8104506:	881a      	ldrh	r2, [r3, #0]
 8104508:	69fb      	ldr	r3, [r7, #28]
 810450a:	801a      	strh	r2, [r3, #0]
#else
          *((__IO uint16_t *)&hspi->Instance->TXDR) = *((uint16_t *)hspi->pTxBuffPtr);
#endif /* __GNUC__ */
          hspi->pTxBuffPtr += sizeof(uint16_t);
 810450c:	68fb      	ldr	r3, [r7, #12]
 810450e:	6ddb      	ldr	r3, [r3, #92]	; 0x5c
 8104510:	1c9a      	adds	r2, r3, #2
 8104512:	68fb      	ldr	r3, [r7, #12]
 8104514:	65da      	str	r2, [r3, #92]	; 0x5c
          hspi->TxXferCount -= (uint16_t)2UL;
 8104516:	68fb      	ldr	r3, [r7, #12]
 8104518:	f8b3 3062 	ldrh.w	r3, [r3, #98]	; 0x62
 810451c:	b29b      	uxth	r3, r3
 810451e:	3b02      	subs	r3, #2
 8104520:	b29a      	uxth	r2, r3
 8104522:	68fb      	ldr	r3, [r7, #12]
 8104524:	f8a3 2062 	strh.w	r2, [r3, #98]	; 0x62
 8104528:	e039      	b.n	810459e <HAL_SPI_Transmit+0x37a>
        }
        else
        {
          *((__IO uint8_t *)&hspi->Instance->TXDR) = *((uint8_t *)hspi->pTxBuffPtr);
 810452a:	68fb      	ldr	r3, [r7, #12]
 810452c:	6dda      	ldr	r2, [r3, #92]	; 0x5c
 810452e:	68fb      	ldr	r3, [r7, #12]
 8104530:	681b      	ldr	r3, [r3, #0]
 8104532:	3320      	adds	r3, #32
 8104534:	7812      	ldrb	r2, [r2, #0]
 8104536:	701a      	strb	r2, [r3, #0]
          hspi->pTxBuffPtr += sizeof(uint8_t);
 8104538:	68fb      	ldr	r3, [r7, #12]
 810453a:	6ddb      	ldr	r3, [r3, #92]	; 0x5c
 810453c:	1c5a      	adds	r2, r3, #1
 810453e:	68fb      	ldr	r3, [r7, #12]
 8104540:	65da      	str	r2, [r3, #92]	; 0x5c
          hspi->TxXferCount--;
 8104542:	68fb      	ldr	r3, [r7, #12]
 8104544:	f8b3 3062 	ldrh.w	r3, [r3, #98]	; 0x62
 8104548:	b29b      	uxth	r3, r3
 810454a:	3b01      	subs	r3, #1
 810454c:	b29a      	uxth	r2, r3
 810454e:	68fb      	ldr	r3, [r7, #12]
 8104550:	f8a3 2062 	strh.w	r2, [r3, #98]	; 0x62
 8104554:	e023      	b.n	810459e <HAL_SPI_Transmit+0x37a>
        }
      }
      else
      {
        /* Timeout management */
        if ((((HAL_GetTick() - tickstart) >=  Timeout) && (Timeout != HAL_MAX_DELAY)) || (Timeout == 0U))
 8104556:	f7fd f90d 	bl	8101774 <HAL_GetTick>
 810455a:	4602      	mov	r2, r0
 810455c:	697b      	ldr	r3, [r7, #20]
 810455e:	1ad3      	subs	r3, r2, r3
 8104560:	683a      	ldr	r2, [r7, #0]
 8104562:	429a      	cmp	r2, r3
 8104564:	d803      	bhi.n	810456e <HAL_SPI_Transmit+0x34a>
 8104566:	683b      	ldr	r3, [r7, #0]
 8104568:	f1b3 3fff 	cmp.w	r3, #4294967295
 810456c:	d102      	bne.n	8104574 <HAL_SPI_Transmit+0x350>
 810456e:	683b      	ldr	r3, [r7, #0]
 8104570:	2b00      	cmp	r3, #0
 8104572:	d114      	bne.n	810459e <HAL_SPI_Transmit+0x37a>
        {
          /* Call standard close procedure with error check */
          SPI_CloseTransfer(hspi);
 8104574:	68f8      	ldr	r0, [r7, #12]
 8104576:	f000 fc77 	bl	8104e68 <SPI_CloseTransfer>

          /* Unlock the process */
          __HAL_UNLOCK(hspi);
 810457a:	68fb      	ldr	r3, [r7, #12]
 810457c:	2200      	movs	r2, #0
 810457e:	f883 2080 	strb.w	r2, [r3, #128]	; 0x80

          SET_BIT(hspi->ErrorCode, HAL_SPI_ERROR_TIMEOUT);
 8104582:	68fb      	ldr	r3, [r7, #12]
 8104584:	f8d3 3084 	ldr.w	r3, [r3, #132]	; 0x84
 8104588:	f443 7280 	orr.w	r2, r3, #256	; 0x100
 810458c:	68fb      	ldr	r3, [r7, #12]
 810458e:	f8c3 2084 	str.w	r2, [r3, #132]	; 0x84
          hspi->State = HAL_SPI_STATE_READY;
 8104592:	68fb      	ldr	r3, [r7, #12]
 8104594:	2201      	movs	r2, #1
 8104596:	f883 2081 	strb.w	r2, [r3, #129]	; 0x81
          return HAL_TIMEOUT;
 810459a:	2303      	movs	r3, #3
 810459c:	e02c      	b.n	81045f8 <HAL_SPI_Transmit+0x3d4>
    while (hspi->TxXferCount > 0UL)
 810459e:	68fb      	ldr	r3, [r7, #12]
 81045a0:	f8b3 3062 	ldrh.w	r3, [r3, #98]	; 0x62
 81045a4:	b29b      	uxth	r3, r3
 81045a6:	2b00      	cmp	r3, #0
 81045a8:	f47f af7b 	bne.w	81044a2 <HAL_SPI_Transmit+0x27e>
      }
    }
  }

  /* Wait for Tx (and CRC) data to be sent */
  if (SPI_WaitOnFlagUntilTimeout(hspi, SPI_FLAG_EOT, RESET, tickstart, Timeout) != HAL_OK)
 81045ac:	683b      	ldr	r3, [r7, #0]
 81045ae:	9300      	str	r3, [sp, #0]
 81045b0:	697b      	ldr	r3, [r7, #20]
 81045b2:	2200      	movs	r2, #0
 81045b4:	2108      	movs	r1, #8
 81045b6:	68f8      	ldr	r0, [r7, #12]
 81045b8:	f000 fcf6 	bl	8104fa8 <SPI_WaitOnFlagUntilTimeout>
 81045bc:	4603      	mov	r3, r0
 81045be:	2b00      	cmp	r3, #0
 81045c0:	d007      	beq.n	81045d2 <HAL_SPI_Transmit+0x3ae>
  {
    SET_BIT(hspi->ErrorCode, HAL_SPI_ERROR_FLAG);
 81045c2:	68fb      	ldr	r3, [r7, #12]
 81045c4:	f8d3 3084 	ldr.w	r3, [r3, #132]	; 0x84
 81045c8:	f043 0220 	orr.w	r2, r3, #32
 81045cc:	68fb      	ldr	r3, [r7, #12]
 81045ce:	f8c3 2084 	str.w	r2, [r3, #132]	; 0x84
  }

  /* Call standard close procedure with error check */
  SPI_CloseTransfer(hspi);
 81045d2:	68f8      	ldr	r0, [r7, #12]
 81045d4:	f000 fc48 	bl	8104e68 <SPI_CloseTransfer>

  /* Unlock the process */
  __HAL_UNLOCK(hspi);
 81045d8:	68fb      	ldr	r3, [r7, #12]
 81045da:	2200      	movs	r2, #0
 81045dc:	f883 2080 	strb.w	r2, [r3, #128]	; 0x80

  hspi->State = HAL_SPI_STATE_READY;
 81045e0:	68fb      	ldr	r3, [r7, #12]
 81045e2:	2201      	movs	r2, #1
 81045e4:	f883 2081 	strb.w	r2, [r3, #129]	; 0x81

  if (hspi->ErrorCode != HAL_SPI_ERROR_NONE)
 81045e8:	68fb      	ldr	r3, [r7, #12]
 81045ea:	f8d3 3084 	ldr.w	r3, [r3, #132]	; 0x84
 81045ee:	2b00      	cmp	r3, #0
 81045f0:	d001      	beq.n	81045f6 <HAL_SPI_Transmit+0x3d2>
  {
    return HAL_ERROR;
 81045f2:	2301      	movs	r3, #1
 81045f4:	e000      	b.n	81045f8 <HAL_SPI_Transmit+0x3d4>
  }
  return errorcode;
 81045f6:	7efb      	ldrb	r3, [r7, #27]
}
 81045f8:	4618      	mov	r0, r3
 81045fa:	3720      	adds	r7, #32
 81045fc:	46bd      	mov	sp, r7
 81045fe:	bd80      	pop	{r7, pc}

08104600 <HAL_SPI_TransmitReceive>:
  * @param  Timeout: Timeout duration
  * @retval HAL status
  */
HAL_StatusTypeDef HAL_SPI_TransmitReceive(SPI_HandleTypeDef *hspi, uint8_t *pTxData, uint8_t *pRxData, uint16_t Size,
                                          uint32_t Timeout)
{
 8104600:	b580      	push	{r7, lr}
 8104602:	b08e      	sub	sp, #56	; 0x38
 8104604:	af02      	add	r7, sp, #8
 8104606:	60f8      	str	r0, [r7, #12]
 8104608:	60b9      	str	r1, [r7, #8]
 810460a:	607a      	str	r2, [r7, #4]
 810460c:	807b      	strh	r3, [r7, #2]
  HAL_SPI_StateTypeDef tmp_state;
  HAL_StatusTypeDef errorcode = HAL_OK;
 810460e:	2300      	movs	r3, #0
 8104610:	f887 302b 	strb.w	r3, [r7, #43]	; 0x2b
#if defined (__GNUC__)
  __IO uint16_t *ptxdr_16bits = (__IO uint16_t *)(&(hspi->Instance->TXDR));
 8104614:	68fb      	ldr	r3, [r7, #12]
 8104616:	681b      	ldr	r3, [r3, #0]
 8104618:	3320      	adds	r3, #32
 810461a:	627b      	str	r3, [r7, #36]	; 0x24
  __IO uint16_t *prxdr_16bits = (__IO uint16_t *)(&(hspi->Instance->RXDR));
 810461c:	68fb      	ldr	r3, [r7, #12]
 810461e:	681b      	ldr	r3, [r3, #0]
 8104620:	3330      	adds	r3, #48	; 0x30
 8104622:	623b      	str	r3, [r7, #32]

  /* Check Direction parameter */
  assert_param(IS_SPI_DIRECTION_2LINES(hspi->Init.Direction));

  /* Lock the process */
  __HAL_LOCK(hspi);
 8104624:	68fb      	ldr	r3, [r7, #12]
 8104626:	f893 3080 	ldrb.w	r3, [r3, #128]	; 0x80
 810462a:	2b01      	cmp	r3, #1
 810462c:	d101      	bne.n	8104632 <HAL_SPI_TransmitReceive+0x32>
 810462e:	2302      	movs	r3, #2
 8104630:	e207      	b.n	8104a42 <HAL_SPI_TransmitReceive+0x442>
 8104632:	68fb      	ldr	r3, [r7, #12]
 8104634:	2201      	movs	r2, #1
 8104636:	f883 2080 	strb.w	r2, [r3, #128]	; 0x80

  /* Init tickstart for timeout management*/
  tickstart = HAL_GetTick();
 810463a:	f7fd f89b 	bl	8101774 <HAL_GetTick>
 810463e:	61f8      	str	r0, [r7, #28]

  initial_TxXferCount = Size;
 8104640:	887b      	ldrh	r3, [r7, #2]
 8104642:	85fb      	strh	r3, [r7, #46]	; 0x2e
  initial_RxXferCount = Size;
 8104644:	887b      	ldrh	r3, [r7, #2]
 8104646:	85bb      	strh	r3, [r7, #44]	; 0x2c
  tmp_state           = hspi->State;
 8104648:	68fb      	ldr	r3, [r7, #12]
 810464a:	f893 3081 	ldrb.w	r3, [r3, #129]	; 0x81
 810464e:	76fb      	strb	r3, [r7, #27]
  tmp_mode            = hspi->Init.Mode;
 8104650:	68fb      	ldr	r3, [r7, #12]
 8104652:	685b      	ldr	r3, [r3, #4]
 8104654:	617b      	str	r3, [r7, #20]

  if (!((tmp_state == HAL_SPI_STATE_READY) || \
 8104656:	7efb      	ldrb	r3, [r7, #27]
 8104658:	2b01      	cmp	r3, #1
 810465a:	d014      	beq.n	8104686 <HAL_SPI_TransmitReceive+0x86>
 810465c:	697b      	ldr	r3, [r7, #20]
 810465e:	f5b3 0f80 	cmp.w	r3, #4194304	; 0x400000
 8104662:	d106      	bne.n	8104672 <HAL_SPI_TransmitReceive+0x72>
        ((tmp_mode == SPI_MODE_MASTER) && \
         (hspi->Init.Direction == SPI_DIRECTION_2LINES) && \
 8104664:	68fb      	ldr	r3, [r7, #12]
 8104666:	689b      	ldr	r3, [r3, #8]
        ((tmp_mode == SPI_MODE_MASTER) && \
 8104668:	2b00      	cmp	r3, #0
 810466a:	d102      	bne.n	8104672 <HAL_SPI_TransmitReceive+0x72>
         (hspi->Init.Direction == SPI_DIRECTION_2LINES) && \
 810466c:	7efb      	ldrb	r3, [r7, #27]
 810466e:	2b04      	cmp	r3, #4
 8104670:	d009      	beq.n	8104686 <HAL_SPI_TransmitReceive+0x86>
         (tmp_state == HAL_SPI_STATE_BUSY_RX))))
  {
    errorcode = HAL_BUSY;
 8104672:	2302      	movs	r3, #2
 8104674:	f887 302b 	strb.w	r3, [r7, #43]	; 0x2b
    __HAL_UNLOCK(hspi);
 8104678:	68fb      	ldr	r3, [r7, #12]
 810467a:	2200      	movs	r2, #0
 810467c:	f883 2080 	strb.w	r2, [r3, #128]	; 0x80
    return errorcode;
 8104680:	f897 302b 	ldrb.w	r3, [r7, #43]	; 0x2b
 8104684:	e1dd      	b.n	8104a42 <HAL_SPI_TransmitReceive+0x442>
  }

  if ((pTxData == NULL) || (pRxData == NULL) || (Size == 0UL))
 8104686:	68bb      	ldr	r3, [r7, #8]
 8104688:	2b00      	cmp	r3, #0
 810468a:	d005      	beq.n	8104698 <HAL_SPI_TransmitReceive+0x98>
 810468c:	687b      	ldr	r3, [r7, #4]
 810468e:	2b00      	cmp	r3, #0
 8104690:	d002      	beq.n	8104698 <HAL_SPI_TransmitReceive+0x98>
 8104692:	887b      	ldrh	r3, [r7, #2]
 8104694:	2b00      	cmp	r3, #0
 8104696:	d109      	bne.n	81046ac <HAL_SPI_TransmitReceive+0xac>
  {
    errorcode = HAL_ERROR;
 8104698:	2301      	movs	r3, #1
 810469a:	f887 302b 	strb.w	r3, [r7, #43]	; 0x2b
    __HAL_UNLOCK(hspi);
 810469e:	68fb      	ldr	r3, [r7, #12]
 81046a0:	2200      	movs	r2, #0
 81046a2:	f883 2080 	strb.w	r2, [r3, #128]	; 0x80
    return errorcode;
 81046a6:	f897 302b 	ldrb.w	r3, [r7, #43]	; 0x2b
 81046aa:	e1ca      	b.n	8104a42 <HAL_SPI_TransmitReceive+0x442>
  }

  /* Don't overwrite in case of HAL_SPI_STATE_BUSY_RX */
  if (hspi->State != HAL_SPI_STATE_BUSY_RX)
 81046ac:	68fb      	ldr	r3, [r7, #12]
 81046ae:	f893 3081 	ldrb.w	r3, [r3, #129]	; 0x81
 81046b2:	b2db      	uxtb	r3, r3
 81046b4:	2b04      	cmp	r3, #4
 81046b6:	d003      	beq.n	81046c0 <HAL_SPI_TransmitReceive+0xc0>
  {
    hspi->State = HAL_SPI_STATE_BUSY_TX_RX;
 81046b8:	68fb      	ldr	r3, [r7, #12]
 81046ba:	2205      	movs	r2, #5
 81046bc:	f883 2081 	strb.w	r2, [r3, #129]	; 0x81
  }

  /* Set the transaction information */
  hspi->ErrorCode   = HAL_SPI_ERROR_NONE;
 81046c0:	68fb      	ldr	r3, [r7, #12]
 81046c2:	2200      	movs	r2, #0
 81046c4:	f8c3 2084 	str.w	r2, [r3, #132]	; 0x84
  hspi->pRxBuffPtr  = (uint8_t *)pRxData;
 81046c8:	68fb      	ldr	r3, [r7, #12]
 81046ca:	687a      	ldr	r2, [r7, #4]
 81046cc:	665a      	str	r2, [r3, #100]	; 0x64
  hspi->RxXferCount = Size;
 81046ce:	68fb      	ldr	r3, [r7, #12]
 81046d0:	887a      	ldrh	r2, [r7, #2]
 81046d2:	f8a3 206a 	strh.w	r2, [r3, #106]	; 0x6a
  hspi->RxXferSize  = Size;
 81046d6:	68fb      	ldr	r3, [r7, #12]
 81046d8:	887a      	ldrh	r2, [r7, #2]
 81046da:	f8a3 2068 	strh.w	r2, [r3, #104]	; 0x68
  hspi->pTxBuffPtr  = (uint8_t *)pTxData;
 81046de:	68fb      	ldr	r3, [r7, #12]
 81046e0:	68ba      	ldr	r2, [r7, #8]
 81046e2:	65da      	str	r2, [r3, #92]	; 0x5c
  hspi->TxXferCount = Size;
 81046e4:	68fb      	ldr	r3, [r7, #12]
 81046e6:	887a      	ldrh	r2, [r7, #2]
 81046e8:	f8a3 2062 	strh.w	r2, [r3, #98]	; 0x62
  hspi->TxXferSize  = Size;
 81046ec:	68fb      	ldr	r3, [r7, #12]
 81046ee:	887a      	ldrh	r2, [r7, #2]
 81046f0:	f8a3 2060 	strh.w	r2, [r3, #96]	; 0x60

  /*Init field not used in handle to zero */
  hspi->RxISR       = NULL;
 81046f4:	68fb      	ldr	r3, [r7, #12]
 81046f6:	2200      	movs	r2, #0
 81046f8:	671a      	str	r2, [r3, #112]	; 0x70
  hspi->TxISR       = NULL;
 81046fa:	68fb      	ldr	r3, [r7, #12]
 81046fc:	2200      	movs	r2, #0
 81046fe:	675a      	str	r2, [r3, #116]	; 0x74

  /* Set the number of data at current transfer */
  MODIFY_REG(hspi->Instance->CR2, SPI_CR2_TSIZE, Size);
 8104700:	68fb      	ldr	r3, [r7, #12]
 8104702:	681b      	ldr	r3, [r3, #0]
 8104704:	685b      	ldr	r3, [r3, #4]
 8104706:	0c1b      	lsrs	r3, r3, #16
 8104708:	041b      	lsls	r3, r3, #16
 810470a:	8879      	ldrh	r1, [r7, #2]
 810470c:	68fa      	ldr	r2, [r7, #12]
 810470e:	6812      	ldr	r2, [r2, #0]
 8104710:	430b      	orrs	r3, r1
 8104712:	6053      	str	r3, [r2, #4]

  __HAL_SPI_ENABLE(hspi);
 8104714:	68fb      	ldr	r3, [r7, #12]
 8104716:	681b      	ldr	r3, [r3, #0]
 8104718:	681a      	ldr	r2, [r3, #0]
 810471a:	68fb      	ldr	r3, [r7, #12]
 810471c:	681b      	ldr	r3, [r3, #0]
 810471e:	f042 0201 	orr.w	r2, r2, #1
 8104722:	601a      	str	r2, [r3, #0]

  if (hspi->Init.Mode == SPI_MODE_MASTER)
 8104724:	68fb      	ldr	r3, [r7, #12]
 8104726:	685b      	ldr	r3, [r3, #4]
 8104728:	f5b3 0f80 	cmp.w	r3, #4194304	; 0x400000
 810472c:	d107      	bne.n	810473e <HAL_SPI_TransmitReceive+0x13e>
  {
    /* Master transfer start */
    SET_BIT(hspi->Instance->CR1, SPI_CR1_CSTART);
 810472e:	68fb      	ldr	r3, [r7, #12]
 8104730:	681b      	ldr	r3, [r3, #0]
 8104732:	681a      	ldr	r2, [r3, #0]
 8104734:	68fb      	ldr	r3, [r7, #12]
 8104736:	681b      	ldr	r3, [r3, #0]
 8104738:	f442 7200 	orr.w	r2, r2, #512	; 0x200
 810473c:	601a      	str	r2, [r3, #0]
  }

  /* Transmit and Receive data in 32 Bit mode */
  if (hspi->Init.DataSize > SPI_DATASIZE_16BIT)
 810473e:	68fb      	ldr	r3, [r7, #12]
 8104740:	68db      	ldr	r3, [r3, #12]
 8104742:	2b0f      	cmp	r3, #15
 8104744:	d970      	bls.n	8104828 <HAL_SPI_TransmitReceive+0x228>
  {
    while ((initial_TxXferCount > 0UL) || (initial_RxXferCount > 0UL))
 8104746:	e068      	b.n	810481a <HAL_SPI_TransmitReceive+0x21a>
    {
      /* Check TXP flag */
      if ((__HAL_SPI_GET_FLAG(hspi, SPI_FLAG_TXP)) && (initial_TxXferCount > 0UL))
 8104748:	68fb      	ldr	r3, [r7, #12]
 810474a:	681b      	ldr	r3, [r3, #0]
 810474c:	695b      	ldr	r3, [r3, #20]
 810474e:	f003 0302 	and.w	r3, r3, #2
 8104752:	2b02      	cmp	r3, #2
 8104754:	d11a      	bne.n	810478c <HAL_SPI_TransmitReceive+0x18c>
 8104756:	8dfb      	ldrh	r3, [r7, #46]	; 0x2e
 8104758:	2b00      	cmp	r3, #0
 810475a:	d017      	beq.n	810478c <HAL_SPI_TransmitReceive+0x18c>
      {
        *((__IO uint32_t *)&hspi->Instance->TXDR) = *((uint32_t *)hspi->pTxBuffPtr);
 810475c:	68fb      	ldr	r3, [r7, #12]
 810475e:	6dda      	ldr	r2, [r3, #92]	; 0x5c
 8104760:	68fb      	ldr	r3, [r7, #12]
 8104762:	681b      	ldr	r3, [r3, #0]
 8104764:	6812      	ldr	r2, [r2, #0]
 8104766:	621a      	str	r2, [r3, #32]
        hspi->pTxBuffPtr += sizeof(uint32_t);
 8104768:	68fb      	ldr	r3, [r7, #12]
 810476a:	6ddb      	ldr	r3, [r3, #92]	; 0x5c
 810476c:	1d1a      	adds	r2, r3, #4
 810476e:	68fb      	ldr	r3, [r7, #12]
 8104770:	65da      	str	r2, [r3, #92]	; 0x5c
        hspi->TxXferCount --;
 8104772:	68fb      	ldr	r3, [r7, #12]
 8104774:	f8b3 3062 	ldrh.w	r3, [r3, #98]	; 0x62
 8104778:	b29b      	uxth	r3, r3
 810477a:	3b01      	subs	r3, #1
 810477c:	b29a      	uxth	r2, r3
 810477e:	68fb      	ldr	r3, [r7, #12]
 8104780:	f8a3 2062 	strh.w	r2, [r3, #98]	; 0x62
        initial_TxXferCount = hspi->TxXferCount;
 8104784:	68fb      	ldr	r3, [r7, #12]
 8104786:	f8b3 3062 	ldrh.w	r3, [r3, #98]	; 0x62
 810478a:	85fb      	strh	r3, [r7, #46]	; 0x2e
      }

      /* Check RXWNE/EOT flag */
      if (((hspi->Instance->SR & (SPI_FLAG_RXWNE | SPI_FLAG_EOT)) != 0UL) && (initial_RxXferCount > 0UL))
 810478c:	68fb      	ldr	r3, [r7, #12]
 810478e:	681b      	ldr	r3, [r3, #0]
 8104790:	695a      	ldr	r2, [r3, #20]
 8104792:	f248 0308 	movw	r3, #32776	; 0x8008
 8104796:	4013      	ands	r3, r2
 8104798:	2b00      	cmp	r3, #0
 810479a:	d01a      	beq.n	81047d2 <HAL_SPI_TransmitReceive+0x1d2>
 810479c:	8dbb      	ldrh	r3, [r7, #44]	; 0x2c
 810479e:	2b00      	cmp	r3, #0
 81047a0:	d017      	beq.n	81047d2 <HAL_SPI_TransmitReceive+0x1d2>
      {
        *((uint32_t *)hspi->pRxBuffPtr) = *((__IO uint32_t *)&hspi->Instance->RXDR);
 81047a2:	68fb      	ldr	r3, [r7, #12]
 81047a4:	681a      	ldr	r2, [r3, #0]
 81047a6:	68fb      	ldr	r3, [r7, #12]
 81047a8:	6e5b      	ldr	r3, [r3, #100]	; 0x64
 81047aa:	6b12      	ldr	r2, [r2, #48]	; 0x30
 81047ac:	601a      	str	r2, [r3, #0]
        hspi->pRxBuffPtr += sizeof(uint32_t);
 81047ae:	68fb      	ldr	r3, [r7, #12]
 81047b0:	6e5b      	ldr	r3, [r3, #100]	; 0x64
 81047b2:	1d1a      	adds	r2, r3, #4
 81047b4:	68fb      	ldr	r3, [r7, #12]
 81047b6:	665a      	str	r2, [r3, #100]	; 0x64
        hspi->RxXferCount --;
 81047b8:	68fb      	ldr	r3, [r7, #12]
 81047ba:	f8b3 306a 	ldrh.w	r3, [r3, #106]	; 0x6a
 81047be:	b29b      	uxth	r3, r3
 81047c0:	3b01      	subs	r3, #1
 81047c2:	b29a      	uxth	r2, r3
 81047c4:	68fb      	ldr	r3, [r7, #12]
 81047c6:	f8a3 206a 	strh.w	r2, [r3, #106]	; 0x6a
        initial_RxXferCount = hspi->RxXferCount;
 81047ca:	68fb      	ldr	r3, [r7, #12]
 81047cc:	f8b3 306a 	ldrh.w	r3, [r3, #106]	; 0x6a
 81047d0:	85bb      	strh	r3, [r7, #44]	; 0x2c
      }

      /* Timeout management */
      if ((((HAL_GetTick() - tickstart) >=  Timeout) && (Timeout != HAL_MAX_DELAY)) || (Timeout == 0U))
 81047d2:	f7fc ffcf 	bl	8101774 <HAL_GetTick>
 81047d6:	4602      	mov	r2, r0
 81047d8:	69fb      	ldr	r3, [r7, #28]
 81047da:	1ad3      	subs	r3, r2, r3
 81047dc:	6bba      	ldr	r2, [r7, #56]	; 0x38
 81047de:	429a      	cmp	r2, r3
 81047e0:	d803      	bhi.n	81047ea <HAL_SPI_TransmitReceive+0x1ea>
 81047e2:	6bbb      	ldr	r3, [r7, #56]	; 0x38
 81047e4:	f1b3 3fff 	cmp.w	r3, #4294967295
 81047e8:	d102      	bne.n	81047f0 <HAL_SPI_TransmitReceive+0x1f0>
 81047ea:	6bbb      	ldr	r3, [r7, #56]	; 0x38
 81047ec:	2b00      	cmp	r3, #0
 81047ee:	d114      	bne.n	810481a <HAL_SPI_TransmitReceive+0x21a>
      {
        /* Call standard close procedure with error check */
        SPI_CloseTransfer(hspi);
 81047f0:	68f8      	ldr	r0, [r7, #12]
 81047f2:	f000 fb39 	bl	8104e68 <SPI_CloseTransfer>

        /* Unlock the process */
        __HAL_UNLOCK(hspi);
 81047f6:	68fb      	ldr	r3, [r7, #12]
 81047f8:	2200      	movs	r2, #0
 81047fa:	f883 2080 	strb.w	r2, [r3, #128]	; 0x80

        SET_BIT(hspi->ErrorCode, HAL_SPI_ERROR_TIMEOUT);
 81047fe:	68fb      	ldr	r3, [r7, #12]
 8104800:	f8d3 3084 	ldr.w	r3, [r3, #132]	; 0x84
 8104804:	f443 7280 	orr.w	r2, r3, #256	; 0x100
 8104808:	68fb      	ldr	r3, [r7, #12]
 810480a:	f8c3 2084 	str.w	r2, [r3, #132]	; 0x84
        hspi->State = HAL_SPI_STATE_READY;
 810480e:	68fb      	ldr	r3, [r7, #12]
 8104810:	2201      	movs	r2, #1
 8104812:	f883 2081 	strb.w	r2, [r3, #129]	; 0x81
        return HAL_TIMEOUT;
 8104816:	2303      	movs	r3, #3
 8104818:	e113      	b.n	8104a42 <HAL_SPI_TransmitReceive+0x442>
    while ((initial_TxXferCount > 0UL) || (initial_RxXferCount > 0UL))
 810481a:	8dfb      	ldrh	r3, [r7, #46]	; 0x2e
 810481c:	2b00      	cmp	r3, #0
 810481e:	d193      	bne.n	8104748 <HAL_SPI_TransmitReceive+0x148>
 8104820:	8dbb      	ldrh	r3, [r7, #44]	; 0x2c
 8104822:	2b00      	cmp	r3, #0
 8104824:	d190      	bne.n	8104748 <HAL_SPI_TransmitReceive+0x148>
 8104826:	e0e5      	b.n	81049f4 <HAL_SPI_TransmitReceive+0x3f4>
      }
    }
  }
  /* Transmit and Receive data in 16 Bit mode */
  else if (hspi->Init.DataSize > SPI_DATASIZE_8BIT)
 8104828:	68fb      	ldr	r3, [r7, #12]
 810482a:	68db      	ldr	r3, [r3, #12]
 810482c:	2b07      	cmp	r3, #7
 810482e:	f240 80db 	bls.w	81049e8 <HAL_SPI_TransmitReceive+0x3e8>
  {
    while ((initial_TxXferCount > 0UL) || (initial_RxXferCount > 0UL))
 8104832:	e066      	b.n	8104902 <HAL_SPI_TransmitReceive+0x302>
    {
      /* Check the TXP flag */
      if (__HAL_SPI_GET_FLAG(hspi, SPI_FLAG_TXP) && (initial_TxXferCount > 0UL))
 8104834:	68fb      	ldr	r3, [r7, #12]
 8104836:	681b      	ldr	r3, [r3, #0]
 8104838:	695b      	ldr	r3, [r3, #20]
 810483a:	f003 0302 	and.w	r3, r3, #2
 810483e:	2b02      	cmp	r3, #2
 8104840:	d119      	bne.n	8104876 <HAL_SPI_TransmitReceive+0x276>
 8104842:	8dfb      	ldrh	r3, [r7, #46]	; 0x2e
 8104844:	2b00      	cmp	r3, #0
 8104846:	d016      	beq.n	8104876 <HAL_SPI_TransmitReceive+0x276>
      {
#if defined (__GNUC__)
        *ptxdr_16bits = *((uint16_t *)hspi->pTxBuffPtr);
 8104848:	68fb      	ldr	r3, [r7, #12]
 810484a:	6ddb      	ldr	r3, [r3, #92]	; 0x5c
 810484c:	881a      	ldrh	r2, [r3, #0]
 810484e:	6a7b      	ldr	r3, [r7, #36]	; 0x24
 8104850:	801a      	strh	r2, [r3, #0]
#else
        *((__IO uint16_t *)&hspi->Instance->TXDR) = *((uint16_t *)hspi->pTxBuffPtr);
#endif /* __GNUC__ */
        hspi->pTxBuffPtr += sizeof(uint16_t);
 8104852:	68fb      	ldr	r3, [r7, #12]
 8104854:	6ddb      	ldr	r3, [r3, #92]	; 0x5c
 8104856:	1c9a      	adds	r2, r3, #2
 8104858:	68fb      	ldr	r3, [r7, #12]
 810485a:	65da      	str	r2, [r3, #92]	; 0x5c
        hspi->TxXferCount--;
 810485c:	68fb      	ldr	r3, [r7, #12]
 810485e:	f8b3 3062 	ldrh.w	r3, [r3, #98]	; 0x62
 8104862:	b29b      	uxth	r3, r3
 8104864:	3b01      	subs	r3, #1
 8104866:	b29a      	uxth	r2, r3
 8104868:	68fb      	ldr	r3, [r7, #12]
 810486a:	f8a3 2062 	strh.w	r2, [r3, #98]	; 0x62
        initial_TxXferCount = hspi->TxXferCount;
 810486e:	68fb      	ldr	r3, [r7, #12]
 8104870:	f8b3 3062 	ldrh.w	r3, [r3, #98]	; 0x62
 8104874:	85fb      	strh	r3, [r7, #46]	; 0x2e
      }

      /* Check the RXP flag */
      if ((__HAL_SPI_GET_FLAG(hspi, SPI_FLAG_RXP)) && (initial_RxXferCount > 0UL))
 8104876:	68fb      	ldr	r3, [r7, #12]
 8104878:	681b      	ldr	r3, [r3, #0]
 810487a:	695b      	ldr	r3, [r3, #20]
 810487c:	f003 0301 	and.w	r3, r3, #1
 8104880:	2b01      	cmp	r3, #1
 8104882:	d11a      	bne.n	81048ba <HAL_SPI_TransmitReceive+0x2ba>
 8104884:	8dbb      	ldrh	r3, [r7, #44]	; 0x2c
 8104886:	2b00      	cmp	r3, #0
 8104888:	d017      	beq.n	81048ba <HAL_SPI_TransmitReceive+0x2ba>
      {
#if defined (__GNUC__)
        *((uint16_t *)hspi->pRxBuffPtr) = *prxdr_16bits;
 810488a:	68fb      	ldr	r3, [r7, #12]
 810488c:	6e5b      	ldr	r3, [r3, #100]	; 0x64
 810488e:	6a3a      	ldr	r2, [r7, #32]
 8104890:	8812      	ldrh	r2, [r2, #0]
 8104892:	b292      	uxth	r2, r2
 8104894:	801a      	strh	r2, [r3, #0]
#else
        *((uint16_t *)hspi->pRxBuffPtr) = *((__IO uint16_t *)&hspi->Instance->RXDR);
#endif /* __GNUC__ */
        hspi->pRxBuffPtr += sizeof(uint16_t);
 8104896:	68fb      	ldr	r3, [r7, #12]
 8104898:	6e5b      	ldr	r3, [r3, #100]	; 0x64
 810489a:	1c9a      	adds	r2, r3, #2
 810489c:	68fb      	ldr	r3, [r7, #12]
 810489e:	665a      	str	r2, [r3, #100]	; 0x64
        hspi->RxXferCount--;
 81048a0:	68fb      	ldr	r3, [r7, #12]
 81048a2:	f8b3 306a 	ldrh.w	r3, [r3, #106]	; 0x6a
 81048a6:	b29b      	uxth	r3, r3
 81048a8:	3b01      	subs	r3, #1
 81048aa:	b29a      	uxth	r2, r3
 81048ac:	68fb      	ldr	r3, [r7, #12]
 81048ae:	f8a3 206a 	strh.w	r2, [r3, #106]	; 0x6a
        initial_RxXferCount = hspi->RxXferCount;
 81048b2:	68fb      	ldr	r3, [r7, #12]
 81048b4:	f8b3 306a 	ldrh.w	r3, [r3, #106]	; 0x6a
 81048b8:	85bb      	strh	r3, [r7, #44]	; 0x2c
      }

      /* Timeout management */
      if ((((HAL_GetTick() - tickstart) >=  Timeout) && (Timeout != HAL_MAX_DELAY)) || (Timeout == 0U))
 81048ba:	f7fc ff5b 	bl	8101774 <HAL_GetTick>
 81048be:	4602      	mov	r2, r0
 81048c0:	69fb      	ldr	r3, [r7, #28]
 81048c2:	1ad3      	subs	r3, r2, r3
 81048c4:	6bba      	ldr	r2, [r7, #56]	; 0x38
 81048c6:	429a      	cmp	r2, r3
 81048c8:	d803      	bhi.n	81048d2 <HAL_SPI_TransmitReceive+0x2d2>
 81048ca:	6bbb      	ldr	r3, [r7, #56]	; 0x38
 81048cc:	f1b3 3fff 	cmp.w	r3, #4294967295
 81048d0:	d102      	bne.n	81048d8 <HAL_SPI_TransmitReceive+0x2d8>
 81048d2:	6bbb      	ldr	r3, [r7, #56]	; 0x38
 81048d4:	2b00      	cmp	r3, #0
 81048d6:	d114      	bne.n	8104902 <HAL_SPI_TransmitReceive+0x302>
      {
        /* Call standard close procedure with error check */
        SPI_CloseTransfer(hspi);
 81048d8:	68f8      	ldr	r0, [r7, #12]
 81048da:	f000 fac5 	bl	8104e68 <SPI_CloseTransfer>

        /* Unlock the process */
        __HAL_UNLOCK(hspi);
 81048de:	68fb      	ldr	r3, [r7, #12]
 81048e0:	2200      	movs	r2, #0
 81048e2:	f883 2080 	strb.w	r2, [r3, #128]	; 0x80

        SET_BIT(hspi->ErrorCode, HAL_SPI_ERROR_TIMEOUT);
 81048e6:	68fb      	ldr	r3, [r7, #12]
 81048e8:	f8d3 3084 	ldr.w	r3, [r3, #132]	; 0x84
 81048ec:	f443 7280 	orr.w	r2, r3, #256	; 0x100
 81048f0:	68fb      	ldr	r3, [r7, #12]
 81048f2:	f8c3 2084 	str.w	r2, [r3, #132]	; 0x84
        hspi->State = HAL_SPI_STATE_READY;
 81048f6:	68fb      	ldr	r3, [r7, #12]
 81048f8:	2201      	movs	r2, #1
 81048fa:	f883 2081 	strb.w	r2, [r3, #129]	; 0x81
        return HAL_TIMEOUT;
 81048fe:	2303      	movs	r3, #3
 8104900:	e09f      	b.n	8104a42 <HAL_SPI_TransmitReceive+0x442>
    while ((initial_TxXferCount > 0UL) || (initial_RxXferCount > 0UL))
 8104902:	8dfb      	ldrh	r3, [r7, #46]	; 0x2e
 8104904:	2b00      	cmp	r3, #0
 8104906:	d195      	bne.n	8104834 <HAL_SPI_TransmitReceive+0x234>
 8104908:	8dbb      	ldrh	r3, [r7, #44]	; 0x2c
 810490a:	2b00      	cmp	r3, #0
 810490c:	d192      	bne.n	8104834 <HAL_SPI_TransmitReceive+0x234>
 810490e:	e071      	b.n	81049f4 <HAL_SPI_TransmitReceive+0x3f4>
  else
  {
    while ((initial_TxXferCount > 0UL) || (initial_RxXferCount > 0UL))
    {
      /* Check the TXP flag */
      if ((__HAL_SPI_GET_FLAG(hspi, SPI_FLAG_TXP)) && (initial_TxXferCount > 0UL))
 8104910:	68fb      	ldr	r3, [r7, #12]
 8104912:	681b      	ldr	r3, [r3, #0]
 8104914:	695b      	ldr	r3, [r3, #20]
 8104916:	f003 0302 	and.w	r3, r3, #2
 810491a:	2b02      	cmp	r3, #2
 810491c:	d11b      	bne.n	8104956 <HAL_SPI_TransmitReceive+0x356>
 810491e:	8dfb      	ldrh	r3, [r7, #46]	; 0x2e
 8104920:	2b00      	cmp	r3, #0
 8104922:	d018      	beq.n	8104956 <HAL_SPI_TransmitReceive+0x356>
      {
        *((__IO uint8_t *)&hspi->Instance->TXDR) = *((uint8_t *)hspi->pTxBuffPtr);
 8104924:	68fb      	ldr	r3, [r7, #12]
 8104926:	6dda      	ldr	r2, [r3, #92]	; 0x5c
 8104928:	68fb      	ldr	r3, [r7, #12]
 810492a:	681b      	ldr	r3, [r3, #0]
 810492c:	3320      	adds	r3, #32
 810492e:	7812      	ldrb	r2, [r2, #0]
 8104930:	701a      	strb	r2, [r3, #0]
        hspi->pTxBuffPtr += sizeof(uint8_t);
 8104932:	68fb      	ldr	r3, [r7, #12]
 8104934:	6ddb      	ldr	r3, [r3, #92]	; 0x5c
 8104936:	1c5a      	adds	r2, r3, #1
 8104938:	68fb      	ldr	r3, [r7, #12]
 810493a:	65da      	str	r2, [r3, #92]	; 0x5c
        hspi->TxXferCount--;
 810493c:	68fb      	ldr	r3, [r7, #12]
 810493e:	f8b3 3062 	ldrh.w	r3, [r3, #98]	; 0x62
 8104942:	b29b      	uxth	r3, r3
 8104944:	3b01      	subs	r3, #1
 8104946:	b29a      	uxth	r2, r3
 8104948:	68fb      	ldr	r3, [r7, #12]
 810494a:	f8a3 2062 	strh.w	r2, [r3, #98]	; 0x62
        initial_TxXferCount = hspi->TxXferCount;
 810494e:	68fb      	ldr	r3, [r7, #12]
 8104950:	f8b3 3062 	ldrh.w	r3, [r3, #98]	; 0x62
 8104954:	85fb      	strh	r3, [r7, #46]	; 0x2e
      }

      /* Check the RXP flag */
      if ((__HAL_SPI_GET_FLAG(hspi, SPI_FLAG_RXP)) && (initial_RxXferCount > 0UL))
 8104956:	68fb      	ldr	r3, [r7, #12]
 8104958:	681b      	ldr	r3, [r3, #0]
 810495a:	695b      	ldr	r3, [r3, #20]
 810495c:	f003 0301 	and.w	r3, r3, #1
 8104960:	2b01      	cmp	r3, #1
 8104962:	d11d      	bne.n	81049a0 <HAL_SPI_TransmitReceive+0x3a0>
 8104964:	8dbb      	ldrh	r3, [r7, #44]	; 0x2c
 8104966:	2b00      	cmp	r3, #0
 8104968:	d01a      	beq.n	81049a0 <HAL_SPI_TransmitReceive+0x3a0>
      {
        *((uint8_t *)hspi->pRxBuffPtr) = *((__IO uint8_t *)&hspi->Instance->RXDR);
 810496a:	68fb      	ldr	r3, [r7, #12]
 810496c:	681b      	ldr	r3, [r3, #0]
 810496e:	f103 0230 	add.w	r2, r3, #48	; 0x30
 8104972:	68fb      	ldr	r3, [r7, #12]
 8104974:	6e5b      	ldr	r3, [r3, #100]	; 0x64
 8104976:	7812      	ldrb	r2, [r2, #0]
 8104978:	b2d2      	uxtb	r2, r2
 810497a:	701a      	strb	r2, [r3, #0]
        hspi->pRxBuffPtr += sizeof(uint8_t);
 810497c:	68fb      	ldr	r3, [r7, #12]
 810497e:	6e5b      	ldr	r3, [r3, #100]	; 0x64
 8104980:	1c5a      	adds	r2, r3, #1
 8104982:	68fb      	ldr	r3, [r7, #12]
 8104984:	665a      	str	r2, [r3, #100]	; 0x64
        hspi->RxXferCount--;
 8104986:	68fb      	ldr	r3, [r7, #12]
 8104988:	f8b3 306a 	ldrh.w	r3, [r3, #106]	; 0x6a
 810498c:	b29b      	uxth	r3, r3
 810498e:	3b01      	subs	r3, #1
 8104990:	b29a      	uxth	r2, r3
 8104992:	68fb      	ldr	r3, [r7, #12]
 8104994:	f8a3 206a 	strh.w	r2, [r3, #106]	; 0x6a
        initial_RxXferCount = hspi->RxXferCount;
 8104998:	68fb      	ldr	r3, [r7, #12]
 810499a:	f8b3 306a 	ldrh.w	r3, [r3, #106]	; 0x6a
 810499e:	85bb      	strh	r3, [r7, #44]	; 0x2c
      }

      /* Timeout management */
      if ((((HAL_GetTick() - tickstart) >=  Timeout) && (Timeout != HAL_MAX_DELAY)) || (Timeout == 0U))
 81049a0:	f7fc fee8 	bl	8101774 <HAL_GetTick>
 81049a4:	4602      	mov	r2, r0
 81049a6:	69fb      	ldr	r3, [r7, #28]
 81049a8:	1ad3      	subs	r3, r2, r3
 81049aa:	6bba      	ldr	r2, [r7, #56]	; 0x38
 81049ac:	429a      	cmp	r2, r3
 81049ae:	d803      	bhi.n	81049b8 <HAL_SPI_TransmitReceive+0x3b8>
 81049b0:	6bbb      	ldr	r3, [r7, #56]	; 0x38
 81049b2:	f1b3 3fff 	cmp.w	r3, #4294967295
 81049b6:	d102      	bne.n	81049be <HAL_SPI_TransmitReceive+0x3be>
 81049b8:	6bbb      	ldr	r3, [r7, #56]	; 0x38
 81049ba:	2b00      	cmp	r3, #0
 81049bc:	d114      	bne.n	81049e8 <HAL_SPI_TransmitReceive+0x3e8>
      {
        /* Call standard close procedure with error check */
        SPI_CloseTransfer(hspi);
 81049be:	68f8      	ldr	r0, [r7, #12]
 81049c0:	f000 fa52 	bl	8104e68 <SPI_CloseTransfer>

        /* Unlock the process */
        __HAL_UNLOCK(hspi);
 81049c4:	68fb      	ldr	r3, [r7, #12]
 81049c6:	2200      	movs	r2, #0
 81049c8:	f883 2080 	strb.w	r2, [r3, #128]	; 0x80

        SET_BIT(hspi->ErrorCode, HAL_SPI_ERROR_TIMEOUT);
 81049cc:	68fb      	ldr	r3, [r7, #12]
 81049ce:	f8d3 3084 	ldr.w	r3, [r3, #132]	; 0x84
 81049d2:	f443 7280 	orr.w	r2, r3, #256	; 0x100
 81049d6:	68fb      	ldr	r3, [r7, #12]
 81049d8:	f8c3 2084 	str.w	r2, [r3, #132]	; 0x84
        hspi->State = HAL_SPI_STATE_READY;
 81049dc:	68fb      	ldr	r3, [r7, #12]
 81049de:	2201      	movs	r2, #1
 81049e0:	f883 2081 	strb.w	r2, [r3, #129]	; 0x81
        return HAL_TIMEOUT;
 81049e4:	2303      	movs	r3, #3
 81049e6:	e02c      	b.n	8104a42 <HAL_SPI_TransmitReceive+0x442>
    while ((initial_TxXferCount > 0UL) || (initial_RxXferCount > 0UL))
 81049e8:	8dfb      	ldrh	r3, [r7, #46]	; 0x2e
 81049ea:	2b00      	cmp	r3, #0
 81049ec:	d190      	bne.n	8104910 <HAL_SPI_TransmitReceive+0x310>
 81049ee:	8dbb      	ldrh	r3, [r7, #44]	; 0x2c
 81049f0:	2b00      	cmp	r3, #0
 81049f2:	d18d      	bne.n	8104910 <HAL_SPI_TransmitReceive+0x310>
      }
    }
  }

  /* Wait for Tx/Rx (and CRC) data to be sent/received */
  if (SPI_WaitOnFlagUntilTimeout(hspi, SPI_FLAG_EOT, RESET, tickstart, Timeout) != HAL_OK)
 81049f4:	6bbb      	ldr	r3, [r7, #56]	; 0x38
 81049f6:	9300      	str	r3, [sp, #0]
 81049f8:	69fb      	ldr	r3, [r7, #28]
 81049fa:	2200      	movs	r2, #0
 81049fc:	2108      	movs	r1, #8
 81049fe:	68f8      	ldr	r0, [r7, #12]
 8104a00:	f000 fad2 	bl	8104fa8 <SPI_WaitOnFlagUntilTimeout>
 8104a04:	4603      	mov	r3, r0
 8104a06:	2b00      	cmp	r3, #0
 8104a08:	d007      	beq.n	8104a1a <HAL_SPI_TransmitReceive+0x41a>
  {
    SET_BIT(hspi->ErrorCode, HAL_SPI_ERROR_FLAG);
 8104a0a:	68fb      	ldr	r3, [r7, #12]
 8104a0c:	f8d3 3084 	ldr.w	r3, [r3, #132]	; 0x84
 8104a10:	f043 0220 	orr.w	r2, r3, #32
 8104a14:	68fb      	ldr	r3, [r7, #12]
 8104a16:	f8c3 2084 	str.w	r2, [r3, #132]	; 0x84
  }

  /* Call standard close procedure with error check */
  SPI_CloseTransfer(hspi);
 8104a1a:	68f8      	ldr	r0, [r7, #12]
 8104a1c:	f000 fa24 	bl	8104e68 <SPI_CloseTransfer>

  /* Unlock the process */
  __HAL_UNLOCK(hspi);
 8104a20:	68fb      	ldr	r3, [r7, #12]
 8104a22:	2200      	movs	r2, #0
 8104a24:	f883 2080 	strb.w	r2, [r3, #128]	; 0x80

  hspi->State = HAL_SPI_STATE_READY;
 8104a28:	68fb      	ldr	r3, [r7, #12]
 8104a2a:	2201      	movs	r2, #1
 8104a2c:	f883 2081 	strb.w	r2, [r3, #129]	; 0x81

  if (hspi->ErrorCode != HAL_SPI_ERROR_NONE)
 8104a30:	68fb      	ldr	r3, [r7, #12]
 8104a32:	f8d3 3084 	ldr.w	r3, [r3, #132]	; 0x84
 8104a36:	2b00      	cmp	r3, #0
 8104a38:	d001      	beq.n	8104a3e <HAL_SPI_TransmitReceive+0x43e>
  {
    return HAL_ERROR;
 8104a3a:	2301      	movs	r3, #1
 8104a3c:	e001      	b.n	8104a42 <HAL_SPI_TransmitReceive+0x442>
  }
  return errorcode;
 8104a3e:	f897 302b 	ldrb.w	r3, [r7, #43]	; 0x2b
}
 8104a42:	4618      	mov	r0, r3
 8104a44:	3730      	adds	r7, #48	; 0x30
 8104a46:	46bd      	mov	sp, r7
 8104a48:	bd80      	pop	{r7, pc}
	...

08104a4c <HAL_SPI_IRQHandler>:
  * @param  hspi: pointer to a SPI_HandleTypeDef structure that contains
  *               the configuration information for the specified SPI module.
  * @retval None
  */
void HAL_SPI_IRQHandler(SPI_HandleTypeDef *hspi)
{
 8104a4c:	b580      	push	{r7, lr}
 8104a4e:	b08a      	sub	sp, #40	; 0x28
 8104a50:	af00      	add	r7, sp, #0
 8104a52:	6078      	str	r0, [r7, #4]
  uint32_t itsource = hspi->Instance->IER;
 8104a54:	687b      	ldr	r3, [r7, #4]
 8104a56:	681b      	ldr	r3, [r3, #0]
 8104a58:	691b      	ldr	r3, [r3, #16]
 8104a5a:	623b      	str	r3, [r7, #32]
  uint32_t itflag   = hspi->Instance->SR;
 8104a5c:	687b      	ldr	r3, [r7, #4]
 8104a5e:	681b      	ldr	r3, [r3, #0]
 8104a60:	695b      	ldr	r3, [r3, #20]
 8104a62:	61fb      	str	r3, [r7, #28]
  uint32_t trigger  = itsource & itflag;
 8104a64:	6a3a      	ldr	r2, [r7, #32]
 8104a66:	69fb      	ldr	r3, [r7, #28]
 8104a68:	4013      	ands	r3, r2
 8104a6a:	61bb      	str	r3, [r7, #24]
  uint32_t cfg1     = hspi->Instance->CFG1;
 8104a6c:	687b      	ldr	r3, [r7, #4]
 8104a6e:	681b      	ldr	r3, [r3, #0]
 8104a70:	689b      	ldr	r3, [r3, #8]
 8104a72:	617b      	str	r3, [r7, #20]
  uint32_t handled  = 0UL;
 8104a74:	2300      	movs	r3, #0
 8104a76:	627b      	str	r3, [r7, #36]	; 0x24

  HAL_SPI_StateTypeDef State = hspi->State;
 8104a78:	687b      	ldr	r3, [r7, #4]
 8104a7a:	f893 3081 	ldrb.w	r3, [r3, #129]	; 0x81
 8104a7e:	74fb      	strb	r3, [r7, #19]
#if defined (__GNUC__)
  __IO uint16_t *prxdr_16bits = (__IO uint16_t *)(&(hspi->Instance->RXDR));
 8104a80:	687b      	ldr	r3, [r7, #4]
 8104a82:	681b      	ldr	r3, [r3, #0]
 8104a84:	3330      	adds	r3, #48	; 0x30
 8104a86:	60fb      	str	r3, [r7, #12]
#endif /* __GNUC__ */


  /* SPI in mode Transmitter and Receiver ------------------------------------*/
  if (HAL_IS_BIT_CLR(trigger, SPI_FLAG_OVR) && HAL_IS_BIT_CLR(trigger, SPI_FLAG_UDR) && \
 8104a88:	69bb      	ldr	r3, [r7, #24]
 8104a8a:	f003 0340 	and.w	r3, r3, #64	; 0x40
 8104a8e:	2b00      	cmp	r3, #0
 8104a90:	d113      	bne.n	8104aba <HAL_SPI_IRQHandler+0x6e>
 8104a92:	69bb      	ldr	r3, [r7, #24]
 8104a94:	f003 0320 	and.w	r3, r3, #32
 8104a98:	2b00      	cmp	r3, #0
 8104a9a:	d10e      	bne.n	8104aba <HAL_SPI_IRQHandler+0x6e>
      HAL_IS_BIT_SET(trigger, SPI_FLAG_DXP))
 8104a9c:	69bb      	ldr	r3, [r7, #24]
 8104a9e:	f003 0304 	and.w	r3, r3, #4
  if (HAL_IS_BIT_CLR(trigger, SPI_FLAG_OVR) && HAL_IS_BIT_CLR(trigger, SPI_FLAG_UDR) && \
 8104aa2:	2b00      	cmp	r3, #0
 8104aa4:	d009      	beq.n	8104aba <HAL_SPI_IRQHandler+0x6e>
  {
    hspi->TxISR(hspi);
 8104aa6:	687b      	ldr	r3, [r7, #4]
 8104aa8:	6f5b      	ldr	r3, [r3, #116]	; 0x74
 8104aaa:	6878      	ldr	r0, [r7, #4]
 8104aac:	4798      	blx	r3
    hspi->RxISR(hspi);
 8104aae:	687b      	ldr	r3, [r7, #4]
 8104ab0:	6f1b      	ldr	r3, [r3, #112]	; 0x70
 8104ab2:	6878      	ldr	r0, [r7, #4]
 8104ab4:	4798      	blx	r3
    handled = 1UL;
 8104ab6:	2301      	movs	r3, #1
 8104ab8:	627b      	str	r3, [r7, #36]	; 0x24
  }

  /* SPI in mode Receiver ----------------------------------------------------*/
  if (HAL_IS_BIT_CLR(trigger, SPI_FLAG_OVR) && HAL_IS_BIT_SET(trigger, SPI_FLAG_RXP) && \
 8104aba:	69bb      	ldr	r3, [r7, #24]
 8104abc:	f003 0340 	and.w	r3, r3, #64	; 0x40
 8104ac0:	2b00      	cmp	r3, #0
 8104ac2:	d10f      	bne.n	8104ae4 <HAL_SPI_IRQHandler+0x98>
 8104ac4:	69bb      	ldr	r3, [r7, #24]
 8104ac6:	f003 0301 	and.w	r3, r3, #1
 8104aca:	2b00      	cmp	r3, #0
 8104acc:	d00a      	beq.n	8104ae4 <HAL_SPI_IRQHandler+0x98>
      HAL_IS_BIT_CLR(trigger, SPI_FLAG_DXP))
 8104ace:	69bb      	ldr	r3, [r7, #24]
 8104ad0:	f003 0304 	and.w	r3, r3, #4
  if (HAL_IS_BIT_CLR(trigger, SPI_FLAG_OVR) && HAL_IS_BIT_SET(trigger, SPI_FLAG_RXP) && \
 8104ad4:	2b00      	cmp	r3, #0
 8104ad6:	d105      	bne.n	8104ae4 <HAL_SPI_IRQHandler+0x98>
  {
    hspi->RxISR(hspi);
 8104ad8:	687b      	ldr	r3, [r7, #4]
 8104ada:	6f1b      	ldr	r3, [r3, #112]	; 0x70
 8104adc:	6878      	ldr	r0, [r7, #4]
 8104ade:	4798      	blx	r3
    handled = 1UL;
 8104ae0:	2301      	movs	r3, #1
 8104ae2:	627b      	str	r3, [r7, #36]	; 0x24
  }

  /* SPI in mode Transmitter -------------------------------------------------*/
  if (HAL_IS_BIT_CLR(trigger, SPI_FLAG_UDR) && HAL_IS_BIT_SET(trigger, SPI_FLAG_TXP) && \
 8104ae4:	69bb      	ldr	r3, [r7, #24]
 8104ae6:	f003 0320 	and.w	r3, r3, #32
 8104aea:	2b00      	cmp	r3, #0
 8104aec:	d10f      	bne.n	8104b0e <HAL_SPI_IRQHandler+0xc2>
 8104aee:	69bb      	ldr	r3, [r7, #24]
 8104af0:	f003 0302 	and.w	r3, r3, #2
 8104af4:	2b00      	cmp	r3, #0
 8104af6:	d00a      	beq.n	8104b0e <HAL_SPI_IRQHandler+0xc2>
      HAL_IS_BIT_CLR(trigger, SPI_FLAG_DXP))
 8104af8:	69bb      	ldr	r3, [r7, #24]
 8104afa:	f003 0304 	and.w	r3, r3, #4
  if (HAL_IS_BIT_CLR(trigger, SPI_FLAG_UDR) && HAL_IS_BIT_SET(trigger, SPI_FLAG_TXP) && \
 8104afe:	2b00      	cmp	r3, #0
 8104b00:	d105      	bne.n	8104b0e <HAL_SPI_IRQHandler+0xc2>
  {
    hspi->TxISR(hspi);
 8104b02:	687b      	ldr	r3, [r7, #4]
 8104b04:	6f5b      	ldr	r3, [r3, #116]	; 0x74
 8104b06:	6878      	ldr	r0, [r7, #4]
 8104b08:	4798      	blx	r3
    handled = 1UL;
 8104b0a:	2301      	movs	r3, #1
 8104b0c:	627b      	str	r3, [r7, #36]	; 0x24
    hspi->Reload.Requested = 0UL;
    __HAL_SPI_CLEAR_TSERFFLAG(hspi);
  }
#endif /* USE_SPI_RELOAD_TRANSFER */

  if (handled != 0UL)
 8104b0e:	6a7b      	ldr	r3, [r7, #36]	; 0x24
 8104b10:	2b00      	cmp	r3, #0
 8104b12:	f040 815c 	bne.w	8104dce <HAL_SPI_IRQHandler+0x382>
  {
    return;
  }

  /* SPI End Of Transfer: DMA or IT based transfer */
  if (HAL_IS_BIT_SET(trigger, SPI_FLAG_EOT))
 8104b16:	69bb      	ldr	r3, [r7, #24]
 8104b18:	f003 0308 	and.w	r3, r3, #8
 8104b1c:	2b00      	cmp	r3, #0
 8104b1e:	f000 808b 	beq.w	8104c38 <HAL_SPI_IRQHandler+0x1ec>
  {
    /* Clear EOT/TXTF/SUSP flag */
    __HAL_SPI_CLEAR_EOTFLAG(hspi);
 8104b22:	687b      	ldr	r3, [r7, #4]
 8104b24:	681b      	ldr	r3, [r3, #0]
 8104b26:	699a      	ldr	r2, [r3, #24]
 8104b28:	687b      	ldr	r3, [r7, #4]
 8104b2a:	681b      	ldr	r3, [r3, #0]
 8104b2c:	f042 0208 	orr.w	r2, r2, #8
 8104b30:	619a      	str	r2, [r3, #24]
    __HAL_SPI_CLEAR_TXTFFLAG(hspi);
 8104b32:	687b      	ldr	r3, [r7, #4]
 8104b34:	681b      	ldr	r3, [r3, #0]
 8104b36:	699a      	ldr	r2, [r3, #24]
 8104b38:	687b      	ldr	r3, [r7, #4]
 8104b3a:	681b      	ldr	r3, [r3, #0]
 8104b3c:	f042 0210 	orr.w	r2, r2, #16
 8104b40:	619a      	str	r2, [r3, #24]
    __HAL_SPI_CLEAR_SUSPFLAG(hspi);
 8104b42:	687b      	ldr	r3, [r7, #4]
 8104b44:	681b      	ldr	r3, [r3, #0]
 8104b46:	699a      	ldr	r2, [r3, #24]
 8104b48:	687b      	ldr	r3, [r7, #4]
 8104b4a:	681b      	ldr	r3, [r3, #0]
 8104b4c:	f442 6200 	orr.w	r2, r2, #2048	; 0x800
 8104b50:	619a      	str	r2, [r3, #24]

    /* Disable EOT interrupt */
    __HAL_SPI_DISABLE_IT(hspi, SPI_IT_EOT);
 8104b52:	687b      	ldr	r3, [r7, #4]
 8104b54:	681b      	ldr	r3, [r3, #0]
 8104b56:	691a      	ldr	r2, [r3, #16]
 8104b58:	687b      	ldr	r3, [r7, #4]
 8104b5a:	681b      	ldr	r3, [r3, #0]
 8104b5c:	f022 0208 	bic.w	r2, r2, #8
 8104b60:	611a      	str	r2, [r3, #16]

    /* For the IT based receive extra polling maybe required for last packet */
    if (HAL_IS_BIT_CLR(hspi->Instance->CFG1, SPI_CFG1_TXDMAEN | SPI_CFG1_RXDMAEN))
 8104b62:	687b      	ldr	r3, [r7, #4]
 8104b64:	681b      	ldr	r3, [r3, #0]
 8104b66:	689b      	ldr	r3, [r3, #8]
 8104b68:	f403 4340 	and.w	r3, r3, #49152	; 0xc000
 8104b6c:	2b00      	cmp	r3, #0
 8104b6e:	d13d      	bne.n	8104bec <HAL_SPI_IRQHandler+0x1a0>
    {
      /* Pooling remaining data */
      while (hspi->RxXferCount != 0UL)
 8104b70:	e036      	b.n	8104be0 <HAL_SPI_IRQHandler+0x194>
      {
        /* Receive data in 32 Bit mode */
        if (hspi->Init.DataSize > SPI_DATASIZE_16BIT)
 8104b72:	687b      	ldr	r3, [r7, #4]
 8104b74:	68db      	ldr	r3, [r3, #12]
 8104b76:	2b0f      	cmp	r3, #15
 8104b78:	d90b      	bls.n	8104b92 <HAL_SPI_IRQHandler+0x146>
        {
          *((uint32_t *)hspi->pRxBuffPtr) = *((__IO uint32_t *)&hspi->Instance->RXDR);
 8104b7a:	687b      	ldr	r3, [r7, #4]
 8104b7c:	681a      	ldr	r2, [r3, #0]
 8104b7e:	687b      	ldr	r3, [r7, #4]
 8104b80:	6e5b      	ldr	r3, [r3, #100]	; 0x64
 8104b82:	6b12      	ldr	r2, [r2, #48]	; 0x30
 8104b84:	601a      	str	r2, [r3, #0]
          hspi->pRxBuffPtr += sizeof(uint32_t);
 8104b86:	687b      	ldr	r3, [r7, #4]
 8104b88:	6e5b      	ldr	r3, [r3, #100]	; 0x64
 8104b8a:	1d1a      	adds	r2, r3, #4
 8104b8c:	687b      	ldr	r3, [r7, #4]
 8104b8e:	665a      	str	r2, [r3, #100]	; 0x64
 8104b90:	e01d      	b.n	8104bce <HAL_SPI_IRQHandler+0x182>
        }
        /* Receive data in 16 Bit mode */
        else if (hspi->Init.DataSize > SPI_DATASIZE_8BIT)
 8104b92:	687b      	ldr	r3, [r7, #4]
 8104b94:	68db      	ldr	r3, [r3, #12]
 8104b96:	2b07      	cmp	r3, #7
 8104b98:	d90b      	bls.n	8104bb2 <HAL_SPI_IRQHandler+0x166>
        {
#if defined (__GNUC__)
          *((uint16_t *)hspi->pRxBuffPtr) = *prxdr_16bits;
 8104b9a:	687b      	ldr	r3, [r7, #4]
 8104b9c:	6e5b      	ldr	r3, [r3, #100]	; 0x64
 8104b9e:	68fa      	ldr	r2, [r7, #12]
 8104ba0:	8812      	ldrh	r2, [r2, #0]
 8104ba2:	b292      	uxth	r2, r2
 8104ba4:	801a      	strh	r2, [r3, #0]
#else
          *((uint16_t *)hspi->pRxBuffPtr) = *((__IO uint16_t *)&hspi->Instance->RXDR);
#endif /* __GNUC__ */
          hspi->pRxBuffPtr += sizeof(uint16_t);
 8104ba6:	687b      	ldr	r3, [r7, #4]
 8104ba8:	6e5b      	ldr	r3, [r3, #100]	; 0x64
 8104baa:	1c9a      	adds	r2, r3, #2
 8104bac:	687b      	ldr	r3, [r7, #4]
 8104bae:	665a      	str	r2, [r3, #100]	; 0x64
 8104bb0:	e00d      	b.n	8104bce <HAL_SPI_IRQHandler+0x182>
        }
        /* Receive data in 8 Bit mode */
        else
        {
          *((uint8_t *)hspi->pRxBuffPtr) = *((__IO uint8_t *)&hspi->Instance->RXDR);
 8104bb2:	687b      	ldr	r3, [r7, #4]
 8104bb4:	681b      	ldr	r3, [r3, #0]
 8104bb6:	f103 0230 	add.w	r2, r3, #48	; 0x30
 8104bba:	687b      	ldr	r3, [r7, #4]
 8104bbc:	6e5b      	ldr	r3, [r3, #100]	; 0x64
 8104bbe:	7812      	ldrb	r2, [r2, #0]
 8104bc0:	b2d2      	uxtb	r2, r2
 8104bc2:	701a      	strb	r2, [r3, #0]
          hspi->pRxBuffPtr += sizeof(uint8_t);
 8104bc4:	687b      	ldr	r3, [r7, #4]
 8104bc6:	6e5b      	ldr	r3, [r3, #100]	; 0x64
 8104bc8:	1c5a      	adds	r2, r3, #1
 8104bca:	687b      	ldr	r3, [r7, #4]
 8104bcc:	665a      	str	r2, [r3, #100]	; 0x64
        }

        hspi->RxXferCount--;
 8104bce:	687b      	ldr	r3, [r7, #4]
 8104bd0:	f8b3 306a 	ldrh.w	r3, [r3, #106]	; 0x6a
 8104bd4:	b29b      	uxth	r3, r3
 8104bd6:	3b01      	subs	r3, #1
 8104bd8:	b29a      	uxth	r2, r3
 8104bda:	687b      	ldr	r3, [r7, #4]
 8104bdc:	f8a3 206a 	strh.w	r2, [r3, #106]	; 0x6a
      while (hspi->RxXferCount != 0UL)
 8104be0:	687b      	ldr	r3, [r7, #4]
 8104be2:	f8b3 306a 	ldrh.w	r3, [r3, #106]	; 0x6a
 8104be6:	b29b      	uxth	r3, r3
 8104be8:	2b00      	cmp	r3, #0
 8104bea:	d1c2      	bne.n	8104b72 <HAL_SPI_IRQHandler+0x126>
      }
    }

    /* Call SPI Standard close procedure */
    SPI_CloseTransfer(hspi);
 8104bec:	6878      	ldr	r0, [r7, #4]
 8104bee:	f000 f93b 	bl	8104e68 <SPI_CloseTransfer>

    hspi->State = HAL_SPI_STATE_READY;
 8104bf2:	687b      	ldr	r3, [r7, #4]
 8104bf4:	2201      	movs	r2, #1
 8104bf6:	f883 2081 	strb.w	r2, [r3, #129]	; 0x81
    if (hspi->ErrorCode != HAL_SPI_ERROR_NONE)
 8104bfa:	687b      	ldr	r3, [r7, #4]
 8104bfc:	f8d3 3084 	ldr.w	r3, [r3, #132]	; 0x84
 8104c00:	2b00      	cmp	r3, #0
 8104c02:	d003      	beq.n	8104c0c <HAL_SPI_IRQHandler+0x1c0>
    {
#if (USE_HAL_SPI_REGISTER_CALLBACKS == 1UL)
      hspi->ErrorCallback(hspi);
#else
      HAL_SPI_ErrorCallback(hspi);
 8104c04:	6878      	ldr	r0, [r7, #4]
 8104c06:	f000 f90b 	bl	8104e20 <HAL_SPI_ErrorCallback>
#endif /* USE_HAL_SPI_REGISTER_CALLBACKS */
      return;
 8104c0a:	e0e5      	b.n	8104dd8 <HAL_SPI_IRQHandler+0x38c>
    {
      hspi->TxCpltCallback(hspi);
    }
#else
    /* Call appropriate user callback */
    if (State == HAL_SPI_STATE_BUSY_TX_RX)
 8104c0c:	7cfb      	ldrb	r3, [r7, #19]
 8104c0e:	2b05      	cmp	r3, #5
 8104c10:	d103      	bne.n	8104c1a <HAL_SPI_IRQHandler+0x1ce>
    {
      HAL_SPI_TxRxCpltCallback(hspi);
 8104c12:	6878      	ldr	r0, [r7, #4]
 8104c14:	f000 f8fa 	bl	8104e0c <HAL_SPI_TxRxCpltCallback>
    else
    {
      /* End of the appropriate call */
    }

    return;
 8104c18:	e0db      	b.n	8104dd2 <HAL_SPI_IRQHandler+0x386>
    else if (State == HAL_SPI_STATE_BUSY_RX)
 8104c1a:	7cfb      	ldrb	r3, [r7, #19]
 8104c1c:	2b04      	cmp	r3, #4
 8104c1e:	d103      	bne.n	8104c28 <HAL_SPI_IRQHandler+0x1dc>
      HAL_SPI_RxCpltCallback(hspi);
 8104c20:	6878      	ldr	r0, [r7, #4]
 8104c22:	f000 f8e9 	bl	8104df8 <HAL_SPI_RxCpltCallback>
    return;
 8104c26:	e0d4      	b.n	8104dd2 <HAL_SPI_IRQHandler+0x386>
    else if (State == HAL_SPI_STATE_BUSY_TX)
 8104c28:	7cfb      	ldrb	r3, [r7, #19]
 8104c2a:	2b03      	cmp	r3, #3
 8104c2c:	f040 80d1 	bne.w	8104dd2 <HAL_SPI_IRQHandler+0x386>
      HAL_SPI_TxCpltCallback(hspi);
 8104c30:	6878      	ldr	r0, [r7, #4]
 8104c32:	f000 f8d7 	bl	8104de4 <HAL_SPI_TxCpltCallback>
    return;
 8104c36:	e0cc      	b.n	8104dd2 <HAL_SPI_IRQHandler+0x386>
  }

  if (HAL_IS_BIT_SET(itflag, SPI_FLAG_SUSP) && HAL_IS_BIT_SET(itsource, SPI_FLAG_EOT))
 8104c38:	69fb      	ldr	r3, [r7, #28]
 8104c3a:	f403 6300 	and.w	r3, r3, #2048	; 0x800
 8104c3e:	2b00      	cmp	r3, #0
 8104c40:	d00d      	beq.n	8104c5e <HAL_SPI_IRQHandler+0x212>
 8104c42:	6a3b      	ldr	r3, [r7, #32]
 8104c44:	f003 0308 	and.w	r3, r3, #8
 8104c48:	2b00      	cmp	r3, #0
 8104c4a:	d008      	beq.n	8104c5e <HAL_SPI_IRQHandler+0x212>
  {
    /* Abort on going, clear SUSP flag to avoid infinite looping */
    __HAL_SPI_CLEAR_SUSPFLAG(hspi);
 8104c4c:	687b      	ldr	r3, [r7, #4]
 8104c4e:	681b      	ldr	r3, [r3, #0]
 8104c50:	699a      	ldr	r2, [r3, #24]
 8104c52:	687b      	ldr	r3, [r7, #4]
 8104c54:	681b      	ldr	r3, [r3, #0]
 8104c56:	f442 6200 	orr.w	r2, r2, #2048	; 0x800
 8104c5a:	619a      	str	r2, [r3, #24]

    return;
 8104c5c:	e0bc      	b.n	8104dd8 <HAL_SPI_IRQHandler+0x38c>
  }

  /* SPI in Error Treatment --------------------------------------------------*/
  if ((trigger & (SPI_FLAG_MODF | SPI_FLAG_OVR | SPI_FLAG_FRE | SPI_FLAG_UDR)) != 0UL)
 8104c5e:	69bb      	ldr	r3, [r7, #24]
 8104c60:	f403 7358 	and.w	r3, r3, #864	; 0x360
 8104c64:	2b00      	cmp	r3, #0
 8104c66:	f000 80b7 	beq.w	8104dd8 <HAL_SPI_IRQHandler+0x38c>
  {
    /* SPI Overrun error interrupt occurred ----------------------------------*/
    if ((trigger & SPI_FLAG_OVR) != 0UL)
 8104c6a:	69bb      	ldr	r3, [r7, #24]
 8104c6c:	f003 0340 	and.w	r3, r3, #64	; 0x40
 8104c70:	2b00      	cmp	r3, #0
 8104c72:	d00f      	beq.n	8104c94 <HAL_SPI_IRQHandler+0x248>
    {
      SET_BIT(hspi->ErrorCode, HAL_SPI_ERROR_OVR);
 8104c74:	687b      	ldr	r3, [r7, #4]
 8104c76:	f8d3 3084 	ldr.w	r3, [r3, #132]	; 0x84
 8104c7a:	f043 0204 	orr.w	r2, r3, #4
 8104c7e:	687b      	ldr	r3, [r7, #4]
 8104c80:	f8c3 2084 	str.w	r2, [r3, #132]	; 0x84
      __HAL_SPI_CLEAR_OVRFLAG(hspi);
 8104c84:	687b      	ldr	r3, [r7, #4]
 8104c86:	681b      	ldr	r3, [r3, #0]
 8104c88:	699a      	ldr	r2, [r3, #24]
 8104c8a:	687b      	ldr	r3, [r7, #4]
 8104c8c:	681b      	ldr	r3, [r3, #0]
 8104c8e:	f042 0240 	orr.w	r2, r2, #64	; 0x40
 8104c92:	619a      	str	r2, [r3, #24]
    }

    /* SPI Mode Fault error interrupt occurred -------------------------------*/
    if ((trigger & SPI_FLAG_MODF) != 0UL)
 8104c94:	69bb      	ldr	r3, [r7, #24]
 8104c96:	f403 7300 	and.w	r3, r3, #512	; 0x200
 8104c9a:	2b00      	cmp	r3, #0
 8104c9c:	d00f      	beq.n	8104cbe <HAL_SPI_IRQHandler+0x272>
    {
      SET_BIT(hspi->ErrorCode, HAL_SPI_ERROR_MODF);
 8104c9e:	687b      	ldr	r3, [r7, #4]
 8104ca0:	f8d3 3084 	ldr.w	r3, [r3, #132]	; 0x84
 8104ca4:	f043 0201 	orr.w	r2, r3, #1
 8104ca8:	687b      	ldr	r3, [r7, #4]
 8104caa:	f8c3 2084 	str.w	r2, [r3, #132]	; 0x84
      __HAL_SPI_CLEAR_MODFFLAG(hspi);
 8104cae:	687b      	ldr	r3, [r7, #4]
 8104cb0:	681b      	ldr	r3, [r3, #0]
 8104cb2:	699a      	ldr	r2, [r3, #24]
 8104cb4:	687b      	ldr	r3, [r7, #4]
 8104cb6:	681b      	ldr	r3, [r3, #0]
 8104cb8:	f442 7200 	orr.w	r2, r2, #512	; 0x200
 8104cbc:	619a      	str	r2, [r3, #24]
    }

    /* SPI Frame error interrupt occurred ------------------------------------*/
    if ((trigger & SPI_FLAG_FRE) != 0UL)
 8104cbe:	69bb      	ldr	r3, [r7, #24]
 8104cc0:	f403 7380 	and.w	r3, r3, #256	; 0x100
 8104cc4:	2b00      	cmp	r3, #0
 8104cc6:	d00f      	beq.n	8104ce8 <HAL_SPI_IRQHandler+0x29c>
    {
      SET_BIT(hspi->ErrorCode, HAL_SPI_ERROR_FRE);
 8104cc8:	687b      	ldr	r3, [r7, #4]
 8104cca:	f8d3 3084 	ldr.w	r3, [r3, #132]	; 0x84
 8104cce:	f043 0208 	orr.w	r2, r3, #8
 8104cd2:	687b      	ldr	r3, [r7, #4]
 8104cd4:	f8c3 2084 	str.w	r2, [r3, #132]	; 0x84
      __HAL_SPI_CLEAR_FREFLAG(hspi);
 8104cd8:	687b      	ldr	r3, [r7, #4]
 8104cda:	681b      	ldr	r3, [r3, #0]
 8104cdc:	699a      	ldr	r2, [r3, #24]
 8104cde:	687b      	ldr	r3, [r7, #4]
 8104ce0:	681b      	ldr	r3, [r3, #0]
 8104ce2:	f442 7280 	orr.w	r2, r2, #256	; 0x100
 8104ce6:	619a      	str	r2, [r3, #24]
    }

    /* SPI Underrun error interrupt occurred ------------------------------------*/
    if ((trigger & SPI_FLAG_UDR) != 0UL)
 8104ce8:	69bb      	ldr	r3, [r7, #24]
 8104cea:	f003 0320 	and.w	r3, r3, #32
 8104cee:	2b00      	cmp	r3, #0
 8104cf0:	d00f      	beq.n	8104d12 <HAL_SPI_IRQHandler+0x2c6>
    {
      SET_BIT(hspi->ErrorCode, HAL_SPI_ERROR_UDR);
 8104cf2:	687b      	ldr	r3, [r7, #4]
 8104cf4:	f8d3 3084 	ldr.w	r3, [r3, #132]	; 0x84
 8104cf8:	f043 0280 	orr.w	r2, r3, #128	; 0x80
 8104cfc:	687b      	ldr	r3, [r7, #4]
 8104cfe:	f8c3 2084 	str.w	r2, [r3, #132]	; 0x84
      __HAL_SPI_CLEAR_UDRFLAG(hspi);
 8104d02:	687b      	ldr	r3, [r7, #4]
 8104d04:	681b      	ldr	r3, [r3, #0]
 8104d06:	699a      	ldr	r2, [r3, #24]
 8104d08:	687b      	ldr	r3, [r7, #4]
 8104d0a:	681b      	ldr	r3, [r3, #0]
 8104d0c:	f042 0220 	orr.w	r2, r2, #32
 8104d10:	619a      	str	r2, [r3, #24]
    }

    if (hspi->ErrorCode != HAL_SPI_ERROR_NONE)
 8104d12:	687b      	ldr	r3, [r7, #4]
 8104d14:	f8d3 3084 	ldr.w	r3, [r3, #132]	; 0x84
 8104d18:	2b00      	cmp	r3, #0
 8104d1a:	d05c      	beq.n	8104dd6 <HAL_SPI_IRQHandler+0x38a>
    {
      /* Disable SPI peripheral */
      __HAL_SPI_DISABLE(hspi);
 8104d1c:	687b      	ldr	r3, [r7, #4]
 8104d1e:	681b      	ldr	r3, [r3, #0]
 8104d20:	681a      	ldr	r2, [r3, #0]
 8104d22:	687b      	ldr	r3, [r7, #4]
 8104d24:	681b      	ldr	r3, [r3, #0]
 8104d26:	f022 0201 	bic.w	r2, r2, #1
 8104d2a:	601a      	str	r2, [r3, #0]

      /* Disable all interrupts */
      __HAL_SPI_DISABLE_IT(hspi, (SPI_IT_EOT | SPI_IT_RXP | SPI_IT_TXP | SPI_IT_MODF |
 8104d2c:	687b      	ldr	r3, [r7, #4]
 8104d2e:	681b      	ldr	r3, [r3, #0]
 8104d30:	691b      	ldr	r3, [r3, #16]
 8104d32:	687a      	ldr	r2, [r7, #4]
 8104d34:	6812      	ldr	r2, [r2, #0]
 8104d36:	f423 735a 	bic.w	r3, r3, #872	; 0x368
 8104d3a:	f023 0303 	bic.w	r3, r3, #3
 8104d3e:	6113      	str	r3, [r2, #16]
                                  SPI_IT_OVR | SPI_IT_FRE | SPI_IT_UDR));

      /* Disable the SPI DMA requests if enabled */
      if (HAL_IS_BIT_SET(cfg1, SPI_CFG1_TXDMAEN | SPI_CFG1_RXDMAEN))
 8104d40:	697b      	ldr	r3, [r7, #20]
 8104d42:	f403 4340 	and.w	r3, r3, #49152	; 0xc000
 8104d46:	f5b3 4f40 	cmp.w	r3, #49152	; 0xc000
 8104d4a:	d138      	bne.n	8104dbe <HAL_SPI_IRQHandler+0x372>
      {
        /* Disable the SPI DMA requests */
        CLEAR_BIT(hspi->Instance->CFG1, SPI_CFG1_TXDMAEN | SPI_CFG1_RXDMAEN);
 8104d4c:	687b      	ldr	r3, [r7, #4]
 8104d4e:	681b      	ldr	r3, [r3, #0]
 8104d50:	689a      	ldr	r2, [r3, #8]
 8104d52:	687b      	ldr	r3, [r7, #4]
 8104d54:	681b      	ldr	r3, [r3, #0]
 8104d56:	f422 4240 	bic.w	r2, r2, #49152	; 0xc000
 8104d5a:	609a      	str	r2, [r3, #8]

        /* Abort the SPI DMA Rx channel */
        if (hspi->hdmarx != NULL)
 8104d5c:	687b      	ldr	r3, [r7, #4]
 8104d5e:	6fdb      	ldr	r3, [r3, #124]	; 0x7c
 8104d60:	2b00      	cmp	r3, #0
 8104d62:	d013      	beq.n	8104d8c <HAL_SPI_IRQHandler+0x340>
        {
          /* Set the SPI DMA Abort callback :
          will lead to call HAL_SPI_ErrorCallback() at end of DMA abort procedure */
          hspi->hdmarx->XferAbortCallback = SPI_DMAAbortOnError;
 8104d64:	687b      	ldr	r3, [r7, #4]
 8104d66:	6fdb      	ldr	r3, [r3, #124]	; 0x7c
 8104d68:	4a1d      	ldr	r2, [pc, #116]	; (8104de0 <HAL_SPI_IRQHandler+0x394>)
 8104d6a:	651a      	str	r2, [r3, #80]	; 0x50
          if (HAL_OK != HAL_DMA_Abort_IT(hspi->hdmarx))
 8104d6c:	687b      	ldr	r3, [r7, #4]
 8104d6e:	6fdb      	ldr	r3, [r3, #124]	; 0x7c
 8104d70:	4618      	mov	r0, r3
 8104d72:	f7fd f9ad 	bl	81020d0 <HAL_DMA_Abort_IT>
 8104d76:	4603      	mov	r3, r0
 8104d78:	2b00      	cmp	r3, #0
 8104d7a:	d007      	beq.n	8104d8c <HAL_SPI_IRQHandler+0x340>
          {
            SET_BIT(hspi->ErrorCode, HAL_SPI_ERROR_ABORT);
 8104d7c:	687b      	ldr	r3, [r7, #4]
 8104d7e:	f8d3 3084 	ldr.w	r3, [r3, #132]	; 0x84
 8104d82:	f043 0240 	orr.w	r2, r3, #64	; 0x40
 8104d86:	687b      	ldr	r3, [r7, #4]
 8104d88:	f8c3 2084 	str.w	r2, [r3, #132]	; 0x84
          }
        }
        /* Abort the SPI DMA Tx channel */
        if (hspi->hdmatx != NULL)
 8104d8c:	687b      	ldr	r3, [r7, #4]
 8104d8e:	6f9b      	ldr	r3, [r3, #120]	; 0x78
 8104d90:	2b00      	cmp	r3, #0
 8104d92:	d020      	beq.n	8104dd6 <HAL_SPI_IRQHandler+0x38a>
        {
          /* Set the SPI DMA Abort callback :
          will lead to call HAL_SPI_ErrorCallback() at end of DMA abort procedure */
          hspi->hdmatx->XferAbortCallback = SPI_DMAAbortOnError;
 8104d94:	687b      	ldr	r3, [r7, #4]
 8104d96:	6f9b      	ldr	r3, [r3, #120]	; 0x78
 8104d98:	4a11      	ldr	r2, [pc, #68]	; (8104de0 <HAL_SPI_IRQHandler+0x394>)
 8104d9a:	651a      	str	r2, [r3, #80]	; 0x50
          if (HAL_OK != HAL_DMA_Abort_IT(hspi->hdmatx))
 8104d9c:	687b      	ldr	r3, [r7, #4]
 8104d9e:	6f9b      	ldr	r3, [r3, #120]	; 0x78
 8104da0:	4618      	mov	r0, r3
 8104da2:	f7fd f995 	bl	81020d0 <HAL_DMA_Abort_IT>
 8104da6:	4603      	mov	r3, r0
 8104da8:	2b00      	cmp	r3, #0
 8104daa:	d014      	beq.n	8104dd6 <HAL_SPI_IRQHandler+0x38a>
          {
            SET_BIT(hspi->ErrorCode, HAL_SPI_ERROR_ABORT);
 8104dac:	687b      	ldr	r3, [r7, #4]
 8104dae:	f8d3 3084 	ldr.w	r3, [r3, #132]	; 0x84
 8104db2:	f043 0240 	orr.w	r2, r3, #64	; 0x40
 8104db6:	687b      	ldr	r3, [r7, #4]
 8104db8:	f8c3 2084 	str.w	r2, [r3, #132]	; 0x84
#else
        HAL_SPI_ErrorCallback(hspi);
#endif /* USE_HAL_SPI_REGISTER_CALLBACKS */
      }
    }
    return;
 8104dbc:	e00b      	b.n	8104dd6 <HAL_SPI_IRQHandler+0x38a>
        hspi->State = HAL_SPI_STATE_READY;
 8104dbe:	687b      	ldr	r3, [r7, #4]
 8104dc0:	2201      	movs	r2, #1
 8104dc2:	f883 2081 	strb.w	r2, [r3, #129]	; 0x81
        HAL_SPI_ErrorCallback(hspi);
 8104dc6:	6878      	ldr	r0, [r7, #4]
 8104dc8:	f000 f82a 	bl	8104e20 <HAL_SPI_ErrorCallback>
    return;
 8104dcc:	e003      	b.n	8104dd6 <HAL_SPI_IRQHandler+0x38a>
    return;
 8104dce:	bf00      	nop
 8104dd0:	e002      	b.n	8104dd8 <HAL_SPI_IRQHandler+0x38c>
    return;
 8104dd2:	bf00      	nop
 8104dd4:	e000      	b.n	8104dd8 <HAL_SPI_IRQHandler+0x38c>
    return;
 8104dd6:	bf00      	nop
  }
}
 8104dd8:	3728      	adds	r7, #40	; 0x28
 8104dda:	46bd      	mov	sp, r7
 8104ddc:	bd80      	pop	{r7, pc}
 8104dde:	bf00      	nop
 8104de0:	08104e35 	.word	0x08104e35

08104de4 <HAL_SPI_TxCpltCallback>:
  * @param  hspi: pointer to a SPI_HandleTypeDef structure that contains
  *               the configuration information for SPI module.
  * @retval None
  */
__weak void HAL_SPI_TxCpltCallback(SPI_HandleTypeDef *hspi)
{
 8104de4:	b480      	push	{r7}
 8104de6:	b083      	sub	sp, #12
 8104de8:	af00      	add	r7, sp, #0
 8104dea:	6078      	str	r0, [r7, #4]
  UNUSED(hspi);

  /* NOTE : This function should not be modified, when the callback is needed,
            the HAL_SPI_TxCpltCallback should be implemented in the user file
   */
}
 8104dec:	bf00      	nop
 8104dee:	370c      	adds	r7, #12
 8104df0:	46bd      	mov	sp, r7
 8104df2:	f85d 7b04 	ldr.w	r7, [sp], #4
 8104df6:	4770      	bx	lr

08104df8 <HAL_SPI_RxCpltCallback>:
  * @param  hspi: pointer to a SPI_HandleTypeDef structure that contains
  *               the configuration information for SPI module.
  * @retval None
  */
__weak void HAL_SPI_RxCpltCallback(SPI_HandleTypeDef *hspi)
{
 8104df8:	b480      	push	{r7}
 8104dfa:	b083      	sub	sp, #12
 8104dfc:	af00      	add	r7, sp, #0
 8104dfe:	6078      	str	r0, [r7, #4]
  UNUSED(hspi);

  /* NOTE : This function should not be modified, when the callback is needed,
            the HAL_SPI_RxCpltCallback should be implemented in the user file
   */
}
 8104e00:	bf00      	nop
 8104e02:	370c      	adds	r7, #12
 8104e04:	46bd      	mov	sp, r7
 8104e06:	f85d 7b04 	ldr.w	r7, [sp], #4
 8104e0a:	4770      	bx	lr

08104e0c <HAL_SPI_TxRxCpltCallback>:
  * @param  hspi: pointer to a SPI_HandleTypeDef structure that contains
  *               the configuration information for SPI module.
  * @retval None
  */
__weak void HAL_SPI_TxRxCpltCallback(SPI_HandleTypeDef *hspi)
{
 8104e0c:	b480      	push	{r7}
 8104e0e:	b083      	sub	sp, #12
 8104e10:	af00      	add	r7, sp, #0
 8104e12:	6078      	str	r0, [r7, #4]
  UNUSED(hspi);

  /* NOTE : This function should not be modified, when the callback is needed,
            the HAL_SPI_TxRxCpltCallback should be implemented in the user file
   */
}
 8104e14:	bf00      	nop
 8104e16:	370c      	adds	r7, #12
 8104e18:	46bd      	mov	sp, r7
 8104e1a:	f85d 7b04 	ldr.w	r7, [sp], #4
 8104e1e:	4770      	bx	lr

08104e20 <HAL_SPI_ErrorCallback>:
  * @param  hspi: pointer to a SPI_HandleTypeDef structure that contains
  *               the configuration information for SPI module.
  * @retval None
  */
__weak void HAL_SPI_ErrorCallback(SPI_HandleTypeDef *hspi)
{
 8104e20:	b480      	push	{r7}
 8104e22:	b083      	sub	sp, #12
 8104e24:	af00      	add	r7, sp, #0
 8104e26:	6078      	str	r0, [r7, #4]
            the HAL_SPI_ErrorCallback should be implemented in the user file
   */
  /* NOTE : The ErrorCode parameter in the hspi handle is updated by the SPI processes
            and user can use HAL_SPI_GetError() API to check the latest error occurred
   */
}
 8104e28:	bf00      	nop
 8104e2a:	370c      	adds	r7, #12
 8104e2c:	46bd      	mov	sp, r7
 8104e2e:	f85d 7b04 	ldr.w	r7, [sp], #4
 8104e32:	4770      	bx	lr

08104e34 <SPI_DMAAbortOnError>:
  *         (To be called at end of DMA Abort procedure following error occurrence).
  * @param  hdma DMA handle.
  * @retval None
  */
static void SPI_DMAAbortOnError(DMA_HandleTypeDef *hdma)
{
 8104e34:	b580      	push	{r7, lr}
 8104e36:	b084      	sub	sp, #16
 8104e38:	af00      	add	r7, sp, #0
 8104e3a:	6078      	str	r0, [r7, #4]
  SPI_HandleTypeDef *hspi = (SPI_HandleTypeDef *)((DMA_HandleTypeDef *)hdma)->Parent;
 8104e3c:	687b      	ldr	r3, [r7, #4]
 8104e3e:	6b9b      	ldr	r3, [r3, #56]	; 0x38
 8104e40:	60fb      	str	r3, [r7, #12]
  hspi->RxXferCount = (uint16_t) 0UL;
 8104e42:	68fb      	ldr	r3, [r7, #12]
 8104e44:	2200      	movs	r2, #0
 8104e46:	f8a3 206a 	strh.w	r2, [r3, #106]	; 0x6a
  hspi->TxXferCount = (uint16_t) 0UL;
 8104e4a:	68fb      	ldr	r3, [r7, #12]
 8104e4c:	2200      	movs	r2, #0
 8104e4e:	f8a3 2062 	strh.w	r2, [r3, #98]	; 0x62

  /* Restore hspi->State to Ready */
  hspi->State = HAL_SPI_STATE_READY;
 8104e52:	68fb      	ldr	r3, [r7, #12]
 8104e54:	2201      	movs	r2, #1
 8104e56:	f883 2081 	strb.w	r2, [r3, #129]	; 0x81

#if (USE_HAL_SPI_REGISTER_CALLBACKS == 1UL)
  hspi->ErrorCallback(hspi);
#else
  HAL_SPI_ErrorCallback(hspi);
 8104e5a:	68f8      	ldr	r0, [r7, #12]
 8104e5c:	f7ff ffe0 	bl	8104e20 <HAL_SPI_ErrorCallback>
#endif /* USE_HAL_SPI_REGISTER_CALLBACKS */
}
 8104e60:	bf00      	nop
 8104e62:	3710      	adds	r7, #16
 8104e64:	46bd      	mov	sp, r7
 8104e66:	bd80      	pop	{r7, pc}

08104e68 <SPI_CloseTransfer>:
  *               the configuration information for SPI module.
  * @retval HAL_ERROR: if any error detected
  *         HAL_OK: if nothing detected
  */
static void SPI_CloseTransfer(SPI_HandleTypeDef *hspi)
{
 8104e68:	b480      	push	{r7}
 8104e6a:	b085      	sub	sp, #20
 8104e6c:	af00      	add	r7, sp, #0
 8104e6e:	6078      	str	r0, [r7, #4]
  uint32_t itflag = hspi->Instance->SR;
 8104e70:	687b      	ldr	r3, [r7, #4]
 8104e72:	681b      	ldr	r3, [r3, #0]
 8104e74:	695b      	ldr	r3, [r3, #20]
 8104e76:	60fb      	str	r3, [r7, #12]

  __HAL_SPI_CLEAR_EOTFLAG(hspi);
 8104e78:	687b      	ldr	r3, [r7, #4]
 8104e7a:	681b      	ldr	r3, [r3, #0]
 8104e7c:	699a      	ldr	r2, [r3, #24]
 8104e7e:	687b      	ldr	r3, [r7, #4]
 8104e80:	681b      	ldr	r3, [r3, #0]
 8104e82:	f042 0208 	orr.w	r2, r2, #8
 8104e86:	619a      	str	r2, [r3, #24]
  __HAL_SPI_CLEAR_TXTFFLAG(hspi);
 8104e88:	687b      	ldr	r3, [r7, #4]
 8104e8a:	681b      	ldr	r3, [r3, #0]
 8104e8c:	699a      	ldr	r2, [r3, #24]
 8104e8e:	687b      	ldr	r3, [r7, #4]
 8104e90:	681b      	ldr	r3, [r3, #0]
 8104e92:	f042 0210 	orr.w	r2, r2, #16
 8104e96:	619a      	str	r2, [r3, #24]

  /* Disable SPI peripheral */
  __HAL_SPI_DISABLE(hspi);
 8104e98:	687b      	ldr	r3, [r7, #4]
 8104e9a:	681b      	ldr	r3, [r3, #0]
 8104e9c:	681a      	ldr	r2, [r3, #0]
 8104e9e:	687b      	ldr	r3, [r7, #4]
 8104ea0:	681b      	ldr	r3, [r3, #0]
 8104ea2:	f022 0201 	bic.w	r2, r2, #1
 8104ea6:	601a      	str	r2, [r3, #0]

  /* Disable ITs */
  __HAL_SPI_DISABLE_IT(hspi, (SPI_IT_EOT | SPI_IT_TXP | SPI_IT_RXP | SPI_IT_DXP | SPI_IT_UDR | SPI_IT_OVR | \
 8104ea8:	687b      	ldr	r3, [r7, #4]
 8104eaa:	681b      	ldr	r3, [r3, #0]
 8104eac:	691b      	ldr	r3, [r3, #16]
 8104eae:	687a      	ldr	r2, [r7, #4]
 8104eb0:	6812      	ldr	r2, [r2, #0]
 8104eb2:	f423 735b 	bic.w	r3, r3, #876	; 0x36c
 8104eb6:	f023 0303 	bic.w	r3, r3, #3
 8104eba:	6113      	str	r3, [r2, #16]
                              SPI_IT_FRE | SPI_IT_MODF));

  /* Disable Tx DMA Request */
  CLEAR_BIT(hspi->Instance->CFG1, SPI_CFG1_TXDMAEN | SPI_CFG1_RXDMAEN);
 8104ebc:	687b      	ldr	r3, [r7, #4]
 8104ebe:	681b      	ldr	r3, [r3, #0]
 8104ec0:	689a      	ldr	r2, [r3, #8]
 8104ec2:	687b      	ldr	r3, [r7, #4]
 8104ec4:	681b      	ldr	r3, [r3, #0]
 8104ec6:	f422 4240 	bic.w	r2, r2, #49152	; 0xc000
 8104eca:	609a      	str	r2, [r3, #8]

  /* Report UnderRun error for non RX Only communication */
  if (hspi->State != HAL_SPI_STATE_BUSY_RX)
 8104ecc:	687b      	ldr	r3, [r7, #4]
 8104ece:	f893 3081 	ldrb.w	r3, [r3, #129]	; 0x81
 8104ed2:	b2db      	uxtb	r3, r3
 8104ed4:	2b04      	cmp	r3, #4
 8104ed6:	d014      	beq.n	8104f02 <SPI_CloseTransfer+0x9a>
  {
    if ((itflag & SPI_FLAG_UDR) != 0UL)
 8104ed8:	68fb      	ldr	r3, [r7, #12]
 8104eda:	f003 0320 	and.w	r3, r3, #32
 8104ede:	2b00      	cmp	r3, #0
 8104ee0:	d00f      	beq.n	8104f02 <SPI_CloseTransfer+0x9a>
    {
      SET_BIT(hspi->ErrorCode, HAL_SPI_ERROR_UDR);
 8104ee2:	687b      	ldr	r3, [r7, #4]
 8104ee4:	f8d3 3084 	ldr.w	r3, [r3, #132]	; 0x84
 8104ee8:	f043 0280 	orr.w	r2, r3, #128	; 0x80
 8104eec:	687b      	ldr	r3, [r7, #4]
 8104eee:	f8c3 2084 	str.w	r2, [r3, #132]	; 0x84
      __HAL_SPI_CLEAR_UDRFLAG(hspi);
 8104ef2:	687b      	ldr	r3, [r7, #4]
 8104ef4:	681b      	ldr	r3, [r3, #0]
 8104ef6:	699a      	ldr	r2, [r3, #24]
 8104ef8:	687b      	ldr	r3, [r7, #4]
 8104efa:	681b      	ldr	r3, [r3, #0]
 8104efc:	f042 0220 	orr.w	r2, r2, #32
 8104f00:	619a      	str	r2, [r3, #24]
    }
  }

  /* Report OverRun error for non TX Only communication */
  if (hspi->State != HAL_SPI_STATE_BUSY_TX)
 8104f02:	687b      	ldr	r3, [r7, #4]
 8104f04:	f893 3081 	ldrb.w	r3, [r3, #129]	; 0x81
 8104f08:	b2db      	uxtb	r3, r3
 8104f0a:	2b03      	cmp	r3, #3
 8104f0c:	d014      	beq.n	8104f38 <SPI_CloseTransfer+0xd0>
  {
    if ((itflag & SPI_FLAG_OVR) != 0UL)
 8104f0e:	68fb      	ldr	r3, [r7, #12]
 8104f10:	f003 0340 	and.w	r3, r3, #64	; 0x40
 8104f14:	2b00      	cmp	r3, #0
 8104f16:	d00f      	beq.n	8104f38 <SPI_CloseTransfer+0xd0>
    {
      SET_BIT(hspi->ErrorCode, HAL_SPI_ERROR_OVR);
 8104f18:	687b      	ldr	r3, [r7, #4]
 8104f1a:	f8d3 3084 	ldr.w	r3, [r3, #132]	; 0x84
 8104f1e:	f043 0204 	orr.w	r2, r3, #4
 8104f22:	687b      	ldr	r3, [r7, #4]
 8104f24:	f8c3 2084 	str.w	r2, [r3, #132]	; 0x84
      __HAL_SPI_CLEAR_OVRFLAG(hspi);
 8104f28:	687b      	ldr	r3, [r7, #4]
 8104f2a:	681b      	ldr	r3, [r3, #0]
 8104f2c:	699a      	ldr	r2, [r3, #24]
 8104f2e:	687b      	ldr	r3, [r7, #4]
 8104f30:	681b      	ldr	r3, [r3, #0]
 8104f32:	f042 0240 	orr.w	r2, r2, #64	; 0x40
 8104f36:	619a      	str	r2, [r3, #24]
    }
#endif /* USE_SPI_CRC */
  }

  /* SPI Mode Fault error interrupt occurred -------------------------------*/
  if ((itflag & SPI_FLAG_MODF) != 0UL)
 8104f38:	68fb      	ldr	r3, [r7, #12]
 8104f3a:	f403 7300 	and.w	r3, r3, #512	; 0x200
 8104f3e:	2b00      	cmp	r3, #0
 8104f40:	d00f      	beq.n	8104f62 <SPI_CloseTransfer+0xfa>
  {
    SET_BIT(hspi->ErrorCode, HAL_SPI_ERROR_MODF);
 8104f42:	687b      	ldr	r3, [r7, #4]
 8104f44:	f8d3 3084 	ldr.w	r3, [r3, #132]	; 0x84
 8104f48:	f043 0201 	orr.w	r2, r3, #1
 8104f4c:	687b      	ldr	r3, [r7, #4]
 8104f4e:	f8c3 2084 	str.w	r2, [r3, #132]	; 0x84
    __HAL_SPI_CLEAR_MODFFLAG(hspi);
 8104f52:	687b      	ldr	r3, [r7, #4]
 8104f54:	681b      	ldr	r3, [r3, #0]
 8104f56:	699a      	ldr	r2, [r3, #24]
 8104f58:	687b      	ldr	r3, [r7, #4]
 8104f5a:	681b      	ldr	r3, [r3, #0]
 8104f5c:	f442 7200 	orr.w	r2, r2, #512	; 0x200
 8104f60:	619a      	str	r2, [r3, #24]
  }

  /* SPI Frame error interrupt occurred ------------------------------------*/
  if ((itflag & SPI_FLAG_FRE) != 0UL)
 8104f62:	68fb      	ldr	r3, [r7, #12]
 8104f64:	f403 7380 	and.w	r3, r3, #256	; 0x100
 8104f68:	2b00      	cmp	r3, #0
 8104f6a:	d00f      	beq.n	8104f8c <SPI_CloseTransfer+0x124>
  {
    SET_BIT(hspi->ErrorCode, HAL_SPI_ERROR_FRE);
 8104f6c:	687b      	ldr	r3, [r7, #4]
 8104f6e:	f8d3 3084 	ldr.w	r3, [r3, #132]	; 0x84
 8104f72:	f043 0208 	orr.w	r2, r3, #8
 8104f76:	687b      	ldr	r3, [r7, #4]
 8104f78:	f8c3 2084 	str.w	r2, [r3, #132]	; 0x84
    __HAL_SPI_CLEAR_FREFLAG(hspi);
 8104f7c:	687b      	ldr	r3, [r7, #4]
 8104f7e:	681b      	ldr	r3, [r3, #0]
 8104f80:	699a      	ldr	r2, [r3, #24]
 8104f82:	687b      	ldr	r3, [r7, #4]
 8104f84:	681b      	ldr	r3, [r3, #0]
 8104f86:	f442 7280 	orr.w	r2, r2, #256	; 0x100
 8104f8a:	619a      	str	r2, [r3, #24]
  }

  hspi->TxXferCount = (uint16_t)0UL;
 8104f8c:	687b      	ldr	r3, [r7, #4]
 8104f8e:	2200      	movs	r2, #0
 8104f90:	f8a3 2062 	strh.w	r2, [r3, #98]	; 0x62
  hspi->RxXferCount = (uint16_t)0UL;
 8104f94:	687b      	ldr	r3, [r7, #4]
 8104f96:	2200      	movs	r2, #0
 8104f98:	f8a3 206a 	strh.w	r2, [r3, #106]	; 0x6a
}
 8104f9c:	bf00      	nop
 8104f9e:	3714      	adds	r7, #20
 8104fa0:	46bd      	mov	sp, r7
 8104fa2:	f85d 7b04 	ldr.w	r7, [sp], #4
 8104fa6:	4770      	bx	lr

08104fa8 <SPI_WaitOnFlagUntilTimeout>:
  * @param Tickstart: Tick start value
  * @retval HAL status
  */
static HAL_StatusTypeDef SPI_WaitOnFlagUntilTimeout(SPI_HandleTypeDef *hspi, uint32_t Flag, FlagStatus Status,
                                                    uint32_t Tickstart, uint32_t Timeout)
{
 8104fa8:	b580      	push	{r7, lr}
 8104faa:	b084      	sub	sp, #16
 8104fac:	af00      	add	r7, sp, #0
 8104fae:	60f8      	str	r0, [r7, #12]
 8104fb0:	60b9      	str	r1, [r7, #8]
 8104fb2:	603b      	str	r3, [r7, #0]
 8104fb4:	4613      	mov	r3, r2
 8104fb6:	71fb      	strb	r3, [r7, #7]
  /* Wait until flag is set */
  while ((__HAL_SPI_GET_FLAG(hspi, Flag) ? SET : RESET) == Status)
 8104fb8:	e010      	b.n	8104fdc <SPI_WaitOnFlagUntilTimeout+0x34>
  {
    /* Check for the Timeout */
    if ((((HAL_GetTick() - Tickstart) >=  Timeout) && (Timeout != HAL_MAX_DELAY)) || (Timeout == 0U))
 8104fba:	f7fc fbdb 	bl	8101774 <HAL_GetTick>
 8104fbe:	4602      	mov	r2, r0
 8104fc0:	683b      	ldr	r3, [r7, #0]
 8104fc2:	1ad3      	subs	r3, r2, r3
 8104fc4:	69ba      	ldr	r2, [r7, #24]
 8104fc6:	429a      	cmp	r2, r3
 8104fc8:	d803      	bhi.n	8104fd2 <SPI_WaitOnFlagUntilTimeout+0x2a>
 8104fca:	69bb      	ldr	r3, [r7, #24]
 8104fcc:	f1b3 3fff 	cmp.w	r3, #4294967295
 8104fd0:	d102      	bne.n	8104fd8 <SPI_WaitOnFlagUntilTimeout+0x30>
 8104fd2:	69bb      	ldr	r3, [r7, #24]
 8104fd4:	2b00      	cmp	r3, #0
 8104fd6:	d101      	bne.n	8104fdc <SPI_WaitOnFlagUntilTimeout+0x34>
    {
      return HAL_TIMEOUT;
 8104fd8:	2303      	movs	r3, #3
 8104fda:	e00f      	b.n	8104ffc <SPI_WaitOnFlagUntilTimeout+0x54>
  while ((__HAL_SPI_GET_FLAG(hspi, Flag) ? SET : RESET) == Status)
 8104fdc:	68fb      	ldr	r3, [r7, #12]
 8104fde:	681b      	ldr	r3, [r3, #0]
 8104fe0:	695a      	ldr	r2, [r3, #20]
 8104fe2:	68bb      	ldr	r3, [r7, #8]
 8104fe4:	4013      	ands	r3, r2
 8104fe6:	68ba      	ldr	r2, [r7, #8]
 8104fe8:	429a      	cmp	r2, r3
 8104fea:	bf0c      	ite	eq
 8104fec:	2301      	moveq	r3, #1
 8104fee:	2300      	movne	r3, #0
 8104ff0:	b2db      	uxtb	r3, r3
 8104ff2:	461a      	mov	r2, r3
 8104ff4:	79fb      	ldrb	r3, [r7, #7]
 8104ff6:	429a      	cmp	r2, r3
 8104ff8:	d0df      	beq.n	8104fba <SPI_WaitOnFlagUntilTimeout+0x12>
    }
  }
  return HAL_OK;
 8104ffa:	2300      	movs	r3, #0
}
 8104ffc:	4618      	mov	r0, r3
 8104ffe:	3710      	adds	r7, #16
 8105000:	46bd      	mov	sp, r7
 8105002:	bd80      	pop	{r7, pc}

08105004 <SPI_GetPacketSize>:
  * @param  hspi: pointer to a SPI_HandleTypeDef structure that contains
  *               the configuration information for SPI module.
  * @retval Packet size occupied in the fifo
  */
static uint32_t SPI_GetPacketSize(SPI_HandleTypeDef *hspi)
{
 8105004:	b480      	push	{r7}
 8105006:	b085      	sub	sp, #20
 8105008:	af00      	add	r7, sp, #0
 810500a:	6078      	str	r0, [r7, #4]
  uint32_t fifo_threashold = (hspi->Init.FifoThreshold >> SPI_CFG1_FTHLV_Pos) + 1UL;
 810500c:	687b      	ldr	r3, [r7, #4]
 810500e:	6bdb      	ldr	r3, [r3, #60]	; 0x3c
 8105010:	095b      	lsrs	r3, r3, #5
 8105012:	3301      	adds	r3, #1
 8105014:	60fb      	str	r3, [r7, #12]
  uint32_t data_size       = (hspi->Init.DataSize      >> SPI_CFG1_DSIZE_Pos) + 1UL;
 8105016:	687b      	ldr	r3, [r7, #4]
 8105018:	68db      	ldr	r3, [r3, #12]
 810501a:	3301      	adds	r3, #1
 810501c:	60bb      	str	r3, [r7, #8]

  /* Convert data size to Byte */
  data_size = (data_size + 7UL) / 8UL;
 810501e:	68bb      	ldr	r3, [r7, #8]
 8105020:	3307      	adds	r3, #7
 8105022:	08db      	lsrs	r3, r3, #3
 8105024:	60bb      	str	r3, [r7, #8]

  return data_size * fifo_threashold;
 8105026:	68bb      	ldr	r3, [r7, #8]
 8105028:	68fa      	ldr	r2, [r7, #12]
 810502a:	fb02 f303 	mul.w	r3, r2, r3
}
 810502e:	4618      	mov	r0, r3
 8105030:	3714      	adds	r7, #20
 8105032:	46bd      	mov	sp, r7
 8105034:	f85d 7b04 	ldr.w	r7, [sp], #4
 8105038:	4770      	bx	lr
	...

0810503c <__libc_init_array>:
 810503c:	b570      	push	{r4, r5, r6, lr}
 810503e:	4d0d      	ldr	r5, [pc, #52]	; (8105074 <__libc_init_array+0x38>)
 8105040:	4c0d      	ldr	r4, [pc, #52]	; (8105078 <__libc_init_array+0x3c>)
 8105042:	1b64      	subs	r4, r4, r5
 8105044:	10a4      	asrs	r4, r4, #2
 8105046:	2600      	movs	r6, #0
 8105048:	42a6      	cmp	r6, r4
 810504a:	d109      	bne.n	8105060 <__libc_init_array+0x24>
 810504c:	4d0b      	ldr	r5, [pc, #44]	; (810507c <__libc_init_array+0x40>)
 810504e:	4c0c      	ldr	r4, [pc, #48]	; (8105080 <__libc_init_array+0x44>)
 8105050:	f000 f818 	bl	8105084 <_init>
 8105054:	1b64      	subs	r4, r4, r5
 8105056:	10a4      	asrs	r4, r4, #2
 8105058:	2600      	movs	r6, #0
 810505a:	42a6      	cmp	r6, r4
 810505c:	d105      	bne.n	810506a <__libc_init_array+0x2e>
 810505e:	bd70      	pop	{r4, r5, r6, pc}
 8105060:	f855 3b04 	ldr.w	r3, [r5], #4
 8105064:	4798      	blx	r3
 8105066:	3601      	adds	r6, #1
 8105068:	e7ee      	b.n	8105048 <__libc_init_array+0xc>
 810506a:	f855 3b04 	ldr.w	r3, [r5], #4
 810506e:	4798      	blx	r3
 8105070:	3601      	adds	r6, #1
 8105072:	e7f2      	b.n	810505a <__libc_init_array+0x1e>
 8105074:	081050b4 	.word	0x081050b4
 8105078:	081050b4 	.word	0x081050b4
 810507c:	081050b4 	.word	0x081050b4
 8105080:	081050b8 	.word	0x081050b8

08105084 <_init>:
 8105084:	b5f8      	push	{r3, r4, r5, r6, r7, lr}
 8105086:	bf00      	nop
 8105088:	bcf8      	pop	{r3, r4, r5, r6, r7}
 810508a:	bc08      	pop	{r3}
 810508c:	469e      	mov	lr, r3
 810508e:	4770      	bx	lr

08105090 <_fini>:
 8105090:	b5f8      	push	{r3, r4, r5, r6, r7, lr}
 8105092:	bf00      	nop
 8105094:	bcf8      	pop	{r3, r4, r5, r6, r7}
 8105096:	bc08      	pop	{r3}
 8105098:	469e      	mov	lr, r3
 810509a:	4770      	bx	lr
