
FRA421_Project_CM4.elf:     file format elf32-littlearm

Sections:
Idx Name          Size      VMA       LMA       File off  Algn
  0 .isr_vector   00000298  08100000  08100000  00010000  2**0
                  CONTENTS, ALLOC, LOAD, READONLY, DATA
  1 .text         000021c8  08100298  08100298  00010298  2**2
                  CONTENTS, ALLOC, LOAD, READONLY, CODE
  2 .rodata       00000010  08102460  08102460  00012460  2**2
                  CONTENTS, ALLOC, LOAD, READONLY, DATA
  3 .init_array   00000004  08102470  08102470  00012470  2**2
                  CONTENTS, ALLOC, LOAD, DATA
  4 .fini_array   00000004  08102474  08102474  00012474  2**2
                  CONTENTS, ALLOC, LOAD, DATA
  5 .data         00000010  10000000  08102478  00020000  2**2
                  CONTENTS, ALLOC, LOAD, DATA
  6 .bss          00000114  10000010  08102488  00020010  2**2
                  ALLOC
  7 ._user_heap_stack 00000604  10000124  08102488  00020124  2**0
                  ALLOC
  8 .ARM.attributes 00000030  00000000  00000000  00020010  2**0
                  CONTENTS, READONLY
  9 .debug_info   0000d28f  00000000  00000000  00020040  2**0
                  CONTENTS, READONLY, DEBUGGING, OCTETS
 10 .debug_abbrev 00001b0e  00000000  00000000  0002d2cf  2**0
                  CONTENTS, READONLY, DEBUGGING, OCTETS
 11 .debug_aranges 00000970  00000000  00000000  0002ede0  2**3
                  CONTENTS, READONLY, DEBUGGING, OCTETS
 12 .debug_ranges 000008a8  00000000  00000000  0002f750  2**3
                  CONTENTS, READONLY, DEBUGGING, OCTETS
 13 .debug_macro  0003a55f  00000000  00000000  0002fff8  2**0
                  CONTENTS, READONLY, DEBUGGING, OCTETS
 14 .debug_line   0000b353  00000000  00000000  0006a557  2**0
                  CONTENTS, READONLY, DEBUGGING, OCTETS
 15 .debug_str    0018105a  00000000  00000000  000758aa  2**0
                  CONTENTS, READONLY, DEBUGGING, OCTETS
 16 .comment      00000050  00000000  00000000  001f6904  2**0
                  CONTENTS, READONLY
 17 .debug_frame  00002550  00000000  00000000  001f6954  2**2
                  CONTENTS, READONLY, DEBUGGING, OCTETS

Disassembly of section .text:

08100298 <__do_global_dtors_aux>:
 8100298:	b510      	push	{r4, lr}
 810029a:	4c05      	ldr	r4, [pc, #20]	; (81002b0 <__do_global_dtors_aux+0x18>)
 810029c:	7823      	ldrb	r3, [r4, #0]
 810029e:	b933      	cbnz	r3, 81002ae <__do_global_dtors_aux+0x16>
 81002a0:	4b04      	ldr	r3, [pc, #16]	; (81002b4 <__do_global_dtors_aux+0x1c>)
 81002a2:	b113      	cbz	r3, 81002aa <__do_global_dtors_aux+0x12>
 81002a4:	4804      	ldr	r0, [pc, #16]	; (81002b8 <__do_global_dtors_aux+0x20>)
 81002a6:	f3af 8000 	nop.w
 81002aa:	2301      	movs	r3, #1
 81002ac:	7023      	strb	r3, [r4, #0]
 81002ae:	bd10      	pop	{r4, pc}
 81002b0:	10000010 	.word	0x10000010
 81002b4:	00000000 	.word	0x00000000
 81002b8:	08102448 	.word	0x08102448

081002bc <frame_dummy>:
 81002bc:	b508      	push	{r3, lr}
 81002be:	4b03      	ldr	r3, [pc, #12]	; (81002cc <frame_dummy+0x10>)
 81002c0:	b11b      	cbz	r3, 81002ca <frame_dummy+0xe>
 81002c2:	4903      	ldr	r1, [pc, #12]	; (81002d0 <frame_dummy+0x14>)
 81002c4:	4803      	ldr	r0, [pc, #12]	; (81002d4 <frame_dummy+0x18>)
 81002c6:	f3af 8000 	nop.w
 81002ca:	bd08      	pop	{r3, pc}
 81002cc:	00000000 	.word	0x00000000
 81002d0:	10000014 	.word	0x10000014
 81002d4:	08102448 	.word	0x08102448

081002d8 <SystemInit>:
  *         configuration.
  * @param  None
  * @retval None
  */
void SystemInit (void)
{
 81002d8:	b480      	push	{r7}
 81002da:	af00      	add	r7, sp, #0
  /* FPU settings ------------------------------------------------------------*/
  #if (__FPU_PRESENT == 1) && (__FPU_USED == 1)
    SCB->CPACR |= ((3UL << (10*2))|(3UL << (11*2)));  /* set CP10 and CP11 Full Access */
 81002dc:	4b09      	ldr	r3, [pc, #36]	; (8100304 <SystemInit+0x2c>)
 81002de:	f8d3 3088 	ldr.w	r3, [r3, #136]	; 0x88
 81002e2:	4a08      	ldr	r2, [pc, #32]	; (8100304 <SystemInit+0x2c>)
 81002e4:	f443 0370 	orr.w	r3, r3, #15728640	; 0xf00000
 81002e8:	f8c2 3088 	str.w	r3, [r2, #136]	; 0x88
  #endif

    /*SEVONPEND enabled so that an interrupt coming from the CPU(n) interrupt signal is
     detectable by the CPU after a WFI/WFE instruction.*/
 SCB->SCR |= SCB_SCR_SEVONPEND_Msk;
 81002ec:	4b05      	ldr	r3, [pc, #20]	; (8100304 <SystemInit+0x2c>)
 81002ee:	691b      	ldr	r3, [r3, #16]
 81002f0:	4a04      	ldr	r2, [pc, #16]	; (8100304 <SystemInit+0x2c>)
 81002f2:	f043 0310 	orr.w	r3, r3, #16
 81002f6:	6113      	str	r3, [r2, #16]
#endif /* USER_VECT_TAB_ADDRESS */

#else
#error Please #define CORE_CM4 or CORE_CM7
#endif /* CORE_CM4 */
}
 81002f8:	bf00      	nop
 81002fa:	46bd      	mov	sp, r7
 81002fc:	f85d 7b04 	ldr.w	r7, [sp], #4
 8100300:	4770      	bx	lr
 8100302:	bf00      	nop
 8100304:	e000ed00 	.word	0xe000ed00

08100308 <Write_MFRC522>:
 * Function Name：Write_MFRC5200
 * Function Description: To a certain MFRC522 register to write a byte of data
 * Input Parameters：addr - register address; val - the value to be written
 * Return value: None
 */
void Write_MFRC522(u_char addr, u_char val) {
 8100308:	b580      	push	{r7, lr}
 810030a:	b084      	sub	sp, #16
 810030c:	af00      	add	r7, sp, #0
 810030e:	4603      	mov	r3, r0
 8100310:	460a      	mov	r2, r1
 8100312:	71fb      	strb	r3, [r7, #7]
 8100314:	4613      	mov	r3, r2
 8100316:	71bb      	strb	r3, [r7, #6]
  //uint32_t rx_bits;
	  u_char addr_bits = (((addr<<1) & 0x7E));
 8100318:	79fb      	ldrb	r3, [r7, #7]
 810031a:	005b      	lsls	r3, r3, #1
 810031c:	b2db      	uxtb	r3, r3
 810031e:	f003 037e 	and.w	r3, r3, #126	; 0x7e
 8100322:	b2db      	uxtb	r3, r3
 8100324:	73fb      	strb	r3, [r7, #15]
  //u_char rx_bits;
  // set the select line so we can start transferring
//  MSS_SPI_set_slave_select( &g_mss_spi1, MSS_SPI_SLAVE_0 );
  HAL_GPIO_WritePin(RC522_CS_GPIO_Port, RC522_CS_Pin, GPIO_PIN_RESET);
 8100326:	2200      	movs	r2, #0
 8100328:	f44f 4180 	mov.w	r1, #16384	; 0x4000
 810032c:	480d      	ldr	r0, [pc, #52]	; (8100364 <Write_MFRC522+0x5c>)
 810032e:	f000 ffa3 	bl	8101278 <HAL_GPIO_WritePin>
  //   1 bit, clear the LSb, and clear the MSb to indicate a write
  // - bottom 8 bits are the data bits being sent for that address, we send
  //   them as is
//  rx_bits = MSS_SPI_transfer_frame( &g_mss_spi1, (((addr << 1) & 0x7E) << 8) |  val );
  //HAL_SPI_TransmitReceive(&hspi2, (((addr << 1) & 0x7E) << 8) |  val , rx_bits, 1, 500);
  HAL_SPI_Transmit(&MFRC522_PORT, &addr_bits, 1, 500);
 8100332:	f107 010f 	add.w	r1, r7, #15
 8100336:	f44f 73fa 	mov.w	r3, #500	; 0x1f4
 810033a:	2201      	movs	r2, #1
 810033c:	480a      	ldr	r0, [pc, #40]	; (8100368 <Write_MFRC522+0x60>)
 810033e:	f001 f9e3 	bl	8101708 <HAL_SPI_Transmit>
  HAL_SPI_Transmit(&MFRC522_PORT, &val, 1, 500);
 8100342:	1db9      	adds	r1, r7, #6
 8100344:	f44f 73fa 	mov.w	r3, #500	; 0x1f4
 8100348:	2201      	movs	r2, #1
 810034a:	4807      	ldr	r0, [pc, #28]	; (8100368 <Write_MFRC522+0x60>)
 810034c:	f001 f9dc 	bl	8101708 <HAL_SPI_Transmit>
  // clear the select line-- we are done here
//  MSS_SPI_clear_slave_select( &g_mss_spi1, MSS_SPI_SLAVE_0 );
  HAL_GPIO_WritePin(RC522_CS_GPIO_Port, RC522_CS_Pin, GPIO_PIN_SET);
 8100350:	2201      	movs	r2, #1
 8100352:	f44f 4180 	mov.w	r1, #16384	; 0x4000
 8100356:	4803      	ldr	r0, [pc, #12]	; (8100364 <Write_MFRC522+0x5c>)
 8100358:	f000 ff8e 	bl	8101278 <HAL_GPIO_WritePin>

  // burn some time
  // volatile uint32_t ticks;
  // for(ticks=0; ticks < 5000; ++ticks);
}
 810035c:	bf00      	nop
 810035e:	3710      	adds	r7, #16
 8100360:	46bd      	mov	sp, r7
 8100362:	bd80      	pop	{r7, pc}
 8100364:	58020c00 	.word	0x58020c00
 8100368:	1000002c 	.word	0x1000002c

0810036c <Read_MFRC522>:
 * Function Name: Read_MFRC522
 * Description: From a certain MFRC522 read a byte of data register
 * Input Parameters: addr - register address
 * Returns: a byte of data read from the
 */
u_char Read_MFRC522(u_char addr) {
 810036c:	b580      	push	{r7, lr}
 810036e:	b084      	sub	sp, #16
 8100370:	af00      	add	r7, sp, #0
 8100372:	4603      	mov	r3, r0
 8100374:	71fb      	strb	r3, [r7, #7]
  //uint32_t rx_bits;
  u_char rx_bits;
  u_char addr_bits = (((addr<<1) & 0x7E) | 0x80);
 8100376:	79fb      	ldrb	r3, [r7, #7]
 8100378:	005b      	lsls	r3, r3, #1
 810037a:	b25b      	sxtb	r3, r3
 810037c:	f003 037e 	and.w	r3, r3, #126	; 0x7e
 8100380:	b25b      	sxtb	r3, r3
 8100382:	f063 037f 	orn	r3, r3, #127	; 0x7f
 8100386:	b25b      	sxtb	r3, r3
 8100388:	b2db      	uxtb	r3, r3
 810038a:	73bb      	strb	r3, [r7, #14]

  // set the select line so we can start transferring
//  MSS_SPI_set_slave_select( &g_mss_spi1, MSS_SPI_SLAVE_0 );
  HAL_GPIO_WritePin(RC522_CS_GPIO_Port, RC522_CS_Pin, GPIO_PIN_RESET);
 810038c:	2200      	movs	r2, #0
 810038e:	f44f 4180 	mov.w	r1, #16384	; 0x4000
 8100392:	480f      	ldr	r0, [pc, #60]	; (81003d0 <Read_MFRC522+0x64>)
 8100394:	f000 ff70 	bl	8101278 <HAL_GPIO_WritePin>
  //   1 bit, clear the LSb, and set the MSb to indicate a read
  // - bottom 8 bits are all 0s on a read per 8.1.2.1 Table 6
//  rx_bits = MSS_SPI_transfer_frame( &g_mss_spi1, ((((addr << 1) & 0x7E) | 0x80) << 8) | 0x00 );
  //HAL_SPI_TransmitReceive(&hspi2, ((((addr << 1) & 0x7E) | 0x80) << 8) | 0x00 , rx_bits, 1, 500);
//HAL_SPI_Transmit(&hspi2, (unsigned char*) ((((addr<<1) & 0x7E) | 0x80)), 1, 500);
HAL_SPI_Transmit(&MFRC522_PORT, &addr_bits, 1, 500);
 8100398:	f107 010e 	add.w	r1, r7, #14
 810039c:	f44f 73fa 	mov.w	r3, #500	; 0x1f4
 81003a0:	2201      	movs	r2, #1
 81003a2:	480c      	ldr	r0, [pc, #48]	; (81003d4 <Read_MFRC522+0x68>)
 81003a4:	f001 f9b0 	bl	8101708 <HAL_SPI_Transmit>

  HAL_SPI_Receive(&MFRC522_PORT, &rx_bits, 1, 500);
 81003a8:	f107 010f 	add.w	r1, r7, #15
 81003ac:	f44f 73fa 	mov.w	r3, #500	; 0x1f4
 81003b0:	2201      	movs	r2, #1
 81003b2:	4808      	ldr	r0, [pc, #32]	; (81003d4 <Read_MFRC522+0x68>)
 81003b4:	f001 fb96 	bl	8101ae4 <HAL_SPI_Receive>
//  MSS_SPI_clear_slave_select( &g_mss_spi1, MSS_SPI_SLAVE_0 );

  // burn some time
  // volatile uint32_t ticks;
  // for(ticks=0; ticks < 5000; ++ticks);
  HAL_GPIO_WritePin(RC522_CS_GPIO_Port, RC522_CS_Pin, GPIO_PIN_SET);
 81003b8:	2201      	movs	r2, #1
 81003ba:	f44f 4180 	mov.w	r1, #16384	; 0x4000
 81003be:	4804      	ldr	r0, [pc, #16]	; (81003d0 <Read_MFRC522+0x64>)
 81003c0:	f000 ff5a 	bl	8101278 <HAL_GPIO_WritePin>

	return (u_char) rx_bits; // return the rx bits, casting to an 8 bit int and chopping off the upper 24 bits
 81003c4:	7bfb      	ldrb	r3, [r7, #15]
}
 81003c6:	4618      	mov	r0, r3
 81003c8:	3710      	adds	r7, #16
 81003ca:	46bd      	mov	sp, r7
 81003cc:	bd80      	pop	{r7, pc}
 81003ce:	bf00      	nop
 81003d0:	58020c00 	.word	0x58020c00
 81003d4:	1000002c 	.word	0x1000002c

081003d8 <SetBitMask>:
 * Description: Set RC522 register bit
 * Input parameters: reg - register address; mask - set value
 * Return value: None
 */
void SetBitMask(u_char reg, u_char mask)
{
 81003d8:	b580      	push	{r7, lr}
 81003da:	b084      	sub	sp, #16
 81003dc:	af00      	add	r7, sp, #0
 81003de:	4603      	mov	r3, r0
 81003e0:	460a      	mov	r2, r1
 81003e2:	71fb      	strb	r3, [r7, #7]
 81003e4:	4613      	mov	r3, r2
 81003e6:	71bb      	strb	r3, [r7, #6]
    u_char tmp;
    tmp = Read_MFRC522(reg);
 81003e8:	79fb      	ldrb	r3, [r7, #7]
 81003ea:	4618      	mov	r0, r3
 81003ec:	f7ff ffbe 	bl	810036c <Read_MFRC522>
 81003f0:	4603      	mov	r3, r0
 81003f2:	73fb      	strb	r3, [r7, #15]
    Write_MFRC522(reg, tmp | mask);  // set bit mask
 81003f4:	7bfa      	ldrb	r2, [r7, #15]
 81003f6:	79bb      	ldrb	r3, [r7, #6]
 81003f8:	4313      	orrs	r3, r2
 81003fa:	b2da      	uxtb	r2, r3
 81003fc:	79fb      	ldrb	r3, [r7, #7]
 81003fe:	4611      	mov	r1, r2
 8100400:	4618      	mov	r0, r3
 8100402:	f7ff ff81 	bl	8100308 <Write_MFRC522>
}
 8100406:	bf00      	nop
 8100408:	3710      	adds	r7, #16
 810040a:	46bd      	mov	sp, r7
 810040c:	bd80      	pop	{r7, pc}

0810040e <ClearBitMask>:
 * Description: clear RC522 register bit
 * Input parameters: reg - register address; mask - clear bit value
 * Return value: None
*/
void ClearBitMask(u_char reg, u_char mask)
{
 810040e:	b580      	push	{r7, lr}
 8100410:	b084      	sub	sp, #16
 8100412:	af00      	add	r7, sp, #0
 8100414:	4603      	mov	r3, r0
 8100416:	460a      	mov	r2, r1
 8100418:	71fb      	strb	r3, [r7, #7]
 810041a:	4613      	mov	r3, r2
 810041c:	71bb      	strb	r3, [r7, #6]
    u_char tmp;
    tmp = Read_MFRC522(reg);
 810041e:	79fb      	ldrb	r3, [r7, #7]
 8100420:	4618      	mov	r0, r3
 8100422:	f7ff ffa3 	bl	810036c <Read_MFRC522>
 8100426:	4603      	mov	r3, r0
 8100428:	73fb      	strb	r3, [r7, #15]
    Write_MFRC522(reg, tmp & (~mask));  // clear bit mask
 810042a:	f997 3006 	ldrsb.w	r3, [r7, #6]
 810042e:	43db      	mvns	r3, r3
 8100430:	b25a      	sxtb	r2, r3
 8100432:	f997 300f 	ldrsb.w	r3, [r7, #15]
 8100436:	4013      	ands	r3, r2
 8100438:	b25b      	sxtb	r3, r3
 810043a:	b2da      	uxtb	r2, r3
 810043c:	79fb      	ldrb	r3, [r7, #7]
 810043e:	4611      	mov	r1, r2
 8100440:	4618      	mov	r0, r3
 8100442:	f7ff ff61 	bl	8100308 <Write_MFRC522>
}
 8100446:	bf00      	nop
 8100448:	3710      	adds	r7, #16
 810044a:	46bd      	mov	sp, r7
 810044c:	bd80      	pop	{r7, pc}

0810044e <AntennaOn>:
 * Description: Open antennas, each time you start or shut down the natural barrier between the transmitter should be at least 1ms interval
 * Input: None
 * Return value: None
 */
void AntennaOn(void)
{
 810044e:	b580      	push	{r7, lr}
 8100450:	af00      	add	r7, sp, #0
  SetBitMask(TxControlReg, 0x03);
 8100452:	2103      	movs	r1, #3
 8100454:	2014      	movs	r0, #20
 8100456:	f7ff ffbf 	bl	81003d8 <SetBitMask>
}
 810045a:	bf00      	nop
 810045c:	bd80      	pop	{r7, pc}

0810045e <MFRC522_Reset>:
 * Description: Reset RC522
 * Input: None
 * Return value: None
 */
void MFRC522_Reset(void)
{
 810045e:	b580      	push	{r7, lr}
 8100460:	af00      	add	r7, sp, #0
  Write_MFRC522(CommandReg, PCD_RESETPHASE);
 8100462:	210f      	movs	r1, #15
 8100464:	2001      	movs	r0, #1
 8100466:	f7ff ff4f 	bl	8100308 <Write_MFRC522>
}
 810046a:	bf00      	nop
 810046c:	bd80      	pop	{r7, pc}

0810046e <MFRC522_Init>:
 * Description: Initialize RC522
 * Input: None
 * Return value: None
*/
void MFRC522_Init(void)
{
 810046e:	b580      	push	{r7, lr}
 8100470:	af00      	add	r7, sp, #0
//  MSS_GPIO_set_output( MSS_GPIO_1, 1 );
  MFRC522_Reset();
 8100472:	f7ff fff4 	bl	810045e <MFRC522_Reset>

  // Timer: TPrescaler*TreloadVal/6.78MHz = 24ms
  Write_MFRC522(TModeReg, 0x80); // 0x8D);      // Tauto=1; f(Timer) = 6.78MHz/TPreScaler
 8100476:	2180      	movs	r1, #128	; 0x80
 8100478:	202a      	movs	r0, #42	; 0x2a
 810047a:	f7ff ff45 	bl	8100308 <Write_MFRC522>
  Write_MFRC522(TPrescalerReg, 0xA9); //0x34); // TModeReg[3..0] + TPrescalerReg
 810047e:	21a9      	movs	r1, #169	; 0xa9
 8100480:	202b      	movs	r0, #43	; 0x2b
 8100482:	f7ff ff41 	bl	8100308 <Write_MFRC522>
  Write_MFRC522(TReloadRegL, 0x03); //30);
 8100486:	2103      	movs	r1, #3
 8100488:	202d      	movs	r0, #45	; 0x2d
 810048a:	f7ff ff3d 	bl	8100308 <Write_MFRC522>
  Write_MFRC522(TReloadRegH, 0xE8); //0);
 810048e:	21e8      	movs	r1, #232	; 0xe8
 8100490:	202c      	movs	r0, #44	; 0x2c
 8100492:	f7ff ff39 	bl	8100308 <Write_MFRC522>
  Write_MFRC522(TxAutoReg, 0x40);     // force 100% ASK modulation
 8100496:	2140      	movs	r1, #64	; 0x40
 8100498:	2015      	movs	r0, #21
 810049a:	f7ff ff35 	bl	8100308 <Write_MFRC522>
  Write_MFRC522(ModeReg, 0x3D);       // CRC Initial value 0x6363
 810049e:	213d      	movs	r1, #61	; 0x3d
 81004a0:	2011      	movs	r0, #17
 81004a2:	f7ff ff31 	bl	8100308 <Write_MFRC522>
  // interrupts, still playing with these
  // Write_MFRC522(CommIEnReg, 0xFF);
  // Write_MFRC522(DivlEnReg, 0xFF);

  // turn antenna on
  AntennaOn();
 81004a6:	f7ff ffd2 	bl	810044e <AntennaOn>
}
 81004aa:	bf00      	nop
 81004ac:	bd80      	pop	{r7, pc}

081004ae <MFRC522_Request>:
 *    0x0800 = Mifare_Pro(X)
 *    0x4403 = Mifare_DESFire
 * Return value: the successful return MI_OK
 */
u_char MFRC522_Request(u_char reqMode, u_char *TagType)
{
 81004ae:	b580      	push	{r7, lr}
 81004b0:	b086      	sub	sp, #24
 81004b2:	af02      	add	r7, sp, #8
 81004b4:	4603      	mov	r3, r0
 81004b6:	6039      	str	r1, [r7, #0]
 81004b8:	71fb      	strb	r3, [r7, #7]
  u_char status;
  uint backBits; // The received data bits

  Write_MFRC522(BitFramingReg, 0x07);   // TxLastBists = BitFramingReg[2..0]
 81004ba:	2107      	movs	r1, #7
 81004bc:	200d      	movs	r0, #13
 81004be:	f7ff ff23 	bl	8100308 <Write_MFRC522>

  TagType[0] = reqMode;
 81004c2:	683b      	ldr	r3, [r7, #0]
 81004c4:	79fa      	ldrb	r2, [r7, #7]
 81004c6:	701a      	strb	r2, [r3, #0]

  status = MFRC522_ToCard(PCD_TRANSCEIVE, TagType, 1, TagType, &backBits);
 81004c8:	f107 0308 	add.w	r3, r7, #8
 81004cc:	9300      	str	r3, [sp, #0]
 81004ce:	683b      	ldr	r3, [r7, #0]
 81004d0:	2201      	movs	r2, #1
 81004d2:	6839      	ldr	r1, [r7, #0]
 81004d4:	200c      	movs	r0, #12
 81004d6:	f000 f80f 	bl	81004f8 <MFRC522_ToCard>
 81004da:	4603      	mov	r3, r0
 81004dc:	73fb      	strb	r3, [r7, #15]
  if ((status != MI_OK) || (backBits != 0x10)) {
 81004de:	7bfb      	ldrb	r3, [r7, #15]
 81004e0:	2b00      	cmp	r3, #0
 81004e2:	d102      	bne.n	81004ea <MFRC522_Request+0x3c>
 81004e4:	68bb      	ldr	r3, [r7, #8]
 81004e6:	2b10      	cmp	r3, #16
 81004e8:	d001      	beq.n	81004ee <MFRC522_Request+0x40>
    status = MI_ERR;
 81004ea:	2302      	movs	r3, #2
 81004ec:	73fb      	strb	r3, [r7, #15]
  }

  return status;
 81004ee:	7bfb      	ldrb	r3, [r7, #15]
}
 81004f0:	4618      	mov	r0, r3
 81004f2:	3710      	adds	r7, #16
 81004f4:	46bd      	mov	sp, r7
 81004f6:	bd80      	pop	{r7, pc}

081004f8 <MFRC522_ToCard>:
 *			 backData--Received the card returns data,
 *			 backLen--Return data bit length
 * Return value: the successful return MI_OK
 */
u_char MFRC522_ToCard(u_char command, u_char *sendData, u_char sendLen, u_char *backData, uint *backLen)
{
 81004f8:	b590      	push	{r4, r7, lr}
 81004fa:	b089      	sub	sp, #36	; 0x24
 81004fc:	af00      	add	r7, sp, #0
 81004fe:	60b9      	str	r1, [r7, #8]
 8100500:	607b      	str	r3, [r7, #4]
 8100502:	4603      	mov	r3, r0
 8100504:	73fb      	strb	r3, [r7, #15]
 8100506:	4613      	mov	r3, r2
 8100508:	73bb      	strb	r3, [r7, #14]
  u_char status = MI_ERR;
 810050a:	2302      	movs	r3, #2
 810050c:	77fb      	strb	r3, [r7, #31]
  u_char irqEn = 0x00;
 810050e:	2300      	movs	r3, #0
 8100510:	77bb      	strb	r3, [r7, #30]
  u_char waitIRq = 0x00;
 8100512:	2300      	movs	r3, #0
 8100514:	777b      	strb	r3, [r7, #29]
  u_char lastBits;
  u_char n;
  uint i;

  switch (command)
 8100516:	7bfb      	ldrb	r3, [r7, #15]
 8100518:	2b0c      	cmp	r3, #12
 810051a:	d006      	beq.n	810052a <MFRC522_ToCard+0x32>
 810051c:	2b0e      	cmp	r3, #14
 810051e:	d109      	bne.n	8100534 <MFRC522_ToCard+0x3c>
  {
    case PCD_AUTHENT:     // Certification cards close
      {
        irqEn = 0x12;
 8100520:	2312      	movs	r3, #18
 8100522:	77bb      	strb	r3, [r7, #30]
        waitIRq = 0x10;
 8100524:	2310      	movs	r3, #16
 8100526:	777b      	strb	r3, [r7, #29]
        break;
 8100528:	e005      	b.n	8100536 <MFRC522_ToCard+0x3e>
      }
    case PCD_TRANSCEIVE:  // Transmit FIFO data
      {
        irqEn = 0x77;
 810052a:	2377      	movs	r3, #119	; 0x77
 810052c:	77bb      	strb	r3, [r7, #30]
        waitIRq = 0x30;
 810052e:	2330      	movs	r3, #48	; 0x30
 8100530:	777b      	strb	r3, [r7, #29]
        break;
 8100532:	e000      	b.n	8100536 <MFRC522_ToCard+0x3e>
      }
    default:
      break;
 8100534:	bf00      	nop
  }

  Write_MFRC522(CommIEnReg, irqEn|0x80);  // Interrupt request
 8100536:	7fbb      	ldrb	r3, [r7, #30]
 8100538:	f063 037f 	orn	r3, r3, #127	; 0x7f
 810053c:	b2db      	uxtb	r3, r3
 810053e:	4619      	mov	r1, r3
 8100540:	2002      	movs	r0, #2
 8100542:	f7ff fee1 	bl	8100308 <Write_MFRC522>
  ClearBitMask(CommIrqReg, 0x80);         // Clear all interrupt request bit
 8100546:	2180      	movs	r1, #128	; 0x80
 8100548:	2004      	movs	r0, #4
 810054a:	f7ff ff60 	bl	810040e <ClearBitMask>
  SetBitMask(FIFOLevelReg, 0x80);         // FlushBuffer=1, FIFO Initialization
 810054e:	2180      	movs	r1, #128	; 0x80
 8100550:	200a      	movs	r0, #10
 8100552:	f7ff ff41 	bl	81003d8 <SetBitMask>

  Write_MFRC522(CommandReg, PCD_IDLE);    // NO action; Cancel the current command
 8100556:	2100      	movs	r1, #0
 8100558:	2001      	movs	r0, #1
 810055a:	f7ff fed5 	bl	8100308 <Write_MFRC522>

  // Writing data to the FIFO
  for (i=0; i<sendLen; i++)
 810055e:	2300      	movs	r3, #0
 8100560:	61bb      	str	r3, [r7, #24]
 8100562:	e00a      	b.n	810057a <MFRC522_ToCard+0x82>
  {
    Write_MFRC522(FIFODataReg, sendData[i]);
 8100564:	68ba      	ldr	r2, [r7, #8]
 8100566:	69bb      	ldr	r3, [r7, #24]
 8100568:	4413      	add	r3, r2
 810056a:	781b      	ldrb	r3, [r3, #0]
 810056c:	4619      	mov	r1, r3
 810056e:	2009      	movs	r0, #9
 8100570:	f7ff feca 	bl	8100308 <Write_MFRC522>
  for (i=0; i<sendLen; i++)
 8100574:	69bb      	ldr	r3, [r7, #24]
 8100576:	3301      	adds	r3, #1
 8100578:	61bb      	str	r3, [r7, #24]
 810057a:	7bbb      	ldrb	r3, [r7, #14]
 810057c:	69ba      	ldr	r2, [r7, #24]
 810057e:	429a      	cmp	r2, r3
 8100580:	d3f0      	bcc.n	8100564 <MFRC522_ToCard+0x6c>
  }

  // Execute the command
  Write_MFRC522(CommandReg, command);
 8100582:	7bfb      	ldrb	r3, [r7, #15]
 8100584:	4619      	mov	r1, r3
 8100586:	2001      	movs	r0, #1
 8100588:	f7ff febe 	bl	8100308 <Write_MFRC522>
  if (command == PCD_TRANSCEIVE)
 810058c:	7bfb      	ldrb	r3, [r7, #15]
 810058e:	2b0c      	cmp	r3, #12
 8100590:	d103      	bne.n	810059a <MFRC522_ToCard+0xa2>
  {
    SetBitMask(BitFramingReg, 0x80);      // StartSend=1,transmission of data starts
 8100592:	2180      	movs	r1, #128	; 0x80
 8100594:	200d      	movs	r0, #13
 8100596:	f7ff ff1f 	bl	81003d8 <SetBitMask>
  }

  // Waiting to receive data to complete
  i = 2000;	// i according to the clock frequency adjustment, the operator M1 card maximum waiting time 25ms
 810059a:	f44f 63fa 	mov.w	r3, #2000	; 0x7d0
 810059e:	61bb      	str	r3, [r7, #24]
  do
  {
    // CommIrqReg[7..0]
    // Set1 TxIRq RxIRq IdleIRq HiAlerIRq LoAlertIRq ErrIRq TimerIRq
    n = Read_MFRC522(CommIrqReg);
 81005a0:	2004      	movs	r0, #4
 81005a2:	f7ff fee3 	bl	810036c <Read_MFRC522>
 81005a6:	4603      	mov	r3, r0
 81005a8:	773b      	strb	r3, [r7, #28]
    i--;
 81005aa:	69bb      	ldr	r3, [r7, #24]
 81005ac:	3b01      	subs	r3, #1
 81005ae:	61bb      	str	r3, [r7, #24]
  }
  while ((i!=0) && !(n&0x01) && !(n&waitIRq));
 81005b0:	69bb      	ldr	r3, [r7, #24]
 81005b2:	2b00      	cmp	r3, #0
 81005b4:	d00a      	beq.n	81005cc <MFRC522_ToCard+0xd4>
 81005b6:	7f3b      	ldrb	r3, [r7, #28]
 81005b8:	f003 0301 	and.w	r3, r3, #1
 81005bc:	2b00      	cmp	r3, #0
 81005be:	d105      	bne.n	81005cc <MFRC522_ToCard+0xd4>
 81005c0:	7f3a      	ldrb	r2, [r7, #28]
 81005c2:	7f7b      	ldrb	r3, [r7, #29]
 81005c4:	4013      	ands	r3, r2
 81005c6:	b2db      	uxtb	r3, r3
 81005c8:	2b00      	cmp	r3, #0
 81005ca:	d0e9      	beq.n	81005a0 <MFRC522_ToCard+0xa8>

  ClearBitMask(BitFramingReg, 0x80);      // StartSend=0
 81005cc:	2180      	movs	r1, #128	; 0x80
 81005ce:	200d      	movs	r0, #13
 81005d0:	f7ff ff1d 	bl	810040e <ClearBitMask>

  if (i != 0)
 81005d4:	69bb      	ldr	r3, [r7, #24]
 81005d6:	2b00      	cmp	r3, #0
 81005d8:	d052      	beq.n	8100680 <MFRC522_ToCard+0x188>
  {
    if(!(Read_MFRC522(ErrorReg) & 0x1B))  // BufferOvfl Collerr CRCErr ProtecolErr
 81005da:	2006      	movs	r0, #6
 81005dc:	f7ff fec6 	bl	810036c <Read_MFRC522>
 81005e0:	4603      	mov	r3, r0
 81005e2:	f003 031b 	and.w	r3, r3, #27
 81005e6:	2b00      	cmp	r3, #0
 81005e8:	d148      	bne.n	810067c <MFRC522_ToCard+0x184>
    {
      status = MI_OK;
 81005ea:	2300      	movs	r3, #0
 81005ec:	77fb      	strb	r3, [r7, #31]
      if (n & irqEn & 0x01)
 81005ee:	7f3a      	ldrb	r2, [r7, #28]
 81005f0:	7fbb      	ldrb	r3, [r7, #30]
 81005f2:	4013      	ands	r3, r2
 81005f4:	b2db      	uxtb	r3, r3
 81005f6:	f003 0301 	and.w	r3, r3, #1
 81005fa:	2b00      	cmp	r3, #0
 81005fc:	d001      	beq.n	8100602 <MFRC522_ToCard+0x10a>
      {
        status = MI_NOTAGERR;             // ??
 81005fe:	2301      	movs	r3, #1
 8100600:	77fb      	strb	r3, [r7, #31]
      }

      if (command == PCD_TRANSCEIVE)
 8100602:	7bfb      	ldrb	r3, [r7, #15]
 8100604:	2b0c      	cmp	r3, #12
 8100606:	d13b      	bne.n	8100680 <MFRC522_ToCard+0x188>
      {
        n = Read_MFRC522(FIFOLevelReg);
 8100608:	200a      	movs	r0, #10
 810060a:	f7ff feaf 	bl	810036c <Read_MFRC522>
 810060e:	4603      	mov	r3, r0
 8100610:	773b      	strb	r3, [r7, #28]
        lastBits = Read_MFRC522(ControlReg) & 0x07;
 8100612:	200c      	movs	r0, #12
 8100614:	f7ff feaa 	bl	810036c <Read_MFRC522>
 8100618:	4603      	mov	r3, r0
 810061a:	f003 0307 	and.w	r3, r3, #7
 810061e:	75fb      	strb	r3, [r7, #23]
        if (lastBits)
 8100620:	7dfb      	ldrb	r3, [r7, #23]
 8100622:	2b00      	cmp	r3, #0
 8100624:	d008      	beq.n	8100638 <MFRC522_ToCard+0x140>
        {
          *backLen = (n-1)*8 + lastBits;
 8100626:	7f3b      	ldrb	r3, [r7, #28]
 8100628:	3b01      	subs	r3, #1
 810062a:	00da      	lsls	r2, r3, #3
 810062c:	7dfb      	ldrb	r3, [r7, #23]
 810062e:	4413      	add	r3, r2
 8100630:	461a      	mov	r2, r3
 8100632:	6b3b      	ldr	r3, [r7, #48]	; 0x30
 8100634:	601a      	str	r2, [r3, #0]
 8100636:	e004      	b.n	8100642 <MFRC522_ToCard+0x14a>
        }
        else
        {
          *backLen = n*8;
 8100638:	7f3b      	ldrb	r3, [r7, #28]
 810063a:	00db      	lsls	r3, r3, #3
 810063c:	461a      	mov	r2, r3
 810063e:	6b3b      	ldr	r3, [r7, #48]	; 0x30
 8100640:	601a      	str	r2, [r3, #0]
        }

        if (n == 0)
 8100642:	7f3b      	ldrb	r3, [r7, #28]
 8100644:	2b00      	cmp	r3, #0
 8100646:	d101      	bne.n	810064c <MFRC522_ToCard+0x154>
        {
          n = 1;
 8100648:	2301      	movs	r3, #1
 810064a:	773b      	strb	r3, [r7, #28]
        }
        if (n > MAX_LEN)
 810064c:	7f3b      	ldrb	r3, [r7, #28]
 810064e:	2b10      	cmp	r3, #16
 8100650:	d901      	bls.n	8100656 <MFRC522_ToCard+0x15e>
        {
          n = MAX_LEN;
 8100652:	2310      	movs	r3, #16
 8100654:	773b      	strb	r3, [r7, #28]
        }

        // Reading the received data in FIFO
        for (i=0; i<n; i++)
 8100656:	2300      	movs	r3, #0
 8100658:	61bb      	str	r3, [r7, #24]
 810065a:	e00a      	b.n	8100672 <MFRC522_ToCard+0x17a>
        {
          backData[i] = Read_MFRC522(FIFODataReg);
 810065c:	687a      	ldr	r2, [r7, #4]
 810065e:	69bb      	ldr	r3, [r7, #24]
 8100660:	18d4      	adds	r4, r2, r3
 8100662:	2009      	movs	r0, #9
 8100664:	f7ff fe82 	bl	810036c <Read_MFRC522>
 8100668:	4603      	mov	r3, r0
 810066a:	7023      	strb	r3, [r4, #0]
        for (i=0; i<n; i++)
 810066c:	69bb      	ldr	r3, [r7, #24]
 810066e:	3301      	adds	r3, #1
 8100670:	61bb      	str	r3, [r7, #24]
 8100672:	7f3b      	ldrb	r3, [r7, #28]
 8100674:	69ba      	ldr	r2, [r7, #24]
 8100676:	429a      	cmp	r2, r3
 8100678:	d3f0      	bcc.n	810065c <MFRC522_ToCard+0x164>
 810067a:	e001      	b.n	8100680 <MFRC522_ToCard+0x188>
        }
      }
    }
    else {
      //printf("~~~ buffer overflow, collerr, crcerr, or protecolerr\r\n");
      status = MI_ERR;
 810067c:	2302      	movs	r3, #2
 810067e:	77fb      	strb	r3, [r7, #31]
  }
  else {
    //printf("~~~ request timed out\r\n");
  }

  return status;
 8100680:	7ffb      	ldrb	r3, [r7, #31]
}
 8100682:	4618      	mov	r0, r3
 8100684:	3724      	adds	r7, #36	; 0x24
 8100686:	46bd      	mov	sp, r7
 8100688:	bd90      	pop	{r4, r7, pc}

0810068a <MFRC522_Anticoll>:
 * Description: Anti-collision detection, reading selected card serial number card
 * Input parameters: serNum - returns 4 bytes card serial number, the first 5 bytes for the checksum byte
 * Return value: the successful return MI_OK
 */
u_char MFRC522_Anticoll(u_char *serNum)
{
 810068a:	b580      	push	{r7, lr}
 810068c:	b086      	sub	sp, #24
 810068e:	af02      	add	r7, sp, #8
 8100690:	6078      	str	r0, [r7, #4]
  u_char status;
  u_char i;
  u_char serNumCheck=0;
 8100692:	2300      	movs	r3, #0
 8100694:	737b      	strb	r3, [r7, #13]
  uint unLen;


  //ClearBitMask(Status2Reg, 0x08);		//TempSensclear
  //ClearBitMask(CollReg,0x80);			//ValuesAfterColl
  Write_MFRC522(BitFramingReg, 0x00);		//TxLastBists = BitFramingReg[2..0]
 8100696:	2100      	movs	r1, #0
 8100698:	200d      	movs	r0, #13
 810069a:	f7ff fe35 	bl	8100308 <Write_MFRC522>

  serNum[0] = PICC_ANTICOLL;
 810069e:	687b      	ldr	r3, [r7, #4]
 81006a0:	2293      	movs	r2, #147	; 0x93
 81006a2:	701a      	strb	r2, [r3, #0]
  serNum[1] = 0x20;
 81006a4:	687b      	ldr	r3, [r7, #4]
 81006a6:	3301      	adds	r3, #1
 81006a8:	2220      	movs	r2, #32
 81006aa:	701a      	strb	r2, [r3, #0]
  status = MFRC522_ToCard(PCD_TRANSCEIVE, serNum, 2, serNum, &unLen);
 81006ac:	f107 0308 	add.w	r3, r7, #8
 81006b0:	9300      	str	r3, [sp, #0]
 81006b2:	687b      	ldr	r3, [r7, #4]
 81006b4:	2202      	movs	r2, #2
 81006b6:	6879      	ldr	r1, [r7, #4]
 81006b8:	200c      	movs	r0, #12
 81006ba:	f7ff ff1d 	bl	81004f8 <MFRC522_ToCard>
 81006be:	4603      	mov	r3, r0
 81006c0:	73fb      	strb	r3, [r7, #15]

  if (status == MI_OK)
 81006c2:	7bfb      	ldrb	r3, [r7, #15]
 81006c4:	2b00      	cmp	r3, #0
 81006c6:	d118      	bne.n	81006fa <MFRC522_Anticoll+0x70>
  {
    //Check card serial number
    for (i=0; i<4; i++)
 81006c8:	2300      	movs	r3, #0
 81006ca:	73bb      	strb	r3, [r7, #14]
 81006cc:	e009      	b.n	81006e2 <MFRC522_Anticoll+0x58>
    {
      serNumCheck ^= serNum[i];
 81006ce:	7bbb      	ldrb	r3, [r7, #14]
 81006d0:	687a      	ldr	r2, [r7, #4]
 81006d2:	4413      	add	r3, r2
 81006d4:	781a      	ldrb	r2, [r3, #0]
 81006d6:	7b7b      	ldrb	r3, [r7, #13]
 81006d8:	4053      	eors	r3, r2
 81006da:	737b      	strb	r3, [r7, #13]
    for (i=0; i<4; i++)
 81006dc:	7bbb      	ldrb	r3, [r7, #14]
 81006de:	3301      	adds	r3, #1
 81006e0:	73bb      	strb	r3, [r7, #14]
 81006e2:	7bbb      	ldrb	r3, [r7, #14]
 81006e4:	2b03      	cmp	r3, #3
 81006e6:	d9f2      	bls.n	81006ce <MFRC522_Anticoll+0x44>
    }
    if (serNumCheck != serNum[i])
 81006e8:	7bbb      	ldrb	r3, [r7, #14]
 81006ea:	687a      	ldr	r2, [r7, #4]
 81006ec:	4413      	add	r3, r2
 81006ee:	781b      	ldrb	r3, [r3, #0]
 81006f0:	7b7a      	ldrb	r2, [r7, #13]
 81006f2:	429a      	cmp	r2, r3
 81006f4:	d001      	beq.n	81006fa <MFRC522_Anticoll+0x70>
    {
      status = MI_ERR;
 81006f6:	2302      	movs	r3, #2
 81006f8:	73fb      	strb	r3, [r7, #15]
    }
  }

  //SetBitMask(CollReg, 0x80);		//ValuesAfterColl=1

  return status;
 81006fa:	7bfb      	ldrb	r3, [r7, #15]
}
 81006fc:	4618      	mov	r0, r3
 81006fe:	3710      	adds	r7, #16
 8100700:	46bd      	mov	sp, r7
 8100702:	bd80      	pop	{r7, pc}

08100704 <main>:
/**
  * @brief  The application entry point.
  * @retval int
  */
int main(void)
{
 8100704:	b580      	push	{r7, lr}
 8100706:	b086      	sub	sp, #24
 8100708:	af00      	add	r7, sp, #0

  /* USER CODE END 1 */

/* USER CODE BEGIN Boot_Mode_Sequence_1 */
  /*HW semaphore Clock enable*/
  __HAL_RCC_HSEM_CLK_ENABLE();
 810070a:	4b7a      	ldr	r3, [pc, #488]	; (81008f4 <main+0x1f0>)
 810070c:	f8d3 30e0 	ldr.w	r3, [r3, #224]	; 0xe0
 8100710:	4a78      	ldr	r2, [pc, #480]	; (81008f4 <main+0x1f0>)
 8100712:	f043 7300 	orr.w	r3, r3, #33554432	; 0x2000000
 8100716:	f8c2 30e0 	str.w	r3, [r2, #224]	; 0xe0
 810071a:	4b76      	ldr	r3, [pc, #472]	; (81008f4 <main+0x1f0>)
 810071c:	f8d3 30e0 	ldr.w	r3, [r3, #224]	; 0xe0
 8100720:	f003 7300 	and.w	r3, r3, #33554432	; 0x2000000
 8100724:	607b      	str	r3, [r7, #4]
 8100726:	687b      	ldr	r3, [r7, #4]
  /* Activate HSEM notification for Cortex-M4*/
  HAL_HSEM_ActivateNotification(__HAL_HSEM_SEMID_TO_MASK(HSEM_ID_0));
 8100728:	2001      	movs	r0, #1
 810072a:	f000 fdd9 	bl	81012e0 <HAL_HSEM_ActivateNotification>
  /*
  Domain D2 goes to STOP mode (Cortex-M4 in deep-sleep) waiting for Cortex-M7 to
  perform system initialization (system clock config, external memory configuration.. )
  */
  HAL_PWREx_ClearPendingEvent();
 810072e:	f000 fe63 	bl	81013f8 <HAL_PWREx_ClearPendingEvent>
  HAL_PWREx_EnterSTOPMode(PWR_MAINREGULATOR_ON, PWR_STOPENTRY_WFE, PWR_D2_DOMAIN);
 8100732:	2201      	movs	r2, #1
 8100734:	2102      	movs	r1, #2
 8100736:	2000      	movs	r0, #0
 8100738:	f000 fde4 	bl	8101304 <HAL_PWREx_EnterSTOPMode>
  /* Clear HSEM flag */
  __HAL_HSEM_CLEAR_FLAG(__HAL_HSEM_SEMID_TO_MASK(HSEM_ID_0));
 810073c:	4b6e      	ldr	r3, [pc, #440]	; (81008f8 <main+0x1f4>)
 810073e:	681b      	ldr	r3, [r3, #0]
 8100740:	091b      	lsrs	r3, r3, #4
 8100742:	f003 030f 	and.w	r3, r3, #15
 8100746:	2b07      	cmp	r3, #7
 8100748:	d108      	bne.n	810075c <main+0x58>
 810074a:	4b6c      	ldr	r3, [pc, #432]	; (81008fc <main+0x1f8>)
 810074c:	f8d3 3104 	ldr.w	r3, [r3, #260]	; 0x104
 8100750:	4a6a      	ldr	r2, [pc, #424]	; (81008fc <main+0x1f8>)
 8100752:	f043 0301 	orr.w	r3, r3, #1
 8100756:	f8c2 3104 	str.w	r3, [r2, #260]	; 0x104
 810075a:	e007      	b.n	810076c <main+0x68>
 810075c:	4b67      	ldr	r3, [pc, #412]	; (81008fc <main+0x1f8>)
 810075e:	f8d3 3114 	ldr.w	r3, [r3, #276]	; 0x114
 8100762:	4a66      	ldr	r2, [pc, #408]	; (81008fc <main+0x1f8>)
 8100764:	f043 0301 	orr.w	r3, r3, #1
 8100768:	f8c2 3114 	str.w	r3, [r2, #276]	; 0x114

/* USER CODE END Boot_Mode_Sequence_1 */
  /* MCU Configuration--------------------------------------------------------*/

  /* Reset of all peripherals, Initializes the Flash interface and the Systick. */
  HAL_Init();
 810076c:	f000 f9ec 	bl	8100b48 <HAL_Init>

  /* USER CODE BEGIN Init */

  tsest = 1;
 8100770:	4b63      	ldr	r3, [pc, #396]	; (8100900 <main+0x1fc>)
 8100772:	f04f 527e 	mov.w	r2, #1065353216	; 0x3f800000
 8100776:	601a      	str	r2, [r3, #0]

  for (int i = 0; i < 16; i++){
 8100778:	2300      	movs	r3, #0
 810077a:	617b      	str	r3, [r7, #20]
 810077c:	e007      	b.n	810078e <main+0x8a>
 	  tmp_str[i] = 'A';
 810077e:	4a61      	ldr	r2, [pc, #388]	; (8100904 <main+0x200>)
 8100780:	697b      	ldr	r3, [r7, #20]
 8100782:	4413      	add	r3, r2
 8100784:	2241      	movs	r2, #65	; 0x41
 8100786:	701a      	strb	r2, [r3, #0]
  for (int i = 0; i < 16; i++){
 8100788:	697b      	ldr	r3, [r7, #20]
 810078a:	3301      	adds	r3, #1
 810078c:	617b      	str	r3, [r7, #20]
 810078e:	697b      	ldr	r3, [r7, #20]
 8100790:	2b0f      	cmp	r3, #15
 8100792:	ddf4      	ble.n	810077e <main+0x7a>
  }
  for (int i = 16; i < 32; i++){
 8100794:	2310      	movs	r3, #16
 8100796:	613b      	str	r3, [r7, #16]
 8100798:	e007      	b.n	81007aa <main+0xa6>
 	  tmp_str[i] = 'B';
 810079a:	4a5a      	ldr	r2, [pc, #360]	; (8100904 <main+0x200>)
 810079c:	693b      	ldr	r3, [r7, #16]
 810079e:	4413      	add	r3, r2
 81007a0:	2242      	movs	r2, #66	; 0x42
 81007a2:	701a      	strb	r2, [r3, #0]
  for (int i = 16; i < 32; i++){
 81007a4:	693b      	ldr	r3, [r7, #16]
 81007a6:	3301      	adds	r3, #1
 81007a8:	613b      	str	r3, [r7, #16]
 81007aa:	693b      	ldr	r3, [r7, #16]
 81007ac:	2b1f      	cmp	r3, #31
 81007ae:	ddf4      	ble.n	810079a <main+0x96>
  }
  for (int i = 32; i < 48; i++){
 81007b0:	2320      	movs	r3, #32
 81007b2:	60fb      	str	r3, [r7, #12]
 81007b4:	e007      	b.n	81007c6 <main+0xc2>
 	  tmp_str[i] = 'C';
 81007b6:	4a53      	ldr	r2, [pc, #332]	; (8100904 <main+0x200>)
 81007b8:	68fb      	ldr	r3, [r7, #12]
 81007ba:	4413      	add	r3, r2
 81007bc:	2243      	movs	r2, #67	; 0x43
 81007be:	701a      	strb	r2, [r3, #0]
  for (int i = 32; i < 48; i++){
 81007c0:	68fb      	ldr	r3, [r7, #12]
 81007c2:	3301      	adds	r3, #1
 81007c4:	60fb      	str	r3, [r7, #12]
 81007c6:	68fb      	ldr	r3, [r7, #12]
 81007c8:	2b2f      	cmp	r3, #47	; 0x2f
 81007ca:	ddf4      	ble.n	81007b6 <main+0xb2>
  }
  for (int i = 48; i < 64; i++){
 81007cc:	2330      	movs	r3, #48	; 0x30
 81007ce:	60bb      	str	r3, [r7, #8]
 81007d0:	e007      	b.n	81007e2 <main+0xde>
 	  tmp_str[i] = 'D';
 81007d2:	4a4c      	ldr	r2, [pc, #304]	; (8100904 <main+0x200>)
 81007d4:	68bb      	ldr	r3, [r7, #8]
 81007d6:	4413      	add	r3, r2
 81007d8:	2244      	movs	r2, #68	; 0x44
 81007da:	701a      	strb	r2, [r3, #0]
  for (int i = 48; i < 64; i++){
 81007dc:	68bb      	ldr	r3, [r7, #8]
 81007de:	3301      	adds	r3, #1
 81007e0:	60bb      	str	r3, [r7, #8]
 81007e2:	68bb      	ldr	r3, [r7, #8]
 81007e4:	2b3f      	cmp	r3, #63	; 0x3f
 81007e6:	ddf4      	ble.n	81007d2 <main+0xce>
  }

  // Reset RC522
  HAL_GPIO_WritePin(RC522_Rst_GPIO_Port, RC522_Rst_Pin, GPIO_PIN_SET);
 81007e8:	2201      	movs	r2, #1
 81007ea:	2120      	movs	r1, #32
 81007ec:	4846      	ldr	r0, [pc, #280]	; (8100908 <main+0x204>)
 81007ee:	f000 fd43 	bl	8101278 <HAL_GPIO_WritePin>
  tsest = 2;
 81007f2:	4b43      	ldr	r3, [pc, #268]	; (8100900 <main+0x1fc>)
 81007f4:	f04f 4280 	mov.w	r2, #1073741824	; 0x40000000
 81007f8:	601a      	str	r2, [r3, #0]
  HAL_Delay(100);
 81007fa:	2064      	movs	r0, #100	; 0x64
 81007fc:	f000 fa58 	bl	8100cb0 <HAL_Delay>
  MFRC522_Init();
 8100800:	f7ff fe35 	bl	810046e <MFRC522_Init>
  HAL_Delay(1000);
 8100804:	f44f 707a 	mov.w	r0, #1000	; 0x3e8
 8100808:	f000 fa52 	bl	8100cb0 <HAL_Delay>
  tsest = 3;
 810080c:	4b3c      	ldr	r3, [pc, #240]	; (8100900 <main+0x1fc>)
 810080e:	4a3f      	ldr	r2, [pc, #252]	; (810090c <main+0x208>)
 8100810:	601a      	str	r2, [r3, #0]

  status = Read_MFRC522(VersionReg);
 8100812:	2037      	movs	r0, #55	; 0x37
 8100814:	f7ff fdaa 	bl	810036c <Read_MFRC522>
 8100818:	4603      	mov	r3, r0
 810081a:	461a      	mov	r2, r3
 810081c:	4b3c      	ldr	r3, [pc, #240]	; (8100910 <main+0x20c>)
 810081e:	701a      	strb	r2, [r3, #0]
  /* USER CODE BEGIN SysInit */

  /* USER CODE END SysInit */

  /* Initialize all configured peripherals */
  MX_GPIO_Init();
 8100820:	f000 f886 	bl	8100930 <MX_GPIO_Init>
  {

//	  for (int i = 0; i < 16; i++) {
//		  cardstr[i] = 0;
//	  }
	  status = 6;
 8100824:	4b3a      	ldr	r3, [pc, #232]	; (8100910 <main+0x20c>)
 8100826:	2206      	movs	r2, #6
 8100828:	701a      	strb	r2, [r3, #0]
	  // Find cards
	  status = MFRC522_Request(PICC_REQIDL, cardstr);
 810082a:	493a      	ldr	r1, [pc, #232]	; (8100914 <main+0x210>)
 810082c:	2026      	movs	r0, #38	; 0x26
 810082e:	f7ff fe3e 	bl	81004ae <MFRC522_Request>
 8100832:	4603      	mov	r3, r0
 8100834:	461a      	mov	r2, r3
 8100836:	4b36      	ldr	r3, [pc, #216]	; (8100910 <main+0x20c>)
 8100838:	701a      	strb	r2, [r3, #0]
	  if(status == MI_OK) {
 810083a:	4b35      	ldr	r3, [pc, #212]	; (8100910 <main+0x20c>)
 810083c:	781b      	ldrb	r3, [r3, #0]
 810083e:	2b00      	cmp	r3, #0
 8100840:	d12d      	bne.n	810089e <main+0x19a>
		  result = 0;
 8100842:	4b35      	ldr	r3, [pc, #212]	; (8100918 <main+0x214>)
 8100844:	2200      	movs	r2, #0
 8100846:	801a      	strh	r2, [r3, #0]
		  result++;
 8100848:	4b33      	ldr	r3, [pc, #204]	; (8100918 <main+0x214>)
 810084a:	881b      	ldrh	r3, [r3, #0]
 810084c:	3301      	adds	r3, #1
 810084e:	b29a      	uxth	r2, r3
 8100850:	4b31      	ldr	r3, [pc, #196]	; (8100918 <main+0x214>)
 8100852:	801a      	strh	r2, [r3, #0]
		  status = MFRC522_Anticoll(cardstr);
 8100854:	482f      	ldr	r0, [pc, #188]	; (8100914 <main+0x210>)
 8100856:	f7ff ff18 	bl	810068a <MFRC522_Anticoll>
 810085a:	4603      	mov	r3, r0
 810085c:	461a      	mov	r2, r3
 810085e:	4b2c      	ldr	r3, [pc, #176]	; (8100910 <main+0x20c>)
 8100860:	701a      	strb	r2, [r3, #0]
		  if(status == MI_OK) {
 8100862:	4b2b      	ldr	r3, [pc, #172]	; (8100910 <main+0x20c>)
 8100864:	781b      	ldrb	r3, [r3, #0]
 8100866:	2b00      	cmp	r3, #0
 8100868:	d119      	bne.n	810089e <main+0x19a>
			  result++;
 810086a:	4b2b      	ldr	r3, [pc, #172]	; (8100918 <main+0x214>)
 810086c:	881b      	ldrh	r3, [r3, #0]
 810086e:	3301      	adds	r3, #1
 8100870:	b29a      	uxth	r2, r3
 8100872:	4b29      	ldr	r3, [pc, #164]	; (8100918 <main+0x214>)
 8100874:	801a      	strh	r2, [r3, #0]
			  UID[0] = cardstr[0];
 8100876:	4b27      	ldr	r3, [pc, #156]	; (8100914 <main+0x210>)
 8100878:	781a      	ldrb	r2, [r3, #0]
 810087a:	4b28      	ldr	r3, [pc, #160]	; (810091c <main+0x218>)
 810087c:	701a      	strb	r2, [r3, #0]
			  UID[1] = cardstr[1];
 810087e:	4b25      	ldr	r3, [pc, #148]	; (8100914 <main+0x210>)
 8100880:	785a      	ldrb	r2, [r3, #1]
 8100882:	4b26      	ldr	r3, [pc, #152]	; (810091c <main+0x218>)
 8100884:	705a      	strb	r2, [r3, #1]
			  UID[2] = cardstr[2];
 8100886:	4b23      	ldr	r3, [pc, #140]	; (8100914 <main+0x210>)
 8100888:	789a      	ldrb	r2, [r3, #2]
 810088a:	4b24      	ldr	r3, [pc, #144]	; (810091c <main+0x218>)
 810088c:	709a      	strb	r2, [r3, #2]
			  UID[3] = cardstr[3];
 810088e:	4b21      	ldr	r3, [pc, #132]	; (8100914 <main+0x210>)
 8100890:	78da      	ldrb	r2, [r3, #3]
 8100892:	4b22      	ldr	r3, [pc, #136]	; (810091c <main+0x218>)
 8100894:	70da      	strb	r2, [r3, #3]
			  UID[4] = cardstr[4];
 8100896:	4b1f      	ldr	r3, [pc, #124]	; (8100914 <main+0x210>)
 8100898:	791a      	ldrb	r2, [r3, #4]
 810089a:	4b20      	ldr	r3, [pc, #128]	; (810091c <main+0x218>)
 810089c:	711a      	strb	r2, [r3, #4]
		  }
	  }

      if(HAL_GetTick() - timemsM4 > 1000)
 810089e:	f000 f9fb 	bl	8100c98 <HAL_GetTick>
 81008a2:	4602      	mov	r2, r0
 81008a4:	4b1e      	ldr	r3, [pc, #120]	; (8100920 <main+0x21c>)
 81008a6:	681b      	ldr	r3, [r3, #0]
 81008a8:	1ad3      	subs	r3, r2, r3
 81008aa:	f5b3 7f7a 	cmp.w	r3, #1000	; 0x3e8
 81008ae:	d908      	bls.n	81008c2 <main+0x1be>
      {
          timemsM4 = HAL_GetTick();
 81008b0:	f000 f9f2 	bl	8100c98 <HAL_GetTick>
 81008b4:	4603      	mov	r3, r0
 81008b6:	4a1a      	ldr	r2, [pc, #104]	; (8100920 <main+0x21c>)
 81008b8:	6013      	str	r3, [r2, #0]
          HAL_GPIO_TogglePin(LD2_GPIO_Port, LD2_Pin);
 81008ba:	2102      	movs	r1, #2
 81008bc:	4819      	ldr	r0, [pc, #100]	; (8100924 <main+0x220>)
 81008be:	f000 fcf4 	bl	81012aa <HAL_GPIO_TogglePin>

      }

		 testvar = HAL_GPIO_ReadPin(B1_GPIO_Port, B1_Pin);
 81008c2:	f44f 5100 	mov.w	r1, #8192	; 0x2000
 81008c6:	4818      	ldr	r0, [pc, #96]	; (8100928 <main+0x224>)
 81008c8:	f000 fcbe 	bl	8101248 <HAL_GPIO_ReadPin>
 81008cc:	4603      	mov	r3, r0
 81008ce:	461a      	mov	r2, r3
 81008d0:	4b16      	ldr	r3, [pc, #88]	; (810092c <main+0x228>)
 81008d2:	701a      	strb	r2, [r3, #0]

		 if(testvar == GPIO_PIN_RESET){
 81008d4:	4b15      	ldr	r3, [pc, #84]	; (810092c <main+0x228>)
 81008d6:	781b      	ldrb	r3, [r3, #0]
 81008d8:	2b00      	cmp	r3, #0
 81008da:	d105      	bne.n	81008e8 <main+0x1e4>
			 HAL_GPIO_WritePin(LD1_GPIO_Port, LD1_Pin, GPIO_PIN_RESET);
 81008dc:	2200      	movs	r2, #0
 81008de:	2101      	movs	r1, #1
 81008e0:	4809      	ldr	r0, [pc, #36]	; (8100908 <main+0x204>)
 81008e2:	f000 fcc9 	bl	8101278 <HAL_GPIO_WritePin>
 81008e6:	e79d      	b.n	8100824 <main+0x120>
		 }
		 else {

			HAL_GPIO_WritePin(LD1_GPIO_Port, LD1_Pin, GPIO_PIN_SET);
 81008e8:	2201      	movs	r2, #1
 81008ea:	2101      	movs	r1, #1
 81008ec:	4806      	ldr	r0, [pc, #24]	; (8100908 <main+0x204>)
 81008ee:	f000 fcc3 	bl	8101278 <HAL_GPIO_WritePin>
	  status = 6;
 81008f2:	e797      	b.n	8100824 <main+0x120>
 81008f4:	58024400 	.word	0x58024400
 81008f8:	e000ed00 	.word	0xe000ed00
 81008fc:	58026400 	.word	0x58026400
 8100900:	100000bc 	.word	0x100000bc
 8100904:	100000c0 	.word	0x100000c0
 8100908:	58020400 	.word	0x58020400
 810090c:	40400000 	.word	0x40400000
 8100910:	10000101 	.word	0x10000101
 8100914:	10000104 	.word	0x10000104
 8100918:	10000116 	.word	0x10000116
 810091c:	10000118 	.word	0x10000118
 8100920:	100000b8 	.word	0x100000b8
 8100924:	58021000 	.word	0x58021000
 8100928:	58020800 	.word	0x58020800
 810092c:	100000b4 	.word	0x100000b4

08100930 <MX_GPIO_Init>:
  * @brief GPIO Initialization Function
  * @param None
  * @retval None
  */
static void MX_GPIO_Init(void)
{
 8100930:	b580      	push	{r7, lr}
 8100932:	b08a      	sub	sp, #40	; 0x28
 8100934:	af00      	add	r7, sp, #0
  GPIO_InitTypeDef GPIO_InitStruct = {0};
 8100936:	f107 0314 	add.w	r3, r7, #20
 810093a:	2200      	movs	r2, #0
 810093c:	601a      	str	r2, [r3, #0]
 810093e:	605a      	str	r2, [r3, #4]
 8100940:	609a      	str	r2, [r3, #8]
 8100942:	60da      	str	r2, [r3, #12]
 8100944:	611a      	str	r2, [r3, #16]

  /* GPIO Ports Clock Enable */
  __HAL_RCC_GPIOC_CLK_ENABLE();
 8100946:	4b44      	ldr	r3, [pc, #272]	; (8100a58 <MX_GPIO_Init+0x128>)
 8100948:	f8d3 30e0 	ldr.w	r3, [r3, #224]	; 0xe0
 810094c:	4a42      	ldr	r2, [pc, #264]	; (8100a58 <MX_GPIO_Init+0x128>)
 810094e:	f043 0304 	orr.w	r3, r3, #4
 8100952:	f8c2 30e0 	str.w	r3, [r2, #224]	; 0xe0
 8100956:	4b40      	ldr	r3, [pc, #256]	; (8100a58 <MX_GPIO_Init+0x128>)
 8100958:	f8d3 30e0 	ldr.w	r3, [r3, #224]	; 0xe0
 810095c:	f003 0304 	and.w	r3, r3, #4
 8100960:	613b      	str	r3, [r7, #16]
 8100962:	693b      	ldr	r3, [r7, #16]
  __HAL_RCC_GPIOB_CLK_ENABLE();
 8100964:	4b3c      	ldr	r3, [pc, #240]	; (8100a58 <MX_GPIO_Init+0x128>)
 8100966:	f8d3 30e0 	ldr.w	r3, [r3, #224]	; 0xe0
 810096a:	4a3b      	ldr	r2, [pc, #236]	; (8100a58 <MX_GPIO_Init+0x128>)
 810096c:	f043 0302 	orr.w	r3, r3, #2
 8100970:	f8c2 30e0 	str.w	r3, [r2, #224]	; 0xe0
 8100974:	4b38      	ldr	r3, [pc, #224]	; (8100a58 <MX_GPIO_Init+0x128>)
 8100976:	f8d3 30e0 	ldr.w	r3, [r3, #224]	; 0xe0
 810097a:	f003 0302 	and.w	r3, r3, #2
 810097e:	60fb      	str	r3, [r7, #12]
 8100980:	68fb      	ldr	r3, [r7, #12]
  __HAL_RCC_GPIOD_CLK_ENABLE();
 8100982:	4b35      	ldr	r3, [pc, #212]	; (8100a58 <MX_GPIO_Init+0x128>)
 8100984:	f8d3 30e0 	ldr.w	r3, [r3, #224]	; 0xe0
 8100988:	4a33      	ldr	r2, [pc, #204]	; (8100a58 <MX_GPIO_Init+0x128>)
 810098a:	f043 0308 	orr.w	r3, r3, #8
 810098e:	f8c2 30e0 	str.w	r3, [r2, #224]	; 0xe0
 8100992:	4b31      	ldr	r3, [pc, #196]	; (8100a58 <MX_GPIO_Init+0x128>)
 8100994:	f8d3 30e0 	ldr.w	r3, [r3, #224]	; 0xe0
 8100998:	f003 0308 	and.w	r3, r3, #8
 810099c:	60bb      	str	r3, [r7, #8]
 810099e:	68bb      	ldr	r3, [r7, #8]
  __HAL_RCC_GPIOE_CLK_ENABLE();
 81009a0:	4b2d      	ldr	r3, [pc, #180]	; (8100a58 <MX_GPIO_Init+0x128>)
 81009a2:	f8d3 30e0 	ldr.w	r3, [r3, #224]	; 0xe0
 81009a6:	4a2c      	ldr	r2, [pc, #176]	; (8100a58 <MX_GPIO_Init+0x128>)
 81009a8:	f043 0310 	orr.w	r3, r3, #16
 81009ac:	f8c2 30e0 	str.w	r3, [r2, #224]	; 0xe0
 81009b0:	4b29      	ldr	r3, [pc, #164]	; (8100a58 <MX_GPIO_Init+0x128>)
 81009b2:	f8d3 30e0 	ldr.w	r3, [r3, #224]	; 0xe0
 81009b6:	f003 0310 	and.w	r3, r3, #16
 81009ba:	607b      	str	r3, [r7, #4]
 81009bc:	687b      	ldr	r3, [r7, #4]

  /*Configure GPIO pin Output Level */
  HAL_GPIO_WritePin(GPIOB, LD1_Pin|RC522_Rst_Pin, GPIO_PIN_RESET);
 81009be:	2200      	movs	r2, #0
 81009c0:	2121      	movs	r1, #33	; 0x21
 81009c2:	4826      	ldr	r0, [pc, #152]	; (8100a5c <MX_GPIO_Init+0x12c>)
 81009c4:	f000 fc58 	bl	8101278 <HAL_GPIO_WritePin>

  /*Configure GPIO pin Output Level */
  HAL_GPIO_WritePin(RC522_CS_GPIO_Port, RC522_CS_Pin, GPIO_PIN_RESET);
 81009c8:	2200      	movs	r2, #0
 81009ca:	f44f 4180 	mov.w	r1, #16384	; 0x4000
 81009ce:	4824      	ldr	r0, [pc, #144]	; (8100a60 <MX_GPIO_Init+0x130>)
 81009d0:	f000 fc52 	bl	8101278 <HAL_GPIO_WritePin>

  /*Configure GPIO pin Output Level */
  HAL_GPIO_WritePin(LD2_GPIO_Port, LD2_Pin, GPIO_PIN_RESET);
 81009d4:	2200      	movs	r2, #0
 81009d6:	2102      	movs	r1, #2
 81009d8:	4822      	ldr	r0, [pc, #136]	; (8100a64 <MX_GPIO_Init+0x134>)
 81009da:	f000 fc4d 	bl	8101278 <HAL_GPIO_WritePin>

  /*Configure GPIO pin : B1_Pin */
  GPIO_InitStruct.Pin = B1_Pin;
 81009de:	f44f 5300 	mov.w	r3, #8192	; 0x2000
 81009e2:	617b      	str	r3, [r7, #20]
  GPIO_InitStruct.Mode = GPIO_MODE_INPUT;
 81009e4:	2300      	movs	r3, #0
 81009e6:	61bb      	str	r3, [r7, #24]
  GPIO_InitStruct.Pull = GPIO_NOPULL;
 81009e8:	2300      	movs	r3, #0
 81009ea:	61fb      	str	r3, [r7, #28]
  HAL_GPIO_Init(B1_GPIO_Port, &GPIO_InitStruct);
 81009ec:	f107 0314 	add.w	r3, r7, #20
 81009f0:	4619      	mov	r1, r3
 81009f2:	481d      	ldr	r0, [pc, #116]	; (8100a68 <MX_GPIO_Init+0x138>)
 81009f4:	f000 fa78 	bl	8100ee8 <HAL_GPIO_Init>

  /*Configure GPIO pins : LD1_Pin RC522_Rst_Pin */
  GPIO_InitStruct.Pin = LD1_Pin|RC522_Rst_Pin;
 81009f8:	2321      	movs	r3, #33	; 0x21
 81009fa:	617b      	str	r3, [r7, #20]
  GPIO_InitStruct.Mode = GPIO_MODE_OUTPUT_PP;
 81009fc:	2301      	movs	r3, #1
 81009fe:	61bb      	str	r3, [r7, #24]
  GPIO_InitStruct.Pull = GPIO_NOPULL;
 8100a00:	2300      	movs	r3, #0
 8100a02:	61fb      	str	r3, [r7, #28]
  GPIO_InitStruct.Speed = GPIO_SPEED_FREQ_LOW;
 8100a04:	2300      	movs	r3, #0
 8100a06:	623b      	str	r3, [r7, #32]
  HAL_GPIO_Init(GPIOB, &GPIO_InitStruct);
 8100a08:	f107 0314 	add.w	r3, r7, #20
 8100a0c:	4619      	mov	r1, r3
 8100a0e:	4813      	ldr	r0, [pc, #76]	; (8100a5c <MX_GPIO_Init+0x12c>)
 8100a10:	f000 fa6a 	bl	8100ee8 <HAL_GPIO_Init>

  /*Configure GPIO pin : RC522_CS_Pin */
  GPIO_InitStruct.Pin = RC522_CS_Pin;
 8100a14:	f44f 4380 	mov.w	r3, #16384	; 0x4000
 8100a18:	617b      	str	r3, [r7, #20]
  GPIO_InitStruct.Mode = GPIO_MODE_OUTPUT_PP;
 8100a1a:	2301      	movs	r3, #1
 8100a1c:	61bb      	str	r3, [r7, #24]
  GPIO_InitStruct.Pull = GPIO_NOPULL;
 8100a1e:	2300      	movs	r3, #0
 8100a20:	61fb      	str	r3, [r7, #28]
  GPIO_InitStruct.Speed = GPIO_SPEED_FREQ_LOW;
 8100a22:	2300      	movs	r3, #0
 8100a24:	623b      	str	r3, [r7, #32]
  HAL_GPIO_Init(RC522_CS_GPIO_Port, &GPIO_InitStruct);
 8100a26:	f107 0314 	add.w	r3, r7, #20
 8100a2a:	4619      	mov	r1, r3
 8100a2c:	480c      	ldr	r0, [pc, #48]	; (8100a60 <MX_GPIO_Init+0x130>)
 8100a2e:	f000 fa5b 	bl	8100ee8 <HAL_GPIO_Init>

  /*Configure GPIO pin : LD2_Pin */
  GPIO_InitStruct.Pin = LD2_Pin;
 8100a32:	2302      	movs	r3, #2
 8100a34:	617b      	str	r3, [r7, #20]
  GPIO_InitStruct.Mode = GPIO_MODE_OUTPUT_PP;
 8100a36:	2301      	movs	r3, #1
 8100a38:	61bb      	str	r3, [r7, #24]
  GPIO_InitStruct.Pull = GPIO_NOPULL;
 8100a3a:	2300      	movs	r3, #0
 8100a3c:	61fb      	str	r3, [r7, #28]
  GPIO_InitStruct.Speed = GPIO_SPEED_FREQ_LOW;
 8100a3e:	2300      	movs	r3, #0
 8100a40:	623b      	str	r3, [r7, #32]
  HAL_GPIO_Init(LD2_GPIO_Port, &GPIO_InitStruct);
 8100a42:	f107 0314 	add.w	r3, r7, #20
 8100a46:	4619      	mov	r1, r3
 8100a48:	4806      	ldr	r0, [pc, #24]	; (8100a64 <MX_GPIO_Init+0x134>)
 8100a4a:	f000 fa4d 	bl	8100ee8 <HAL_GPIO_Init>

}
 8100a4e:	bf00      	nop
 8100a50:	3728      	adds	r7, #40	; 0x28
 8100a52:	46bd      	mov	sp, r7
 8100a54:	bd80      	pop	{r7, pc}
 8100a56:	bf00      	nop
 8100a58:	58024400 	.word	0x58024400
 8100a5c:	58020400 	.word	0x58020400
 8100a60:	58020c00 	.word	0x58020c00
 8100a64:	58021000 	.word	0x58021000
 8100a68:	58020800 	.word	0x58020800

08100a6c <HAL_MspInit>:
/* USER CODE END 0 */
/**
  * Initializes the Global MSP.
  */
void HAL_MspInit(void)
{
 8100a6c:	b480      	push	{r7}
 8100a6e:	b083      	sub	sp, #12
 8100a70:	af00      	add	r7, sp, #0
  /* USER CODE BEGIN MspInit 0 */

  /* USER CODE END MspInit 0 */

  __HAL_RCC_SYSCFG_CLK_ENABLE();
 8100a72:	4b0a      	ldr	r3, [pc, #40]	; (8100a9c <HAL_MspInit+0x30>)
 8100a74:	f8d3 30f4 	ldr.w	r3, [r3, #244]	; 0xf4
 8100a78:	4a08      	ldr	r2, [pc, #32]	; (8100a9c <HAL_MspInit+0x30>)
 8100a7a:	f043 0302 	orr.w	r3, r3, #2
 8100a7e:	f8c2 30f4 	str.w	r3, [r2, #244]	; 0xf4
 8100a82:	4b06      	ldr	r3, [pc, #24]	; (8100a9c <HAL_MspInit+0x30>)
 8100a84:	f8d3 30f4 	ldr.w	r3, [r3, #244]	; 0xf4
 8100a88:	f003 0302 	and.w	r3, r3, #2
 8100a8c:	607b      	str	r3, [r7, #4]
 8100a8e:	687b      	ldr	r3, [r7, #4]
  /* System interrupt init*/

  /* USER CODE BEGIN MspInit 1 */

  /* USER CODE END MspInit 1 */
}
 8100a90:	bf00      	nop
 8100a92:	370c      	adds	r7, #12
 8100a94:	46bd      	mov	sp, r7
 8100a96:	f85d 7b04 	ldr.w	r7, [sp], #4
 8100a9a:	4770      	bx	lr
 8100a9c:	58024400 	.word	0x58024400

08100aa0 <NMI_Handler>:
/******************************************************************************/
/**
  * @brief This function handles Non maskable interrupt.
  */
void NMI_Handler(void)
{
 8100aa0:	b480      	push	{r7}
 8100aa2:	af00      	add	r7, sp, #0
  /* USER CODE BEGIN NonMaskableInt_IRQn 0 */

  /* USER CODE END NonMaskableInt_IRQn 0 */
  /* USER CODE BEGIN NonMaskableInt_IRQn 1 */
  while (1)
 8100aa4:	e7fe      	b.n	8100aa4 <NMI_Handler+0x4>

08100aa6 <HardFault_Handler>:

/**
  * @brief This function handles Hard fault interrupt.
  */
void HardFault_Handler(void)
{
 8100aa6:	b480      	push	{r7}
 8100aa8:	af00      	add	r7, sp, #0
  /* USER CODE BEGIN HardFault_IRQn 0 */

  /* USER CODE END HardFault_IRQn 0 */
  while (1)
 8100aaa:	e7fe      	b.n	8100aaa <HardFault_Handler+0x4>

08100aac <MemManage_Handler>:

/**
  * @brief This function handles Memory management fault.
  */
void MemManage_Handler(void)
{
 8100aac:	b480      	push	{r7}
 8100aae:	af00      	add	r7, sp, #0
  /* USER CODE BEGIN MemoryManagement_IRQn 0 */

  /* USER CODE END MemoryManagement_IRQn 0 */
  while (1)
 8100ab0:	e7fe      	b.n	8100ab0 <MemManage_Handler+0x4>

08100ab2 <BusFault_Handler>:

/**
  * @brief This function handles Pre-fetch fault, memory access fault.
  */
void BusFault_Handler(void)
{
 8100ab2:	b480      	push	{r7}
 8100ab4:	af00      	add	r7, sp, #0
  /* USER CODE BEGIN BusFault_IRQn 0 */

  /* USER CODE END BusFault_IRQn 0 */
  while (1)
 8100ab6:	e7fe      	b.n	8100ab6 <BusFault_Handler+0x4>

08100ab8 <UsageFault_Handler>:

/**
  * @brief This function handles Undefined instruction or illegal state.
  */
void UsageFault_Handler(void)
{
 8100ab8:	b480      	push	{r7}
 8100aba:	af00      	add	r7, sp, #0
  /* USER CODE BEGIN UsageFault_IRQn 0 */

  /* USER CODE END UsageFault_IRQn 0 */
  while (1)
 8100abc:	e7fe      	b.n	8100abc <UsageFault_Handler+0x4>

08100abe <SVC_Handler>:

/**
  * @brief This function handles System service call via SWI instruction.
  */
void SVC_Handler(void)
{
 8100abe:	b480      	push	{r7}
 8100ac0:	af00      	add	r7, sp, #0

  /* USER CODE END SVCall_IRQn 0 */
  /* USER CODE BEGIN SVCall_IRQn 1 */

  /* USER CODE END SVCall_IRQn 1 */
}
 8100ac2:	bf00      	nop
 8100ac4:	46bd      	mov	sp, r7
 8100ac6:	f85d 7b04 	ldr.w	r7, [sp], #4
 8100aca:	4770      	bx	lr

08100acc <DebugMon_Handler>:

/**
  * @brief This function handles Debug monitor.
  */
void DebugMon_Handler(void)
{
 8100acc:	b480      	push	{r7}
 8100ace:	af00      	add	r7, sp, #0

  /* USER CODE END DebugMonitor_IRQn 0 */
  /* USER CODE BEGIN DebugMonitor_IRQn 1 */

  /* USER CODE END DebugMonitor_IRQn 1 */
}
 8100ad0:	bf00      	nop
 8100ad2:	46bd      	mov	sp, r7
 8100ad4:	f85d 7b04 	ldr.w	r7, [sp], #4
 8100ad8:	4770      	bx	lr

08100ada <PendSV_Handler>:

/**
  * @brief This function handles Pendable request for system service.
  */
void PendSV_Handler(void)
{
 8100ada:	b480      	push	{r7}
 8100adc:	af00      	add	r7, sp, #0

  /* USER CODE END PendSV_IRQn 0 */
  /* USER CODE BEGIN PendSV_IRQn 1 */

  /* USER CODE END PendSV_IRQn 1 */
}
 8100ade:	bf00      	nop
 8100ae0:	46bd      	mov	sp, r7
 8100ae2:	f85d 7b04 	ldr.w	r7, [sp], #4
 8100ae6:	4770      	bx	lr

08100ae8 <SysTick_Handler>:

/**
  * @brief This function handles System tick timer.
  */
void SysTick_Handler(void)
{
 8100ae8:	b580      	push	{r7, lr}
 8100aea:	af00      	add	r7, sp, #0
  /* USER CODE BEGIN SysTick_IRQn 0 */

  /* USER CODE END SysTick_IRQn 0 */
  HAL_IncTick();
 8100aec:	f000 f8c0 	bl	8100c70 <HAL_IncTick>
  /* USER CODE BEGIN SysTick_IRQn 1 */

  /* USER CODE END SysTick_IRQn 1 */
}
 8100af0:	bf00      	nop
 8100af2:	bd80      	pop	{r7, pc}

08100af4 <Reset_Handler>:

    .section  .text.Reset_Handler
  .weak  Reset_Handler
  .type  Reset_Handler, %function
Reset_Handler:
  ldr   sp, =_estack      /* set stack pointer */
 8100af4:	f8df d034 	ldr.w	sp, [pc, #52]	; 8100b2c <LoopFillZerobss+0xe>

/* Call the clock system initialization function.*/
  bl  SystemInit
 8100af8:	f7ff fbee 	bl	81002d8 <SystemInit>

/* Copy the data segment initializers from flash to SRAM */
  ldr r0, =_sdata
 8100afc:	480c      	ldr	r0, [pc, #48]	; (8100b30 <LoopFillZerobss+0x12>)
  ldr r1, =_edata
 8100afe:	490d      	ldr	r1, [pc, #52]	; (8100b34 <LoopFillZerobss+0x16>)
  ldr r2, =_sidata
 8100b00:	4a0d      	ldr	r2, [pc, #52]	; (8100b38 <LoopFillZerobss+0x1a>)
  movs r3, #0
 8100b02:	2300      	movs	r3, #0
  b LoopCopyDataInit
 8100b04:	e002      	b.n	8100b0c <LoopCopyDataInit>

08100b06 <CopyDataInit>:

CopyDataInit:
  ldr r4, [r2, r3]
 8100b06:	58d4      	ldr	r4, [r2, r3]
  str r4, [r0, r3]
 8100b08:	50c4      	str	r4, [r0, r3]
  adds r3, r3, #4
 8100b0a:	3304      	adds	r3, #4

08100b0c <LoopCopyDataInit>:

LoopCopyDataInit:
  adds r4, r0, r3
 8100b0c:	18c4      	adds	r4, r0, r3
  cmp r4, r1
 8100b0e:	428c      	cmp	r4, r1
  bcc CopyDataInit
 8100b10:	d3f9      	bcc.n	8100b06 <CopyDataInit>
/* Zero fill the bss segment. */
  ldr r2, =_sbss
 8100b12:	4a0a      	ldr	r2, [pc, #40]	; (8100b3c <LoopFillZerobss+0x1e>)
  ldr r4, =_ebss
 8100b14:	4c0a      	ldr	r4, [pc, #40]	; (8100b40 <LoopFillZerobss+0x22>)
  movs r3, #0
 8100b16:	2300      	movs	r3, #0
  b LoopFillZerobss
 8100b18:	e001      	b.n	8100b1e <LoopFillZerobss>

08100b1a <FillZerobss>:

FillZerobss:
  str  r3, [r2]
 8100b1a:	6013      	str	r3, [r2, #0]
  adds r2, r2, #4
 8100b1c:	3204      	adds	r2, #4

08100b1e <LoopFillZerobss>:

LoopFillZerobss:
  cmp r2, r4
 8100b1e:	42a2      	cmp	r2, r4
  bcc FillZerobss
 8100b20:	d3fb      	bcc.n	8100b1a <FillZerobss>

/* Call static constructors */
    bl __libc_init_array
 8100b22:	f001 fc6d 	bl	8102400 <__libc_init_array>
/* Call the application's entry point.*/
  bl  main
 8100b26:	f7ff fded 	bl	8100704 <main>
  bx  lr
 8100b2a:	4770      	bx	lr
  ldr   sp, =_estack      /* set stack pointer */
 8100b2c:	10048000 	.word	0x10048000
  ldr r0, =_sdata
 8100b30:	10000000 	.word	0x10000000
  ldr r1, =_edata
 8100b34:	10000010 	.word	0x10000010
  ldr r2, =_sidata
 8100b38:	08102478 	.word	0x08102478
  ldr r2, =_sbss
 8100b3c:	10000010 	.word	0x10000010
  ldr r4, =_ebss
 8100b40:	10000124 	.word	0x10000124

08100b44 <ADC3_IRQHandler>:
 * @retval None
*/
    .section  .text.Default_Handler,"ax",%progbits
Default_Handler:
Infinite_Loop:
  b  Infinite_Loop
 8100b44:	e7fe      	b.n	8100b44 <ADC3_IRQHandler>
	...

08100b48 <HAL_Init>:
  *         need to ensure that the SysTick time base is always set to 1 millisecond
  *         to have correct HAL operation.
  * @retval HAL status
  */
HAL_StatusTypeDef HAL_Init(void)
{
 8100b48:	b580      	push	{r7, lr}
 8100b4a:	b082      	sub	sp, #8
 8100b4c:	af00      	add	r7, sp, #0

uint32_t common_system_clock;

#if defined(DUAL_CORE) && defined(CORE_CM4)
   /* Configure Cortex-M4 Instruction cache through ART accelerator */
   __HAL_RCC_ART_CLK_ENABLE();                   /* Enable the Cortex-M4 ART Clock */
 8100b4e:	4b28      	ldr	r3, [pc, #160]	; (8100bf0 <HAL_Init+0xa8>)
 8100b50:	f8d3 30d8 	ldr.w	r3, [r3, #216]	; 0xd8
 8100b54:	4a26      	ldr	r2, [pc, #152]	; (8100bf0 <HAL_Init+0xa8>)
 8100b56:	f443 4380 	orr.w	r3, r3, #16384	; 0x4000
 8100b5a:	f8c2 30d8 	str.w	r3, [r2, #216]	; 0xd8
 8100b5e:	4b24      	ldr	r3, [pc, #144]	; (8100bf0 <HAL_Init+0xa8>)
 8100b60:	f8d3 30d8 	ldr.w	r3, [r3, #216]	; 0xd8
 8100b64:	f403 4380 	and.w	r3, r3, #16384	; 0x4000
 8100b68:	603b      	str	r3, [r7, #0]
 8100b6a:	683b      	ldr	r3, [r7, #0]
   __HAL_ART_CONFIG_BASE_ADDRESS(0x08100000UL);  /* Configure the Cortex-M4 ART Base address to the Flash Bank 2 : */
 8100b6c:	4b21      	ldr	r3, [pc, #132]	; (8100bf4 <HAL_Init+0xac>)
 8100b6e:	681b      	ldr	r3, [r3, #0]
 8100b70:	f423 237f 	bic.w	r3, r3, #1044480	; 0xff000
 8100b74:	f423 6370 	bic.w	r3, r3, #3840	; 0xf00
 8100b78:	4a1e      	ldr	r2, [pc, #120]	; (8100bf4 <HAL_Init+0xac>)
 8100b7a:	f443 4301 	orr.w	r3, r3, #33024	; 0x8100
 8100b7e:	6013      	str	r3, [r2, #0]
   __HAL_ART_ENABLE();                           /* Enable the Cortex-M4 ART */
 8100b80:	4b1c      	ldr	r3, [pc, #112]	; (8100bf4 <HAL_Init+0xac>)
 8100b82:	681b      	ldr	r3, [r3, #0]
 8100b84:	4a1b      	ldr	r2, [pc, #108]	; (8100bf4 <HAL_Init+0xac>)
 8100b86:	f043 0301 	orr.w	r3, r3, #1
 8100b8a:	6013      	str	r3, [r2, #0]
#endif /* DUAL_CORE &&  CORE_CM4 */

  /* Set Interrupt Group Priority */
  HAL_NVIC_SetPriorityGrouping(NVIC_PRIORITYGROUP_4);
 8100b8c:	2003      	movs	r0, #3
 8100b8e:	f000 f965 	bl	8100e5c <HAL_NVIC_SetPriorityGrouping>

  /* Update the SystemCoreClock global variable */
#if defined(RCC_D1CFGR_D1CPRE)
  common_system_clock = HAL_RCC_GetSysClockFreq() >> ((D1CorePrescTable[(RCC->D1CFGR & RCC_D1CFGR_D1CPRE)>> RCC_D1CFGR_D1CPRE_Pos]) & 0x1FU);
 8100b92:	f000 fc3f 	bl	8101414 <HAL_RCC_GetSysClockFreq>
 8100b96:	4602      	mov	r2, r0
 8100b98:	4b15      	ldr	r3, [pc, #84]	; (8100bf0 <HAL_Init+0xa8>)
 8100b9a:	699b      	ldr	r3, [r3, #24]
 8100b9c:	0a1b      	lsrs	r3, r3, #8
 8100b9e:	f003 030f 	and.w	r3, r3, #15
 8100ba2:	4915      	ldr	r1, [pc, #84]	; (8100bf8 <HAL_Init+0xb0>)
 8100ba4:	5ccb      	ldrb	r3, [r1, r3]
 8100ba6:	f003 031f 	and.w	r3, r3, #31
 8100baa:	fa22 f303 	lsr.w	r3, r2, r3
 8100bae:	607b      	str	r3, [r7, #4]
  common_system_clock = HAL_RCC_GetSysClockFreq() >> ((D1CorePrescTable[(RCC->CDCFGR1 & RCC_CDCFGR1_CDCPRE)>> RCC_CDCFGR1_CDCPRE_Pos]) & 0x1FU);
#endif

  /* Update the SystemD2Clock global variable */
#if defined(RCC_D1CFGR_HPRE)
  SystemD2Clock = (common_system_clock >> ((D1CorePrescTable[(RCC->D1CFGR & RCC_D1CFGR_HPRE)>> RCC_D1CFGR_HPRE_Pos]) & 0x1FU));
 8100bb0:	4b0f      	ldr	r3, [pc, #60]	; (8100bf0 <HAL_Init+0xa8>)
 8100bb2:	699b      	ldr	r3, [r3, #24]
 8100bb4:	f003 030f 	and.w	r3, r3, #15
 8100bb8:	4a0f      	ldr	r2, [pc, #60]	; (8100bf8 <HAL_Init+0xb0>)
 8100bba:	5cd3      	ldrb	r3, [r2, r3]
 8100bbc:	f003 031f 	and.w	r3, r3, #31
 8100bc0:	687a      	ldr	r2, [r7, #4]
 8100bc2:	fa22 f303 	lsr.w	r3, r2, r3
 8100bc6:	4a0d      	ldr	r2, [pc, #52]	; (8100bfc <HAL_Init+0xb4>)
 8100bc8:	6013      	str	r3, [r2, #0]
#else
  SystemD2Clock = (common_system_clock >> ((D1CorePrescTable[(RCC->CDCFGR1 & RCC_CDCFGR1_HPRE)>> RCC_CDCFGR1_HPRE_Pos]) & 0x1FU));
#endif

#if defined(DUAL_CORE) && defined(CORE_CM4)
  SystemCoreClock = SystemD2Clock;
 8100bca:	4b0c      	ldr	r3, [pc, #48]	; (8100bfc <HAL_Init+0xb4>)
 8100bcc:	681b      	ldr	r3, [r3, #0]
 8100bce:	4a0c      	ldr	r2, [pc, #48]	; (8100c00 <HAL_Init+0xb8>)
 8100bd0:	6013      	str	r3, [r2, #0]
#else
  SystemCoreClock = common_system_clock;
#endif /* DUAL_CORE && CORE_CM4 */

  /* Use systick as time base source and configure 1ms tick (default clock after Reset is HSI) */
  if(HAL_InitTick(TICK_INT_PRIORITY) != HAL_OK)
 8100bd2:	2000      	movs	r0, #0
 8100bd4:	f000 f816 	bl	8100c04 <HAL_InitTick>
 8100bd8:	4603      	mov	r3, r0
 8100bda:	2b00      	cmp	r3, #0
 8100bdc:	d001      	beq.n	8100be2 <HAL_Init+0x9a>
  {
    return HAL_ERROR;
 8100bde:	2301      	movs	r3, #1
 8100be0:	e002      	b.n	8100be8 <HAL_Init+0xa0>
  }

  /* Init the low level hardware */
  HAL_MspInit();
 8100be2:	f7ff ff43 	bl	8100a6c <HAL_MspInit>

  /* Return function status */
  return HAL_OK;
 8100be6:	2300      	movs	r3, #0
}
 8100be8:	4618      	mov	r0, r3
 8100bea:	3708      	adds	r7, #8
 8100bec:	46bd      	mov	sp, r7
 8100bee:	bd80      	pop	{r7, pc}
 8100bf0:	58024400 	.word	0x58024400
 8100bf4:	40024400 	.word	0x40024400
 8100bf8:	08102460 	.word	0x08102460
 8100bfc:	10000004 	.word	0x10000004
 8100c00:	10000000 	.word	0x10000000

08100c04 <HAL_InitTick>:
  *       implementation  in user file.
  * @param TickPriority: Tick interrupt priority.
  * @retval HAL status
  */
__weak HAL_StatusTypeDef HAL_InitTick(uint32_t TickPriority)
{
 8100c04:	b580      	push	{r7, lr}
 8100c06:	b082      	sub	sp, #8
 8100c08:	af00      	add	r7, sp, #0
 8100c0a:	6078      	str	r0, [r7, #4]
  /* Check uwTickFreq for MisraC 2012 (even if uwTickFreq is a enum type that don't take the value zero)*/
  if((uint32_t)uwTickFreq == 0UL)
 8100c0c:	4b15      	ldr	r3, [pc, #84]	; (8100c64 <HAL_InitTick+0x60>)
 8100c0e:	781b      	ldrb	r3, [r3, #0]
 8100c10:	2b00      	cmp	r3, #0
 8100c12:	d101      	bne.n	8100c18 <HAL_InitTick+0x14>
  {
    return HAL_ERROR;
 8100c14:	2301      	movs	r3, #1
 8100c16:	e021      	b.n	8100c5c <HAL_InitTick+0x58>
  }

    /* Configure the SysTick to have interrupt in 1ms time basis*/
    if (HAL_SYSTICK_Config(SystemCoreClock / (1000UL / (uint32_t)uwTickFreq)) > 0U)
 8100c18:	4b13      	ldr	r3, [pc, #76]	; (8100c68 <HAL_InitTick+0x64>)
 8100c1a:	681a      	ldr	r2, [r3, #0]
 8100c1c:	4b11      	ldr	r3, [pc, #68]	; (8100c64 <HAL_InitTick+0x60>)
 8100c1e:	781b      	ldrb	r3, [r3, #0]
 8100c20:	4619      	mov	r1, r3
 8100c22:	f44f 737a 	mov.w	r3, #1000	; 0x3e8
 8100c26:	fbb3 f3f1 	udiv	r3, r3, r1
 8100c2a:	fbb2 f3f3 	udiv	r3, r2, r3
 8100c2e:	4618      	mov	r0, r3
 8100c30:	f000 f939 	bl	8100ea6 <HAL_SYSTICK_Config>
 8100c34:	4603      	mov	r3, r0
 8100c36:	2b00      	cmp	r3, #0
 8100c38:	d001      	beq.n	8100c3e <HAL_InitTick+0x3a>
    {
      return HAL_ERROR;
 8100c3a:	2301      	movs	r3, #1
 8100c3c:	e00e      	b.n	8100c5c <HAL_InitTick+0x58>
    }

  /* Configure the SysTick IRQ priority */
  if (TickPriority < (1UL << __NVIC_PRIO_BITS))
 8100c3e:	687b      	ldr	r3, [r7, #4]
 8100c40:	2b0f      	cmp	r3, #15
 8100c42:	d80a      	bhi.n	8100c5a <HAL_InitTick+0x56>
  {
    HAL_NVIC_SetPriority(SysTick_IRQn, TickPriority, 0U);
 8100c44:	2200      	movs	r2, #0
 8100c46:	6879      	ldr	r1, [r7, #4]
 8100c48:	f04f 30ff 	mov.w	r0, #4294967295
 8100c4c:	f000 f911 	bl	8100e72 <HAL_NVIC_SetPriority>
    uwTickPrio = TickPriority;
 8100c50:	4a06      	ldr	r2, [pc, #24]	; (8100c6c <HAL_InitTick+0x68>)
 8100c52:	687b      	ldr	r3, [r7, #4]
 8100c54:	6013      	str	r3, [r2, #0]
  {
    return HAL_ERROR;
  }

  /* Return function status */
  return HAL_OK;
 8100c56:	2300      	movs	r3, #0
 8100c58:	e000      	b.n	8100c5c <HAL_InitTick+0x58>
    return HAL_ERROR;
 8100c5a:	2301      	movs	r3, #1
}
 8100c5c:	4618      	mov	r0, r3
 8100c5e:	3708      	adds	r7, #8
 8100c60:	46bd      	mov	sp, r7
 8100c62:	bd80      	pop	{r7, pc}
 8100c64:	1000000c 	.word	0x1000000c
 8100c68:	10000000 	.word	0x10000000
 8100c6c:	10000008 	.word	0x10000008

08100c70 <HAL_IncTick>:
 * @note This function is declared as __weak to be overwritten in case of other
  *      implementations in user file.
  * @retval None
  */
__weak void HAL_IncTick(void)
{
 8100c70:	b480      	push	{r7}
 8100c72:	af00      	add	r7, sp, #0
  uwTick += (uint32_t)uwTickFreq;
 8100c74:	4b06      	ldr	r3, [pc, #24]	; (8100c90 <HAL_IncTick+0x20>)
 8100c76:	781b      	ldrb	r3, [r3, #0]
 8100c78:	461a      	mov	r2, r3
 8100c7a:	4b06      	ldr	r3, [pc, #24]	; (8100c94 <HAL_IncTick+0x24>)
 8100c7c:	681b      	ldr	r3, [r3, #0]
 8100c7e:	4413      	add	r3, r2
 8100c80:	4a04      	ldr	r2, [pc, #16]	; (8100c94 <HAL_IncTick+0x24>)
 8100c82:	6013      	str	r3, [r2, #0]
}
 8100c84:	bf00      	nop
 8100c86:	46bd      	mov	sp, r7
 8100c88:	f85d 7b04 	ldr.w	r7, [sp], #4
 8100c8c:	4770      	bx	lr
 8100c8e:	bf00      	nop
 8100c90:	1000000c 	.word	0x1000000c
 8100c94:	10000120 	.word	0x10000120

08100c98 <HAL_GetTick>:
  * @note This function is declared as __weak to be overwritten in case of other
  *       implementations in user file.
  * @retval tick value
  */
__weak uint32_t HAL_GetTick(void)
{
 8100c98:	b480      	push	{r7}
 8100c9a:	af00      	add	r7, sp, #0
  return uwTick;
 8100c9c:	4b03      	ldr	r3, [pc, #12]	; (8100cac <HAL_GetTick+0x14>)
 8100c9e:	681b      	ldr	r3, [r3, #0]
}
 8100ca0:	4618      	mov	r0, r3
 8100ca2:	46bd      	mov	sp, r7
 8100ca4:	f85d 7b04 	ldr.w	r7, [sp], #4
 8100ca8:	4770      	bx	lr
 8100caa:	bf00      	nop
 8100cac:	10000120 	.word	0x10000120

08100cb0 <HAL_Delay>:
  *       implementations in user file.
  * @param Delay  specifies the delay time length, in milliseconds.
  * @retval None
  */
__weak void HAL_Delay(uint32_t Delay)
{
 8100cb0:	b580      	push	{r7, lr}
 8100cb2:	b084      	sub	sp, #16
 8100cb4:	af00      	add	r7, sp, #0
 8100cb6:	6078      	str	r0, [r7, #4]
  uint32_t tickstart = HAL_GetTick();
 8100cb8:	f7ff ffee 	bl	8100c98 <HAL_GetTick>
 8100cbc:	60b8      	str	r0, [r7, #8]
  uint32_t wait = Delay;
 8100cbe:	687b      	ldr	r3, [r7, #4]
 8100cc0:	60fb      	str	r3, [r7, #12]

  /* Add a freq to guarantee minimum wait */
  if (wait < HAL_MAX_DELAY)
 8100cc2:	68fb      	ldr	r3, [r7, #12]
 8100cc4:	f1b3 3fff 	cmp.w	r3, #4294967295
 8100cc8:	d005      	beq.n	8100cd6 <HAL_Delay+0x26>
  {
    wait += (uint32_t)(uwTickFreq);
 8100cca:	4b0a      	ldr	r3, [pc, #40]	; (8100cf4 <HAL_Delay+0x44>)
 8100ccc:	781b      	ldrb	r3, [r3, #0]
 8100cce:	461a      	mov	r2, r3
 8100cd0:	68fb      	ldr	r3, [r7, #12]
 8100cd2:	4413      	add	r3, r2
 8100cd4:	60fb      	str	r3, [r7, #12]
  }

  while ((HAL_GetTick() - tickstart) < wait)
 8100cd6:	bf00      	nop
 8100cd8:	f7ff ffde 	bl	8100c98 <HAL_GetTick>
 8100cdc:	4602      	mov	r2, r0
 8100cde:	68bb      	ldr	r3, [r7, #8]
 8100ce0:	1ad3      	subs	r3, r2, r3
 8100ce2:	68fa      	ldr	r2, [r7, #12]
 8100ce4:	429a      	cmp	r2, r3
 8100ce6:	d8f7      	bhi.n	8100cd8 <HAL_Delay+0x28>
  {
  }
}
 8100ce8:	bf00      	nop
 8100cea:	bf00      	nop
 8100cec:	3710      	adds	r7, #16
 8100cee:	46bd      	mov	sp, r7
 8100cf0:	bd80      	pop	{r7, pc}
 8100cf2:	bf00      	nop
 8100cf4:	1000000c 	.word	0x1000000c

08100cf8 <__NVIC_SetPriorityGrouping>:
           In case of a conflict between priority grouping and available
           priority bits (__NVIC_PRIO_BITS), the smallest possible priority group is set.
  \param [in]      PriorityGroup  Priority grouping field.
 */
__STATIC_INLINE void __NVIC_SetPriorityGrouping(uint32_t PriorityGroup)
{
 8100cf8:	b480      	push	{r7}
 8100cfa:	b085      	sub	sp, #20
 8100cfc:	af00      	add	r7, sp, #0
 8100cfe:	6078      	str	r0, [r7, #4]
  uint32_t reg_value;
  uint32_t PriorityGroupTmp = (PriorityGroup & (uint32_t)0x07UL);             /* only values 0..7 are used          */
 8100d00:	687b      	ldr	r3, [r7, #4]
 8100d02:	f003 0307 	and.w	r3, r3, #7
 8100d06:	60fb      	str	r3, [r7, #12]

  reg_value  =  SCB->AIRCR;                                                   /* read old register configuration    */
 8100d08:	4b0c      	ldr	r3, [pc, #48]	; (8100d3c <__NVIC_SetPriorityGrouping+0x44>)
 8100d0a:	68db      	ldr	r3, [r3, #12]
 8100d0c:	60bb      	str	r3, [r7, #8]
  reg_value &= ~((uint32_t)(SCB_AIRCR_VECTKEY_Msk | SCB_AIRCR_PRIGROUP_Msk)); /* clear bits to change               */
 8100d0e:	68ba      	ldr	r2, [r7, #8]
 8100d10:	f64f 03ff 	movw	r3, #63743	; 0xf8ff
 8100d14:	4013      	ands	r3, r2
 8100d16:	60bb      	str	r3, [r7, #8]
  reg_value  =  (reg_value                                   |
                ((uint32_t)0x5FAUL << SCB_AIRCR_VECTKEY_Pos) |
                (PriorityGroupTmp << SCB_AIRCR_PRIGROUP_Pos)  );              /* Insert write key and priority group */
 8100d18:	68fb      	ldr	r3, [r7, #12]
 8100d1a:	021a      	lsls	r2, r3, #8
                ((uint32_t)0x5FAUL << SCB_AIRCR_VECTKEY_Pos) |
 8100d1c:	68bb      	ldr	r3, [r7, #8]
 8100d1e:	4313      	orrs	r3, r2
  reg_value  =  (reg_value                                   |
 8100d20:	f043 63bf 	orr.w	r3, r3, #100139008	; 0x5f80000
 8100d24:	f443 3300 	orr.w	r3, r3, #131072	; 0x20000
 8100d28:	60bb      	str	r3, [r7, #8]
  SCB->AIRCR =  reg_value;
 8100d2a:	4a04      	ldr	r2, [pc, #16]	; (8100d3c <__NVIC_SetPriorityGrouping+0x44>)
 8100d2c:	68bb      	ldr	r3, [r7, #8]
 8100d2e:	60d3      	str	r3, [r2, #12]
}
 8100d30:	bf00      	nop
 8100d32:	3714      	adds	r7, #20
 8100d34:	46bd      	mov	sp, r7
 8100d36:	f85d 7b04 	ldr.w	r7, [sp], #4
 8100d3a:	4770      	bx	lr
 8100d3c:	e000ed00 	.word	0xe000ed00

08100d40 <__NVIC_GetPriorityGrouping>:
  \brief   Get Priority Grouping
  \details Reads the priority grouping field from the NVIC Interrupt Controller.
  \return                Priority grouping field (SCB->AIRCR [10:8] PRIGROUP field).
 */
__STATIC_INLINE uint32_t __NVIC_GetPriorityGrouping(void)
{
 8100d40:	b480      	push	{r7}
 8100d42:	af00      	add	r7, sp, #0
  return ((uint32_t)((SCB->AIRCR & SCB_AIRCR_PRIGROUP_Msk) >> SCB_AIRCR_PRIGROUP_Pos));
 8100d44:	4b04      	ldr	r3, [pc, #16]	; (8100d58 <__NVIC_GetPriorityGrouping+0x18>)
 8100d46:	68db      	ldr	r3, [r3, #12]
 8100d48:	0a1b      	lsrs	r3, r3, #8
 8100d4a:	f003 0307 	and.w	r3, r3, #7
}
 8100d4e:	4618      	mov	r0, r3
 8100d50:	46bd      	mov	sp, r7
 8100d52:	f85d 7b04 	ldr.w	r7, [sp], #4
 8100d56:	4770      	bx	lr
 8100d58:	e000ed00 	.word	0xe000ed00

08100d5c <__NVIC_SetPriority>:
  \param [in]      IRQn  Interrupt number.
  \param [in]  priority  Priority to set.
  \note    The priority cannot be set for every processor exception.
 */
__STATIC_INLINE void __NVIC_SetPriority(IRQn_Type IRQn, uint32_t priority)
{
 8100d5c:	b480      	push	{r7}
 8100d5e:	b083      	sub	sp, #12
 8100d60:	af00      	add	r7, sp, #0
 8100d62:	4603      	mov	r3, r0
 8100d64:	6039      	str	r1, [r7, #0]
 8100d66:	80fb      	strh	r3, [r7, #6]
  if ((int32_t)(IRQn) >= 0)
 8100d68:	f9b7 3006 	ldrsh.w	r3, [r7, #6]
 8100d6c:	2b00      	cmp	r3, #0
 8100d6e:	db0a      	blt.n	8100d86 <__NVIC_SetPriority+0x2a>
  {
    NVIC->IP[((uint32_t)IRQn)]               = (uint8_t)((priority << (8U - __NVIC_PRIO_BITS)) & (uint32_t)0xFFUL);
 8100d70:	683b      	ldr	r3, [r7, #0]
 8100d72:	b2da      	uxtb	r2, r3
 8100d74:	490c      	ldr	r1, [pc, #48]	; (8100da8 <__NVIC_SetPriority+0x4c>)
 8100d76:	f9b7 3006 	ldrsh.w	r3, [r7, #6]
 8100d7a:	0112      	lsls	r2, r2, #4
 8100d7c:	b2d2      	uxtb	r2, r2
 8100d7e:	440b      	add	r3, r1
 8100d80:	f883 2300 	strb.w	r2, [r3, #768]	; 0x300
  }
  else
  {
    SCB->SHP[(((uint32_t)IRQn) & 0xFUL)-4UL] = (uint8_t)((priority << (8U - __NVIC_PRIO_BITS)) & (uint32_t)0xFFUL);
  }
}
 8100d84:	e00a      	b.n	8100d9c <__NVIC_SetPriority+0x40>
    SCB->SHP[(((uint32_t)IRQn) & 0xFUL)-4UL] = (uint8_t)((priority << (8U - __NVIC_PRIO_BITS)) & (uint32_t)0xFFUL);
 8100d86:	683b      	ldr	r3, [r7, #0]
 8100d88:	b2da      	uxtb	r2, r3
 8100d8a:	4908      	ldr	r1, [pc, #32]	; (8100dac <__NVIC_SetPriority+0x50>)
 8100d8c:	88fb      	ldrh	r3, [r7, #6]
 8100d8e:	f003 030f 	and.w	r3, r3, #15
 8100d92:	3b04      	subs	r3, #4
 8100d94:	0112      	lsls	r2, r2, #4
 8100d96:	b2d2      	uxtb	r2, r2
 8100d98:	440b      	add	r3, r1
 8100d9a:	761a      	strb	r2, [r3, #24]
}
 8100d9c:	bf00      	nop
 8100d9e:	370c      	adds	r7, #12
 8100da0:	46bd      	mov	sp, r7
 8100da2:	f85d 7b04 	ldr.w	r7, [sp], #4
 8100da6:	4770      	bx	lr
 8100da8:	e000e100 	.word	0xe000e100
 8100dac:	e000ed00 	.word	0xe000ed00

08100db0 <NVIC_EncodePriority>:
  \param [in]   PreemptPriority  Preemptive priority value (starting from 0).
  \param [in]       SubPriority  Subpriority value (starting from 0).
  \return                        Encoded priority. Value can be used in the function \ref NVIC_SetPriority().
 */
__STATIC_INLINE uint32_t NVIC_EncodePriority (uint32_t PriorityGroup, uint32_t PreemptPriority, uint32_t SubPriority)
{
 8100db0:	b480      	push	{r7}
 8100db2:	b089      	sub	sp, #36	; 0x24
 8100db4:	af00      	add	r7, sp, #0
 8100db6:	60f8      	str	r0, [r7, #12]
 8100db8:	60b9      	str	r1, [r7, #8]
 8100dba:	607a      	str	r2, [r7, #4]
  uint32_t PriorityGroupTmp = (PriorityGroup & (uint32_t)0x07UL);   /* only values 0..7 are used          */
 8100dbc:	68fb      	ldr	r3, [r7, #12]
 8100dbe:	f003 0307 	and.w	r3, r3, #7
 8100dc2:	61fb      	str	r3, [r7, #28]
  uint32_t PreemptPriorityBits;
  uint32_t SubPriorityBits;

  PreemptPriorityBits = ((7UL - PriorityGroupTmp) > (uint32_t)(__NVIC_PRIO_BITS)) ? (uint32_t)(__NVIC_PRIO_BITS) : (uint32_t)(7UL - PriorityGroupTmp);
 8100dc4:	69fb      	ldr	r3, [r7, #28]
 8100dc6:	f1c3 0307 	rsb	r3, r3, #7
 8100dca:	2b04      	cmp	r3, #4
 8100dcc:	bf28      	it	cs
 8100dce:	2304      	movcs	r3, #4
 8100dd0:	61bb      	str	r3, [r7, #24]
  SubPriorityBits     = ((PriorityGroupTmp + (uint32_t)(__NVIC_PRIO_BITS)) < (uint32_t)7UL) ? (uint32_t)0UL : (uint32_t)((PriorityGroupTmp - 7UL) + (uint32_t)(__NVIC_PRIO_BITS));
 8100dd2:	69fb      	ldr	r3, [r7, #28]
 8100dd4:	3304      	adds	r3, #4
 8100dd6:	2b06      	cmp	r3, #6
 8100dd8:	d902      	bls.n	8100de0 <NVIC_EncodePriority+0x30>
 8100dda:	69fb      	ldr	r3, [r7, #28]
 8100ddc:	3b03      	subs	r3, #3
 8100dde:	e000      	b.n	8100de2 <NVIC_EncodePriority+0x32>
 8100de0:	2300      	movs	r3, #0
 8100de2:	617b      	str	r3, [r7, #20]

  return (
           ((PreemptPriority & (uint32_t)((1UL << (PreemptPriorityBits)) - 1UL)) << SubPriorityBits) |
 8100de4:	f04f 32ff 	mov.w	r2, #4294967295
 8100de8:	69bb      	ldr	r3, [r7, #24]
 8100dea:	fa02 f303 	lsl.w	r3, r2, r3
 8100dee:	43da      	mvns	r2, r3
 8100df0:	68bb      	ldr	r3, [r7, #8]
 8100df2:	401a      	ands	r2, r3
 8100df4:	697b      	ldr	r3, [r7, #20]
 8100df6:	409a      	lsls	r2, r3
           ((SubPriority     & (uint32_t)((1UL << (SubPriorityBits    )) - 1UL)))
 8100df8:	f04f 31ff 	mov.w	r1, #4294967295
 8100dfc:	697b      	ldr	r3, [r7, #20]
 8100dfe:	fa01 f303 	lsl.w	r3, r1, r3
 8100e02:	43d9      	mvns	r1, r3
 8100e04:	687b      	ldr	r3, [r7, #4]
 8100e06:	400b      	ands	r3, r1
           ((PreemptPriority & (uint32_t)((1UL << (PreemptPriorityBits)) - 1UL)) << SubPriorityBits) |
 8100e08:	4313      	orrs	r3, r2
         );
}
 8100e0a:	4618      	mov	r0, r3
 8100e0c:	3724      	adds	r7, #36	; 0x24
 8100e0e:	46bd      	mov	sp, r7
 8100e10:	f85d 7b04 	ldr.w	r7, [sp], #4
 8100e14:	4770      	bx	lr
	...

08100e18 <SysTick_Config>:
  \note    When the variable <b>__Vendor_SysTickConfig</b> is set to 1, then the
           function <b>SysTick_Config</b> is not included. In this case, the file <b><i>device</i>.h</b>
           must contain a vendor-specific implementation of this function.
 */
__STATIC_INLINE uint32_t SysTick_Config(uint32_t ticks)
{
 8100e18:	b580      	push	{r7, lr}
 8100e1a:	b082      	sub	sp, #8
 8100e1c:	af00      	add	r7, sp, #0
 8100e1e:	6078      	str	r0, [r7, #4]
  if ((ticks - 1UL) > SysTick_LOAD_RELOAD_Msk)
 8100e20:	687b      	ldr	r3, [r7, #4]
 8100e22:	3b01      	subs	r3, #1
 8100e24:	f1b3 7f80 	cmp.w	r3, #16777216	; 0x1000000
 8100e28:	d301      	bcc.n	8100e2e <SysTick_Config+0x16>
  {
    return (1UL);                                                   /* Reload value impossible */
 8100e2a:	2301      	movs	r3, #1
 8100e2c:	e00f      	b.n	8100e4e <SysTick_Config+0x36>
  }

  SysTick->LOAD  = (uint32_t)(ticks - 1UL);                         /* set reload register */
 8100e2e:	4a0a      	ldr	r2, [pc, #40]	; (8100e58 <SysTick_Config+0x40>)
 8100e30:	687b      	ldr	r3, [r7, #4]
 8100e32:	3b01      	subs	r3, #1
 8100e34:	6053      	str	r3, [r2, #4]
  NVIC_SetPriority (SysTick_IRQn, (1UL << __NVIC_PRIO_BITS) - 1UL); /* set Priority for Systick Interrupt */
 8100e36:	210f      	movs	r1, #15
 8100e38:	f04f 30ff 	mov.w	r0, #4294967295
 8100e3c:	f7ff ff8e 	bl	8100d5c <__NVIC_SetPriority>
  SysTick->VAL   = 0UL;                                             /* Load the SysTick Counter Value */
 8100e40:	4b05      	ldr	r3, [pc, #20]	; (8100e58 <SysTick_Config+0x40>)
 8100e42:	2200      	movs	r2, #0
 8100e44:	609a      	str	r2, [r3, #8]
  SysTick->CTRL  = SysTick_CTRL_CLKSOURCE_Msk |
 8100e46:	4b04      	ldr	r3, [pc, #16]	; (8100e58 <SysTick_Config+0x40>)
 8100e48:	2207      	movs	r2, #7
 8100e4a:	601a      	str	r2, [r3, #0]
                   SysTick_CTRL_TICKINT_Msk   |
                   SysTick_CTRL_ENABLE_Msk;                         /* Enable SysTick IRQ and SysTick Timer */
  return (0UL);                                                     /* Function successful */
 8100e4c:	2300      	movs	r3, #0
}
 8100e4e:	4618      	mov	r0, r3
 8100e50:	3708      	adds	r7, #8
 8100e52:	46bd      	mov	sp, r7
 8100e54:	bd80      	pop	{r7, pc}
 8100e56:	bf00      	nop
 8100e58:	e000e010 	.word	0xe000e010

08100e5c <HAL_NVIC_SetPriorityGrouping>:
  * @note   When the NVIC_PriorityGroup_0 is selected, IRQ preemption is no more possible.
  *         The pending IRQ priority will be managed only by the subpriority.
  * @retval None
  */
void HAL_NVIC_SetPriorityGrouping(uint32_t PriorityGroup)
{
 8100e5c:	b580      	push	{r7, lr}
 8100e5e:	b082      	sub	sp, #8
 8100e60:	af00      	add	r7, sp, #0
 8100e62:	6078      	str	r0, [r7, #4]
  /* Check the parameters */
  assert_param(IS_NVIC_PRIORITY_GROUP(PriorityGroup));

  /* Set the PRIGROUP[10:8] bits according to the PriorityGroup parameter value */
  NVIC_SetPriorityGrouping(PriorityGroup);
 8100e64:	6878      	ldr	r0, [r7, #4]
 8100e66:	f7ff ff47 	bl	8100cf8 <__NVIC_SetPriorityGrouping>
}
 8100e6a:	bf00      	nop
 8100e6c:	3708      	adds	r7, #8
 8100e6e:	46bd      	mov	sp, r7
 8100e70:	bd80      	pop	{r7, pc}

08100e72 <HAL_NVIC_SetPriority>:
  *         This parameter can be a value between 0 and 15
  *         A lower priority value indicates a higher priority.
  * @retval None
  */
void HAL_NVIC_SetPriority(IRQn_Type IRQn, uint32_t PreemptPriority, uint32_t SubPriority)
{
 8100e72:	b580      	push	{r7, lr}
 8100e74:	b086      	sub	sp, #24
 8100e76:	af00      	add	r7, sp, #0
 8100e78:	4603      	mov	r3, r0
 8100e7a:	60b9      	str	r1, [r7, #8]
 8100e7c:	607a      	str	r2, [r7, #4]
 8100e7e:	81fb      	strh	r3, [r7, #14]

  /* Check the parameters */
  assert_param(IS_NVIC_SUB_PRIORITY(SubPriority));
  assert_param(IS_NVIC_PREEMPTION_PRIORITY(PreemptPriority));

  prioritygroup = NVIC_GetPriorityGrouping();
 8100e80:	f7ff ff5e 	bl	8100d40 <__NVIC_GetPriorityGrouping>
 8100e84:	6178      	str	r0, [r7, #20]

  NVIC_SetPriority(IRQn, NVIC_EncodePriority(prioritygroup, PreemptPriority, SubPriority));
 8100e86:	687a      	ldr	r2, [r7, #4]
 8100e88:	68b9      	ldr	r1, [r7, #8]
 8100e8a:	6978      	ldr	r0, [r7, #20]
 8100e8c:	f7ff ff90 	bl	8100db0 <NVIC_EncodePriority>
 8100e90:	4602      	mov	r2, r0
 8100e92:	f9b7 300e 	ldrsh.w	r3, [r7, #14]
 8100e96:	4611      	mov	r1, r2
 8100e98:	4618      	mov	r0, r3
 8100e9a:	f7ff ff5f 	bl	8100d5c <__NVIC_SetPriority>
}
 8100e9e:	bf00      	nop
 8100ea0:	3718      	adds	r7, #24
 8100ea2:	46bd      	mov	sp, r7
 8100ea4:	bd80      	pop	{r7, pc}

08100ea6 <HAL_SYSTICK_Config>:
  * @param  TicksNumb Specifies the ticks Number of ticks between two interrupts.
  * @retval status   - 0  Function succeeded.
  *                  - 1  Function failed.
  */
uint32_t HAL_SYSTICK_Config(uint32_t TicksNumb)
{
 8100ea6:	b580      	push	{r7, lr}
 8100ea8:	b082      	sub	sp, #8
 8100eaa:	af00      	add	r7, sp, #0
 8100eac:	6078      	str	r0, [r7, #4]
   return SysTick_Config(TicksNumb);
 8100eae:	6878      	ldr	r0, [r7, #4]
 8100eb0:	f7ff ffb2 	bl	8100e18 <SysTick_Config>
 8100eb4:	4603      	mov	r3, r0
}
 8100eb6:	4618      	mov	r0, r3
 8100eb8:	3708      	adds	r7, #8
 8100eba:	46bd      	mov	sp, r7
 8100ebc:	bd80      	pop	{r7, pc}
	...

08100ec0 <HAL_GetCurrentCPUID>:
/**
  * @brief  Returns the current CPU ID.
  * @retval CPU identifier
  */
uint32_t HAL_GetCurrentCPUID(void)
{
 8100ec0:	b480      	push	{r7}
 8100ec2:	af00      	add	r7, sp, #0
  if (((SCB->CPUID & 0x000000F0U) >> 4 )== 0x7U)
 8100ec4:	4b07      	ldr	r3, [pc, #28]	; (8100ee4 <HAL_GetCurrentCPUID+0x24>)
 8100ec6:	681b      	ldr	r3, [r3, #0]
 8100ec8:	091b      	lsrs	r3, r3, #4
 8100eca:	f003 030f 	and.w	r3, r3, #15
 8100ece:	2b07      	cmp	r3, #7
 8100ed0:	d101      	bne.n	8100ed6 <HAL_GetCurrentCPUID+0x16>
  {
    return  CM7_CPUID;
 8100ed2:	2303      	movs	r3, #3
 8100ed4:	e000      	b.n	8100ed8 <HAL_GetCurrentCPUID+0x18>
  }
  else
  {
    return CM4_CPUID;
 8100ed6:	2301      	movs	r3, #1
  }
}
 8100ed8:	4618      	mov	r0, r3
 8100eda:	46bd      	mov	sp, r7
 8100edc:	f85d 7b04 	ldr.w	r7, [sp], #4
 8100ee0:	4770      	bx	lr
 8100ee2:	bf00      	nop
 8100ee4:	e000ed00 	.word	0xe000ed00

08100ee8 <HAL_GPIO_Init>:
  * @param  GPIO_Init: pointer to a GPIO_InitTypeDef structure that contains
  *         the configuration information for the specified GPIO peripheral.
  * @retval None
  */
void HAL_GPIO_Init(GPIO_TypeDef  *GPIOx, GPIO_InitTypeDef *GPIO_Init)
{
 8100ee8:	b480      	push	{r7}
 8100eea:	b089      	sub	sp, #36	; 0x24
 8100eec:	af00      	add	r7, sp, #0
 8100eee:	6078      	str	r0, [r7, #4]
 8100ef0:	6039      	str	r1, [r7, #0]
  uint32_t position = 0x00U;
 8100ef2:	2300      	movs	r3, #0
 8100ef4:	61fb      	str	r3, [r7, #28]
  uint32_t iocurrent;
  uint32_t temp;
  EXTI_Core_TypeDef *EXTI_CurrentCPU;

#if defined(DUAL_CORE) && defined(CORE_CM4)
  EXTI_CurrentCPU = EXTI_D2; /* EXTI for CM4 CPU */
 8100ef6:	4b89      	ldr	r3, [pc, #548]	; (810111c <HAL_GPIO_Init+0x234>)
 8100ef8:	617b      	str	r3, [r7, #20]
  assert_param(IS_GPIO_ALL_INSTANCE(GPIOx));
  assert_param(IS_GPIO_PIN(GPIO_Init->Pin));
  assert_param(IS_GPIO_MODE(GPIO_Init->Mode));

  /* Configure the port pins */
  while (((GPIO_Init->Pin) >> position) != 0x00U)
 8100efa:	e194      	b.n	8101226 <HAL_GPIO_Init+0x33e>
  {
    /* Get current io position */
    iocurrent = (GPIO_Init->Pin) & (1UL << position);
 8100efc:	683b      	ldr	r3, [r7, #0]
 8100efe:	681a      	ldr	r2, [r3, #0]
 8100f00:	2101      	movs	r1, #1
 8100f02:	69fb      	ldr	r3, [r7, #28]
 8100f04:	fa01 f303 	lsl.w	r3, r1, r3
 8100f08:	4013      	ands	r3, r2
 8100f0a:	613b      	str	r3, [r7, #16]

    if (iocurrent != 0x00U)
 8100f0c:	693b      	ldr	r3, [r7, #16]
 8100f0e:	2b00      	cmp	r3, #0
 8100f10:	f000 8186 	beq.w	8101220 <HAL_GPIO_Init+0x338>
    {
      /*--------------------- GPIO Mode Configuration ------------------------*/
      /* In case of Output or Alternate function mode selection */
      if (((GPIO_Init->Mode & GPIO_MODE) == MODE_OUTPUT) || ((GPIO_Init->Mode & GPIO_MODE) == MODE_AF))
 8100f14:	683b      	ldr	r3, [r7, #0]
 8100f16:	685b      	ldr	r3, [r3, #4]
 8100f18:	f003 0303 	and.w	r3, r3, #3
 8100f1c:	2b01      	cmp	r3, #1
 8100f1e:	d005      	beq.n	8100f2c <HAL_GPIO_Init+0x44>
 8100f20:	683b      	ldr	r3, [r7, #0]
 8100f22:	685b      	ldr	r3, [r3, #4]
 8100f24:	f003 0303 	and.w	r3, r3, #3
 8100f28:	2b02      	cmp	r3, #2
 8100f2a:	d130      	bne.n	8100f8e <HAL_GPIO_Init+0xa6>
      {
        /* Check the Speed parameter */
        assert_param(IS_GPIO_SPEED(GPIO_Init->Speed));

        /* Configure the IO Speed */
        temp = GPIOx->OSPEEDR;
 8100f2c:	687b      	ldr	r3, [r7, #4]
 8100f2e:	689b      	ldr	r3, [r3, #8]
 8100f30:	61bb      	str	r3, [r7, #24]
        temp &= ~(GPIO_OSPEEDR_OSPEED0 << (position * 2U));
 8100f32:	69fb      	ldr	r3, [r7, #28]
 8100f34:	005b      	lsls	r3, r3, #1
 8100f36:	2203      	movs	r2, #3
 8100f38:	fa02 f303 	lsl.w	r3, r2, r3
 8100f3c:	43db      	mvns	r3, r3
 8100f3e:	69ba      	ldr	r2, [r7, #24]
 8100f40:	4013      	ands	r3, r2
 8100f42:	61bb      	str	r3, [r7, #24]
        temp |= (GPIO_Init->Speed << (position * 2U));
 8100f44:	683b      	ldr	r3, [r7, #0]
 8100f46:	68da      	ldr	r2, [r3, #12]
 8100f48:	69fb      	ldr	r3, [r7, #28]
 8100f4a:	005b      	lsls	r3, r3, #1
 8100f4c:	fa02 f303 	lsl.w	r3, r2, r3
 8100f50:	69ba      	ldr	r2, [r7, #24]
 8100f52:	4313      	orrs	r3, r2
 8100f54:	61bb      	str	r3, [r7, #24]
        GPIOx->OSPEEDR = temp;
 8100f56:	687b      	ldr	r3, [r7, #4]
 8100f58:	69ba      	ldr	r2, [r7, #24]
 8100f5a:	609a      	str	r2, [r3, #8]

        /* Configure the IO Output Type */
        temp = GPIOx->OTYPER;
 8100f5c:	687b      	ldr	r3, [r7, #4]
 8100f5e:	685b      	ldr	r3, [r3, #4]
 8100f60:	61bb      	str	r3, [r7, #24]
        temp &= ~(GPIO_OTYPER_OT0 << position) ;
 8100f62:	2201      	movs	r2, #1
 8100f64:	69fb      	ldr	r3, [r7, #28]
 8100f66:	fa02 f303 	lsl.w	r3, r2, r3
 8100f6a:	43db      	mvns	r3, r3
 8100f6c:	69ba      	ldr	r2, [r7, #24]
 8100f6e:	4013      	ands	r3, r2
 8100f70:	61bb      	str	r3, [r7, #24]
        temp |= (((GPIO_Init->Mode & OUTPUT_TYPE) >> OUTPUT_TYPE_Pos) << position);
 8100f72:	683b      	ldr	r3, [r7, #0]
 8100f74:	685b      	ldr	r3, [r3, #4]
 8100f76:	091b      	lsrs	r3, r3, #4
 8100f78:	f003 0201 	and.w	r2, r3, #1
 8100f7c:	69fb      	ldr	r3, [r7, #28]
 8100f7e:	fa02 f303 	lsl.w	r3, r2, r3
 8100f82:	69ba      	ldr	r2, [r7, #24]
 8100f84:	4313      	orrs	r3, r2
 8100f86:	61bb      	str	r3, [r7, #24]
        GPIOx->OTYPER = temp;
 8100f88:	687b      	ldr	r3, [r7, #4]
 8100f8a:	69ba      	ldr	r2, [r7, #24]
 8100f8c:	605a      	str	r2, [r3, #4]
      }

      if ((GPIO_Init->Mode & GPIO_MODE) != MODE_ANALOG)
 8100f8e:	683b      	ldr	r3, [r7, #0]
 8100f90:	685b      	ldr	r3, [r3, #4]
 8100f92:	f003 0303 	and.w	r3, r3, #3
 8100f96:	2b03      	cmp	r3, #3
 8100f98:	d017      	beq.n	8100fca <HAL_GPIO_Init+0xe2>
      {
       /* Check the Pull parameter */
       assert_param(IS_GPIO_PULL(GPIO_Init->Pull));

      /* Activate the Pull-up or Pull down resistor for the current IO */
      temp = GPIOx->PUPDR;
 8100f9a:	687b      	ldr	r3, [r7, #4]
 8100f9c:	68db      	ldr	r3, [r3, #12]
 8100f9e:	61bb      	str	r3, [r7, #24]
      temp &= ~(GPIO_PUPDR_PUPD0 << (position * 2U));
 8100fa0:	69fb      	ldr	r3, [r7, #28]
 8100fa2:	005b      	lsls	r3, r3, #1
 8100fa4:	2203      	movs	r2, #3
 8100fa6:	fa02 f303 	lsl.w	r3, r2, r3
 8100faa:	43db      	mvns	r3, r3
 8100fac:	69ba      	ldr	r2, [r7, #24]
 8100fae:	4013      	ands	r3, r2
 8100fb0:	61bb      	str	r3, [r7, #24]
      temp |= ((GPIO_Init->Pull) << (position * 2U));
 8100fb2:	683b      	ldr	r3, [r7, #0]
 8100fb4:	689a      	ldr	r2, [r3, #8]
 8100fb6:	69fb      	ldr	r3, [r7, #28]
 8100fb8:	005b      	lsls	r3, r3, #1
 8100fba:	fa02 f303 	lsl.w	r3, r2, r3
 8100fbe:	69ba      	ldr	r2, [r7, #24]
 8100fc0:	4313      	orrs	r3, r2
 8100fc2:	61bb      	str	r3, [r7, #24]
      GPIOx->PUPDR = temp;
 8100fc4:	687b      	ldr	r3, [r7, #4]
 8100fc6:	69ba      	ldr	r2, [r7, #24]
 8100fc8:	60da      	str	r2, [r3, #12]
      }

      /* In case of Alternate function mode selection */
      if ((GPIO_Init->Mode & GPIO_MODE) == MODE_AF)
 8100fca:	683b      	ldr	r3, [r7, #0]
 8100fcc:	685b      	ldr	r3, [r3, #4]
 8100fce:	f003 0303 	and.w	r3, r3, #3
 8100fd2:	2b02      	cmp	r3, #2
 8100fd4:	d123      	bne.n	810101e <HAL_GPIO_Init+0x136>
        /* Check the Alternate function parameters */
        assert_param(IS_GPIO_AF_INSTANCE(GPIOx));
        assert_param(IS_GPIO_AF(GPIO_Init->Alternate));

        /* Configure Alternate function mapped with the current IO */
        temp = GPIOx->AFR[position >> 3U];
 8100fd6:	69fb      	ldr	r3, [r7, #28]
 8100fd8:	08da      	lsrs	r2, r3, #3
 8100fda:	687b      	ldr	r3, [r7, #4]
 8100fdc:	3208      	adds	r2, #8
 8100fde:	f853 3022 	ldr.w	r3, [r3, r2, lsl #2]
 8100fe2:	61bb      	str	r3, [r7, #24]
        temp &= ~(0xFU << ((position & 0x07U) * 4U));
 8100fe4:	69fb      	ldr	r3, [r7, #28]
 8100fe6:	f003 0307 	and.w	r3, r3, #7
 8100fea:	009b      	lsls	r3, r3, #2
 8100fec:	220f      	movs	r2, #15
 8100fee:	fa02 f303 	lsl.w	r3, r2, r3
 8100ff2:	43db      	mvns	r3, r3
 8100ff4:	69ba      	ldr	r2, [r7, #24]
 8100ff6:	4013      	ands	r3, r2
 8100ff8:	61bb      	str	r3, [r7, #24]
        temp |= ((GPIO_Init->Alternate) << ((position & 0x07U) * 4U));
 8100ffa:	683b      	ldr	r3, [r7, #0]
 8100ffc:	691a      	ldr	r2, [r3, #16]
 8100ffe:	69fb      	ldr	r3, [r7, #28]
 8101000:	f003 0307 	and.w	r3, r3, #7
 8101004:	009b      	lsls	r3, r3, #2
 8101006:	fa02 f303 	lsl.w	r3, r2, r3
 810100a:	69ba      	ldr	r2, [r7, #24]
 810100c:	4313      	orrs	r3, r2
 810100e:	61bb      	str	r3, [r7, #24]
        GPIOx->AFR[position >> 3U] = temp;
 8101010:	69fb      	ldr	r3, [r7, #28]
 8101012:	08da      	lsrs	r2, r3, #3
 8101014:	687b      	ldr	r3, [r7, #4]
 8101016:	3208      	adds	r2, #8
 8101018:	69b9      	ldr	r1, [r7, #24]
 810101a:	f843 1022 	str.w	r1, [r3, r2, lsl #2]
      }

      /* Configure IO Direction mode (Input, Output, Alternate or Analog) */
      temp = GPIOx->MODER;
 810101e:	687b      	ldr	r3, [r7, #4]
 8101020:	681b      	ldr	r3, [r3, #0]
 8101022:	61bb      	str	r3, [r7, #24]
      temp &= ~(GPIO_MODER_MODE0 << (position * 2U));
 8101024:	69fb      	ldr	r3, [r7, #28]
 8101026:	005b      	lsls	r3, r3, #1
 8101028:	2203      	movs	r2, #3
 810102a:	fa02 f303 	lsl.w	r3, r2, r3
 810102e:	43db      	mvns	r3, r3
 8101030:	69ba      	ldr	r2, [r7, #24]
 8101032:	4013      	ands	r3, r2
 8101034:	61bb      	str	r3, [r7, #24]
      temp |= ((GPIO_Init->Mode & GPIO_MODE) << (position * 2U));
 8101036:	683b      	ldr	r3, [r7, #0]
 8101038:	685b      	ldr	r3, [r3, #4]
 810103a:	f003 0203 	and.w	r2, r3, #3
 810103e:	69fb      	ldr	r3, [r7, #28]
 8101040:	005b      	lsls	r3, r3, #1
 8101042:	fa02 f303 	lsl.w	r3, r2, r3
 8101046:	69ba      	ldr	r2, [r7, #24]
 8101048:	4313      	orrs	r3, r2
 810104a:	61bb      	str	r3, [r7, #24]
      GPIOx->MODER = temp;
 810104c:	687b      	ldr	r3, [r7, #4]
 810104e:	69ba      	ldr	r2, [r7, #24]
 8101050:	601a      	str	r2, [r3, #0]

      /*--------------------- EXTI Mode Configuration ------------------------*/
      /* Configure the External Interrupt or event for the current IO */
      if ((GPIO_Init->Mode & EXTI_MODE) != 0x00U)
 8101052:	683b      	ldr	r3, [r7, #0]
 8101054:	685b      	ldr	r3, [r3, #4]
 8101056:	f403 3340 	and.w	r3, r3, #196608	; 0x30000
 810105a:	2b00      	cmp	r3, #0
 810105c:	f000 80e0 	beq.w	8101220 <HAL_GPIO_Init+0x338>
      {
        /* Enable SYSCFG Clock */
        __HAL_RCC_SYSCFG_CLK_ENABLE();
 8101060:	4b2f      	ldr	r3, [pc, #188]	; (8101120 <HAL_GPIO_Init+0x238>)
 8101062:	f8d3 30f4 	ldr.w	r3, [r3, #244]	; 0xf4
 8101066:	4a2e      	ldr	r2, [pc, #184]	; (8101120 <HAL_GPIO_Init+0x238>)
 8101068:	f043 0302 	orr.w	r3, r3, #2
 810106c:	f8c2 30f4 	str.w	r3, [r2, #244]	; 0xf4
 8101070:	4b2b      	ldr	r3, [pc, #172]	; (8101120 <HAL_GPIO_Init+0x238>)
 8101072:	f8d3 30f4 	ldr.w	r3, [r3, #244]	; 0xf4
 8101076:	f003 0302 	and.w	r3, r3, #2
 810107a:	60fb      	str	r3, [r7, #12]
 810107c:	68fb      	ldr	r3, [r7, #12]

        temp = SYSCFG->EXTICR[position >> 2U];
 810107e:	4a29      	ldr	r2, [pc, #164]	; (8101124 <HAL_GPIO_Init+0x23c>)
 8101080:	69fb      	ldr	r3, [r7, #28]
 8101082:	089b      	lsrs	r3, r3, #2
 8101084:	3302      	adds	r3, #2
 8101086:	f852 3023 	ldr.w	r3, [r2, r3, lsl #2]
 810108a:	61bb      	str	r3, [r7, #24]
        temp &= ~(0x0FUL << (4U * (position & 0x03U)));
 810108c:	69fb      	ldr	r3, [r7, #28]
 810108e:	f003 0303 	and.w	r3, r3, #3
 8101092:	009b      	lsls	r3, r3, #2
 8101094:	220f      	movs	r2, #15
 8101096:	fa02 f303 	lsl.w	r3, r2, r3
 810109a:	43db      	mvns	r3, r3
 810109c:	69ba      	ldr	r2, [r7, #24]
 810109e:	4013      	ands	r3, r2
 81010a0:	61bb      	str	r3, [r7, #24]
        temp |= (GPIO_GET_INDEX(GPIOx) << (4U * (position & 0x03U)));
 81010a2:	687b      	ldr	r3, [r7, #4]
 81010a4:	4a20      	ldr	r2, [pc, #128]	; (8101128 <HAL_GPIO_Init+0x240>)
 81010a6:	4293      	cmp	r3, r2
 81010a8:	d052      	beq.n	8101150 <HAL_GPIO_Init+0x268>
 81010aa:	687b      	ldr	r3, [r7, #4]
 81010ac:	4a1f      	ldr	r2, [pc, #124]	; (810112c <HAL_GPIO_Init+0x244>)
 81010ae:	4293      	cmp	r3, r2
 81010b0:	d031      	beq.n	8101116 <HAL_GPIO_Init+0x22e>
 81010b2:	687b      	ldr	r3, [r7, #4]
 81010b4:	4a1e      	ldr	r2, [pc, #120]	; (8101130 <HAL_GPIO_Init+0x248>)
 81010b6:	4293      	cmp	r3, r2
 81010b8:	d02b      	beq.n	8101112 <HAL_GPIO_Init+0x22a>
 81010ba:	687b      	ldr	r3, [r7, #4]
 81010bc:	4a1d      	ldr	r2, [pc, #116]	; (8101134 <HAL_GPIO_Init+0x24c>)
 81010be:	4293      	cmp	r3, r2
 81010c0:	d025      	beq.n	810110e <HAL_GPIO_Init+0x226>
 81010c2:	687b      	ldr	r3, [r7, #4]
 81010c4:	4a1c      	ldr	r2, [pc, #112]	; (8101138 <HAL_GPIO_Init+0x250>)
 81010c6:	4293      	cmp	r3, r2
 81010c8:	d01f      	beq.n	810110a <HAL_GPIO_Init+0x222>
 81010ca:	687b      	ldr	r3, [r7, #4]
 81010cc:	4a1b      	ldr	r2, [pc, #108]	; (810113c <HAL_GPIO_Init+0x254>)
 81010ce:	4293      	cmp	r3, r2
 81010d0:	d019      	beq.n	8101106 <HAL_GPIO_Init+0x21e>
 81010d2:	687b      	ldr	r3, [r7, #4]
 81010d4:	4a1a      	ldr	r2, [pc, #104]	; (8101140 <HAL_GPIO_Init+0x258>)
 81010d6:	4293      	cmp	r3, r2
 81010d8:	d013      	beq.n	8101102 <HAL_GPIO_Init+0x21a>
 81010da:	687b      	ldr	r3, [r7, #4]
 81010dc:	4a19      	ldr	r2, [pc, #100]	; (8101144 <HAL_GPIO_Init+0x25c>)
 81010de:	4293      	cmp	r3, r2
 81010e0:	d00d      	beq.n	81010fe <HAL_GPIO_Init+0x216>
 81010e2:	687b      	ldr	r3, [r7, #4]
 81010e4:	4a18      	ldr	r2, [pc, #96]	; (8101148 <HAL_GPIO_Init+0x260>)
 81010e6:	4293      	cmp	r3, r2
 81010e8:	d007      	beq.n	81010fa <HAL_GPIO_Init+0x212>
 81010ea:	687b      	ldr	r3, [r7, #4]
 81010ec:	4a17      	ldr	r2, [pc, #92]	; (810114c <HAL_GPIO_Init+0x264>)
 81010ee:	4293      	cmp	r3, r2
 81010f0:	d101      	bne.n	81010f6 <HAL_GPIO_Init+0x20e>
 81010f2:	2309      	movs	r3, #9
 81010f4:	e02d      	b.n	8101152 <HAL_GPIO_Init+0x26a>
 81010f6:	230a      	movs	r3, #10
 81010f8:	e02b      	b.n	8101152 <HAL_GPIO_Init+0x26a>
 81010fa:	2308      	movs	r3, #8
 81010fc:	e029      	b.n	8101152 <HAL_GPIO_Init+0x26a>
 81010fe:	2307      	movs	r3, #7
 8101100:	e027      	b.n	8101152 <HAL_GPIO_Init+0x26a>
 8101102:	2306      	movs	r3, #6
 8101104:	e025      	b.n	8101152 <HAL_GPIO_Init+0x26a>
 8101106:	2305      	movs	r3, #5
 8101108:	e023      	b.n	8101152 <HAL_GPIO_Init+0x26a>
 810110a:	2304      	movs	r3, #4
 810110c:	e021      	b.n	8101152 <HAL_GPIO_Init+0x26a>
 810110e:	2303      	movs	r3, #3
 8101110:	e01f      	b.n	8101152 <HAL_GPIO_Init+0x26a>
 8101112:	2302      	movs	r3, #2
 8101114:	e01d      	b.n	8101152 <HAL_GPIO_Init+0x26a>
 8101116:	2301      	movs	r3, #1
 8101118:	e01b      	b.n	8101152 <HAL_GPIO_Init+0x26a>
 810111a:	bf00      	nop
 810111c:	580000c0 	.word	0x580000c0
 8101120:	58024400 	.word	0x58024400
 8101124:	58000400 	.word	0x58000400
 8101128:	58020000 	.word	0x58020000
 810112c:	58020400 	.word	0x58020400
 8101130:	58020800 	.word	0x58020800
 8101134:	58020c00 	.word	0x58020c00
 8101138:	58021000 	.word	0x58021000
 810113c:	58021400 	.word	0x58021400
 8101140:	58021800 	.word	0x58021800
 8101144:	58021c00 	.word	0x58021c00
 8101148:	58022000 	.word	0x58022000
 810114c:	58022400 	.word	0x58022400
 8101150:	2300      	movs	r3, #0
 8101152:	69fa      	ldr	r2, [r7, #28]
 8101154:	f002 0203 	and.w	r2, r2, #3
 8101158:	0092      	lsls	r2, r2, #2
 810115a:	4093      	lsls	r3, r2
 810115c:	69ba      	ldr	r2, [r7, #24]
 810115e:	4313      	orrs	r3, r2
 8101160:	61bb      	str	r3, [r7, #24]
        SYSCFG->EXTICR[position >> 2U] = temp;
 8101162:	4938      	ldr	r1, [pc, #224]	; (8101244 <HAL_GPIO_Init+0x35c>)
 8101164:	69fb      	ldr	r3, [r7, #28]
 8101166:	089b      	lsrs	r3, r3, #2
 8101168:	3302      	adds	r3, #2
 810116a:	69ba      	ldr	r2, [r7, #24]
 810116c:	f841 2023 	str.w	r2, [r1, r3, lsl #2]

        /* Clear Rising Falling edge configuration */
        temp = EXTI->RTSR1;
 8101170:	f04f 43b0 	mov.w	r3, #1476395008	; 0x58000000
 8101174:	681b      	ldr	r3, [r3, #0]
 8101176:	61bb      	str	r3, [r7, #24]
        temp &= ~(iocurrent);
 8101178:	693b      	ldr	r3, [r7, #16]
 810117a:	43db      	mvns	r3, r3
 810117c:	69ba      	ldr	r2, [r7, #24]
 810117e:	4013      	ands	r3, r2
 8101180:	61bb      	str	r3, [r7, #24]
        if ((GPIO_Init->Mode & TRIGGER_RISING) != 0x00U)
 8101182:	683b      	ldr	r3, [r7, #0]
 8101184:	685b      	ldr	r3, [r3, #4]
 8101186:	f403 1380 	and.w	r3, r3, #1048576	; 0x100000
 810118a:	2b00      	cmp	r3, #0
 810118c:	d003      	beq.n	8101196 <HAL_GPIO_Init+0x2ae>
        {
          temp |= iocurrent;
 810118e:	69ba      	ldr	r2, [r7, #24]
 8101190:	693b      	ldr	r3, [r7, #16]
 8101192:	4313      	orrs	r3, r2
 8101194:	61bb      	str	r3, [r7, #24]
        }
        EXTI->RTSR1 = temp;
 8101196:	f04f 42b0 	mov.w	r2, #1476395008	; 0x58000000
 810119a:	69bb      	ldr	r3, [r7, #24]
 810119c:	6013      	str	r3, [r2, #0]

        temp = EXTI->FTSR1;
 810119e:	f04f 43b0 	mov.w	r3, #1476395008	; 0x58000000
 81011a2:	685b      	ldr	r3, [r3, #4]
 81011a4:	61bb      	str	r3, [r7, #24]
        temp &= ~(iocurrent);
 81011a6:	693b      	ldr	r3, [r7, #16]
 81011a8:	43db      	mvns	r3, r3
 81011aa:	69ba      	ldr	r2, [r7, #24]
 81011ac:	4013      	ands	r3, r2
 81011ae:	61bb      	str	r3, [r7, #24]
        if ((GPIO_Init->Mode & TRIGGER_FALLING) != 0x00U)
 81011b0:	683b      	ldr	r3, [r7, #0]
 81011b2:	685b      	ldr	r3, [r3, #4]
 81011b4:	f403 1300 	and.w	r3, r3, #2097152	; 0x200000
 81011b8:	2b00      	cmp	r3, #0
 81011ba:	d003      	beq.n	81011c4 <HAL_GPIO_Init+0x2dc>
        {
          temp |= iocurrent;
 81011bc:	69ba      	ldr	r2, [r7, #24]
 81011be:	693b      	ldr	r3, [r7, #16]
 81011c0:	4313      	orrs	r3, r2
 81011c2:	61bb      	str	r3, [r7, #24]
        }
        EXTI->FTSR1 = temp;
 81011c4:	f04f 42b0 	mov.w	r2, #1476395008	; 0x58000000
 81011c8:	69bb      	ldr	r3, [r7, #24]
 81011ca:	6053      	str	r3, [r2, #4]

        temp = EXTI_CurrentCPU->EMR1;
 81011cc:	697b      	ldr	r3, [r7, #20]
 81011ce:	685b      	ldr	r3, [r3, #4]
 81011d0:	61bb      	str	r3, [r7, #24]
        temp &= ~(iocurrent);
 81011d2:	693b      	ldr	r3, [r7, #16]
 81011d4:	43db      	mvns	r3, r3
 81011d6:	69ba      	ldr	r2, [r7, #24]
 81011d8:	4013      	ands	r3, r2
 81011da:	61bb      	str	r3, [r7, #24]
        if ((GPIO_Init->Mode & EXTI_EVT) != 0x00U)
 81011dc:	683b      	ldr	r3, [r7, #0]
 81011de:	685b      	ldr	r3, [r3, #4]
 81011e0:	f403 3300 	and.w	r3, r3, #131072	; 0x20000
 81011e4:	2b00      	cmp	r3, #0
 81011e6:	d003      	beq.n	81011f0 <HAL_GPIO_Init+0x308>
        {
          temp |= iocurrent;
 81011e8:	69ba      	ldr	r2, [r7, #24]
 81011ea:	693b      	ldr	r3, [r7, #16]
 81011ec:	4313      	orrs	r3, r2
 81011ee:	61bb      	str	r3, [r7, #24]
        }
        EXTI_CurrentCPU->EMR1 = temp;
 81011f0:	697b      	ldr	r3, [r7, #20]
 81011f2:	69ba      	ldr	r2, [r7, #24]
 81011f4:	605a      	str	r2, [r3, #4]

        /* Clear EXTI line configuration */
        temp = EXTI_CurrentCPU->IMR1;
 81011f6:	697b      	ldr	r3, [r7, #20]
 81011f8:	681b      	ldr	r3, [r3, #0]
 81011fa:	61bb      	str	r3, [r7, #24]
        temp &= ~(iocurrent);
 81011fc:	693b      	ldr	r3, [r7, #16]
 81011fe:	43db      	mvns	r3, r3
 8101200:	69ba      	ldr	r2, [r7, #24]
 8101202:	4013      	ands	r3, r2
 8101204:	61bb      	str	r3, [r7, #24]
        if ((GPIO_Init->Mode & EXTI_IT) != 0x00U)
 8101206:	683b      	ldr	r3, [r7, #0]
 8101208:	685b      	ldr	r3, [r3, #4]
 810120a:	f403 3380 	and.w	r3, r3, #65536	; 0x10000
 810120e:	2b00      	cmp	r3, #0
 8101210:	d003      	beq.n	810121a <HAL_GPIO_Init+0x332>
        {
          temp |= iocurrent;
 8101212:	69ba      	ldr	r2, [r7, #24]
 8101214:	693b      	ldr	r3, [r7, #16]
 8101216:	4313      	orrs	r3, r2
 8101218:	61bb      	str	r3, [r7, #24]
        }
        EXTI_CurrentCPU->IMR1 = temp;
 810121a:	697b      	ldr	r3, [r7, #20]
 810121c:	69ba      	ldr	r2, [r7, #24]
 810121e:	601a      	str	r2, [r3, #0]
      }
    }

    position++;
 8101220:	69fb      	ldr	r3, [r7, #28]
 8101222:	3301      	adds	r3, #1
 8101224:	61fb      	str	r3, [r7, #28]
  while (((GPIO_Init->Pin) >> position) != 0x00U)
 8101226:	683b      	ldr	r3, [r7, #0]
 8101228:	681a      	ldr	r2, [r3, #0]
 810122a:	69fb      	ldr	r3, [r7, #28]
 810122c:	fa22 f303 	lsr.w	r3, r2, r3
 8101230:	2b00      	cmp	r3, #0
 8101232:	f47f ae63 	bne.w	8100efc <HAL_GPIO_Init+0x14>
  }
}
 8101236:	bf00      	nop
 8101238:	bf00      	nop
 810123a:	3724      	adds	r7, #36	; 0x24
 810123c:	46bd      	mov	sp, r7
 810123e:	f85d 7b04 	ldr.w	r7, [sp], #4
 8101242:	4770      	bx	lr
 8101244:	58000400 	.word	0x58000400

08101248 <HAL_GPIO_ReadPin>:
  * @param  GPIO_Pin: specifies the port bit to read.
  *         This parameter can be GPIO_PIN_x where x can be (0..15).
  * @retval The input port pin value.
  */
GPIO_PinState HAL_GPIO_ReadPin(GPIO_TypeDef *GPIOx, uint16_t GPIO_Pin)
{
 8101248:	b480      	push	{r7}
 810124a:	b085      	sub	sp, #20
 810124c:	af00      	add	r7, sp, #0
 810124e:	6078      	str	r0, [r7, #4]
 8101250:	460b      	mov	r3, r1
 8101252:	807b      	strh	r3, [r7, #2]
  GPIO_PinState bitstatus;

  /* Check the parameters */
  assert_param(IS_GPIO_PIN(GPIO_Pin));

  if ((GPIOx->IDR & GPIO_Pin) != 0x00U)
 8101254:	687b      	ldr	r3, [r7, #4]
 8101256:	691a      	ldr	r2, [r3, #16]
 8101258:	887b      	ldrh	r3, [r7, #2]
 810125a:	4013      	ands	r3, r2
 810125c:	2b00      	cmp	r3, #0
 810125e:	d002      	beq.n	8101266 <HAL_GPIO_ReadPin+0x1e>
  {
    bitstatus = GPIO_PIN_SET;
 8101260:	2301      	movs	r3, #1
 8101262:	73fb      	strb	r3, [r7, #15]
 8101264:	e001      	b.n	810126a <HAL_GPIO_ReadPin+0x22>
  }
  else
  {
    bitstatus = GPIO_PIN_RESET;
 8101266:	2300      	movs	r3, #0
 8101268:	73fb      	strb	r3, [r7, #15]
  }
  return bitstatus;
 810126a:	7bfb      	ldrb	r3, [r7, #15]
}
 810126c:	4618      	mov	r0, r3
 810126e:	3714      	adds	r7, #20
 8101270:	46bd      	mov	sp, r7
 8101272:	f85d 7b04 	ldr.w	r7, [sp], #4
 8101276:	4770      	bx	lr

08101278 <HAL_GPIO_WritePin>:
  *            @arg GPIO_PIN_RESET: to clear the port pin
  *            @arg GPIO_PIN_SET: to set the port pin
  * @retval None
  */
void HAL_GPIO_WritePin(GPIO_TypeDef *GPIOx, uint16_t GPIO_Pin, GPIO_PinState PinState)
{
 8101278:	b480      	push	{r7}
 810127a:	b083      	sub	sp, #12
 810127c:	af00      	add	r7, sp, #0
 810127e:	6078      	str	r0, [r7, #4]
 8101280:	460b      	mov	r3, r1
 8101282:	807b      	strh	r3, [r7, #2]
 8101284:	4613      	mov	r3, r2
 8101286:	707b      	strb	r3, [r7, #1]
  /* Check the parameters */
  assert_param(IS_GPIO_PIN(GPIO_Pin));
  assert_param(IS_GPIO_PIN_ACTION(PinState));

  if (PinState != GPIO_PIN_RESET)
 8101288:	787b      	ldrb	r3, [r7, #1]
 810128a:	2b00      	cmp	r3, #0
 810128c:	d003      	beq.n	8101296 <HAL_GPIO_WritePin+0x1e>
  {
    GPIOx->BSRR = GPIO_Pin;
 810128e:	887a      	ldrh	r2, [r7, #2]
 8101290:	687b      	ldr	r3, [r7, #4]
 8101292:	619a      	str	r2, [r3, #24]
  }
  else
  {
    GPIOx->BSRR = (uint32_t)GPIO_Pin << GPIO_NUMBER;
  }
}
 8101294:	e003      	b.n	810129e <HAL_GPIO_WritePin+0x26>
    GPIOx->BSRR = (uint32_t)GPIO_Pin << GPIO_NUMBER;
 8101296:	887b      	ldrh	r3, [r7, #2]
 8101298:	041a      	lsls	r2, r3, #16
 810129a:	687b      	ldr	r3, [r7, #4]
 810129c:	619a      	str	r2, [r3, #24]
}
 810129e:	bf00      	nop
 81012a0:	370c      	adds	r7, #12
 81012a2:	46bd      	mov	sp, r7
 81012a4:	f85d 7b04 	ldr.w	r7, [sp], #4
 81012a8:	4770      	bx	lr

081012aa <HAL_GPIO_TogglePin>:
  * @param  GPIOx: Where x can be (A..K) to select the GPIO peripheral.
  * @param  GPIO_Pin: Specifies the pins to be toggled.
  * @retval None
  */
void HAL_GPIO_TogglePin(GPIO_TypeDef *GPIOx, uint16_t GPIO_Pin)
{
 81012aa:	b480      	push	{r7}
 81012ac:	b085      	sub	sp, #20
 81012ae:	af00      	add	r7, sp, #0
 81012b0:	6078      	str	r0, [r7, #4]
 81012b2:	460b      	mov	r3, r1
 81012b4:	807b      	strh	r3, [r7, #2]

  /* Check the parameters */
  assert_param(IS_GPIO_PIN(GPIO_Pin));

  /* get current Output Data Register value */
  odr = GPIOx->ODR;
 81012b6:	687b      	ldr	r3, [r7, #4]
 81012b8:	695b      	ldr	r3, [r3, #20]
 81012ba:	60fb      	str	r3, [r7, #12]

  /* Set selected pins that were at low level, and reset ones that were high */
  GPIOx->BSRR = ((odr & GPIO_Pin) << GPIO_NUMBER) | (~odr & GPIO_Pin);
 81012bc:	887a      	ldrh	r2, [r7, #2]
 81012be:	68fb      	ldr	r3, [r7, #12]
 81012c0:	4013      	ands	r3, r2
 81012c2:	041a      	lsls	r2, r3, #16
 81012c4:	68fb      	ldr	r3, [r7, #12]
 81012c6:	43d9      	mvns	r1, r3
 81012c8:	887b      	ldrh	r3, [r7, #2]
 81012ca:	400b      	ands	r3, r1
 81012cc:	431a      	orrs	r2, r3
 81012ce:	687b      	ldr	r3, [r7, #4]
 81012d0:	619a      	str	r2, [r3, #24]
}
 81012d2:	bf00      	nop
 81012d4:	3714      	adds	r7, #20
 81012d6:	46bd      	mov	sp, r7
 81012d8:	f85d 7b04 	ldr.w	r7, [sp], #4
 81012dc:	4770      	bx	lr
	...

081012e0 <HAL_HSEM_ActivateNotification>:
  * @brief  Activate Semaphore release Notification for a given Semaphores Mask .
  * @param  SemMask: Mask of Released semaphores
  * @retval Semaphore Key
  */
void HAL_HSEM_ActivateNotification(uint32_t SemMask)
{
 81012e0:	b480      	push	{r7}
 81012e2:	b083      	sub	sp, #12
 81012e4:	af00      	add	r7, sp, #0
 81012e6:	6078      	str	r0, [r7, #4]
  {
    /*Use interrupt line 1 for CPU2 Master*/
    HSEM->C2IER |= SemMask;
  }
#else
  HSEM_COMMON->IER |= SemMask;
 81012e8:	4b05      	ldr	r3, [pc, #20]	; (8101300 <HAL_HSEM_ActivateNotification+0x20>)
 81012ea:	681a      	ldr	r2, [r3, #0]
 81012ec:	4904      	ldr	r1, [pc, #16]	; (8101300 <HAL_HSEM_ActivateNotification+0x20>)
 81012ee:	687b      	ldr	r3, [r7, #4]
 81012f0:	4313      	orrs	r3, r2
 81012f2:	600b      	str	r3, [r1, #0]
#endif
}
 81012f4:	bf00      	nop
 81012f6:	370c      	adds	r7, #12
 81012f8:	46bd      	mov	sp, r7
 81012fa:	f85d 7b04 	ldr.w	r7, [sp], #4
 81012fe:	4770      	bx	lr
 8101300:	58026510 	.word	0x58026510

08101304 <HAL_PWREx_EnterSTOPMode>:
  *            @arg PWR_D2_DOMAIN : Enter D2 Domain to DSTOP mode.
  *            @arg PWR_D3_DOMAIN : Enter D3/SRD Domain to DSTOP mode.
  * @retval None.
  */
void HAL_PWREx_EnterSTOPMode (uint32_t Regulator, uint8_t STOPEntry, uint32_t Domain)
{
 8101304:	b580      	push	{r7, lr}
 8101306:	b084      	sub	sp, #16
 8101308:	af00      	add	r7, sp, #0
 810130a:	60f8      	str	r0, [r7, #12]
 810130c:	460b      	mov	r3, r1
 810130e:	607a      	str	r2, [r7, #4]
 8101310:	72fb      	strb	r3, [r7, #11]
  assert_param (IS_PWR_REGULATOR (Regulator));
  assert_param (IS_PWR_STOP_ENTRY (STOPEntry));
  assert_param (IS_PWR_DOMAIN (Domain));

  /* Select the regulator state in Stop mode */
  MODIFY_REG (PWR->CR1, PWR_CR1_LPDS, Regulator);
 8101312:	4b37      	ldr	r3, [pc, #220]	; (81013f0 <HAL_PWREx_EnterSTOPMode+0xec>)
 8101314:	681b      	ldr	r3, [r3, #0]
 8101316:	f023 0201 	bic.w	r2, r3, #1
 810131a:	4935      	ldr	r1, [pc, #212]	; (81013f0 <HAL_PWREx_EnterSTOPMode+0xec>)
 810131c:	68fb      	ldr	r3, [r7, #12]
 810131e:	4313      	orrs	r3, r2
 8101320:	600b      	str	r3, [r1, #0]

  /* Select the domain Power Down DeepSleep */
  if (Domain == PWR_D1_DOMAIN)
 8101322:	687b      	ldr	r3, [r7, #4]
 8101324:	2b00      	cmp	r3, #0
 8101326:	d123      	bne.n	8101370 <HAL_PWREx_EnterSTOPMode+0x6c>
  {
#if defined (DUAL_CORE)
    /* Check current core */
    if (HAL_GetCurrentCPUID () != CM7_CPUID)
 8101328:	f7ff fdca 	bl	8100ec0 <HAL_GetCurrentCPUID>
 810132c:	4603      	mov	r3, r0
 810132e:	2b03      	cmp	r3, #3
 8101330:	d158      	bne.n	81013e4 <HAL_PWREx_EnterSTOPMode+0xe0>
      return;
    }
#endif /* defined (DUAL_CORE) */

    /* Keep DSTOP mode when D1/CD domain enters Deepsleep */
    CLEAR_BIT (PWR->CPUCR, PWR_CPUCR_PDDS_D1);
 8101332:	4b2f      	ldr	r3, [pc, #188]	; (81013f0 <HAL_PWREx_EnterSTOPMode+0xec>)
 8101334:	691b      	ldr	r3, [r3, #16]
 8101336:	4a2e      	ldr	r2, [pc, #184]	; (81013f0 <HAL_PWREx_EnterSTOPMode+0xec>)
 8101338:	f023 0301 	bic.w	r3, r3, #1
 810133c:	6113      	str	r3, [r2, #16]

    /* Set SLEEPDEEP bit of Cortex System Control Register */
    SET_BIT (SCB->SCR, SCB_SCR_SLEEPDEEP_Msk);
 810133e:	4b2d      	ldr	r3, [pc, #180]	; (81013f4 <HAL_PWREx_EnterSTOPMode+0xf0>)
 8101340:	691b      	ldr	r3, [r3, #16]
 8101342:	4a2c      	ldr	r2, [pc, #176]	; (81013f4 <HAL_PWREx_EnterSTOPMode+0xf0>)
 8101344:	f043 0304 	orr.w	r3, r3, #4
 8101348:	6113      	str	r3, [r2, #16]
  \details Acts as a special kind of Data Memory Barrier.
           It completes when all explicit memory accesses before this instruction complete.
 */
__STATIC_FORCEINLINE void __DSB(void)
{
  __ASM volatile ("dsb 0xF":::"memory");
 810134a:	f3bf 8f4f 	dsb	sy
}
 810134e:	bf00      	nop
  __ASM volatile ("isb 0xF":::"memory");
 8101350:	f3bf 8f6f 	isb	sy
}
 8101354:	bf00      	nop
    /* Ensure that all instructions are done before entering STOP mode */
    __DSB ();
    __ISB ();

    /* Select Stop mode entry */
    if (STOPEntry == PWR_STOPENTRY_WFI)
 8101356:	7afb      	ldrb	r3, [r7, #11]
 8101358:	2b01      	cmp	r3, #1
 810135a:	d101      	bne.n	8101360 <HAL_PWREx_EnterSTOPMode+0x5c>
    {
      /* Request Wait For Interrupt */
      __WFI ();
 810135c:	bf30      	wfi
 810135e:	e000      	b.n	8101362 <HAL_PWREx_EnterSTOPMode+0x5e>
    }
    else
    {
      /* Request Wait For Event */
      __WFE ();
 8101360:	bf20      	wfe
    }

    /* Clear SLEEPDEEP bit of Cortex-Mx in the System Control Register */
    CLEAR_BIT (SCB->SCR, SCB_SCR_SLEEPDEEP_Msk);
 8101362:	4b24      	ldr	r3, [pc, #144]	; (81013f4 <HAL_PWREx_EnterSTOPMode+0xf0>)
 8101364:	691b      	ldr	r3, [r3, #16]
 8101366:	4a23      	ldr	r2, [pc, #140]	; (81013f4 <HAL_PWREx_EnterSTOPMode+0xf0>)
 8101368:	f023 0304 	bic.w	r3, r3, #4
 810136c:	6113      	str	r3, [r2, #16]
 810136e:	e03c      	b.n	81013ea <HAL_PWREx_EnterSTOPMode+0xe6>
  }
#if defined (PWR_CPUCR_PDDS_D2)
  else if (Domain == PWR_D2_DOMAIN)
 8101370:	687b      	ldr	r3, [r7, #4]
 8101372:	2b01      	cmp	r3, #1
 8101374:	d123      	bne.n	81013be <HAL_PWREx_EnterSTOPMode+0xba>
  {
#if defined (DUAL_CORE)
    /* Check current core */
    if (HAL_GetCurrentCPUID () != CM4_CPUID)
 8101376:	f7ff fda3 	bl	8100ec0 <HAL_GetCurrentCPUID>
 810137a:	4603      	mov	r3, r0
 810137c:	2b01      	cmp	r3, #1
 810137e:	d133      	bne.n	81013e8 <HAL_PWREx_EnterSTOPMode+0xe4>
      */
      return;
    }

    /* Keep DSTOP mode when D2 domain enters Deepsleep */
    CLEAR_BIT (PWR->CPU2CR, PWR_CPU2CR_PDDS_D2);
 8101380:	4b1b      	ldr	r3, [pc, #108]	; (81013f0 <HAL_PWREx_EnterSTOPMode+0xec>)
 8101382:	695b      	ldr	r3, [r3, #20]
 8101384:	4a1a      	ldr	r2, [pc, #104]	; (81013f0 <HAL_PWREx_EnterSTOPMode+0xec>)
 8101386:	f023 0302 	bic.w	r3, r3, #2
 810138a:	6153      	str	r3, [r2, #20]

    /* Set SLEEPDEEP bit of Cortex System Control Register */
    SET_BIT (SCB->SCR, SCB_SCR_SLEEPDEEP_Msk);
 810138c:	4b19      	ldr	r3, [pc, #100]	; (81013f4 <HAL_PWREx_EnterSTOPMode+0xf0>)
 810138e:	691b      	ldr	r3, [r3, #16]
 8101390:	4a18      	ldr	r2, [pc, #96]	; (81013f4 <HAL_PWREx_EnterSTOPMode+0xf0>)
 8101392:	f043 0304 	orr.w	r3, r3, #4
 8101396:	6113      	str	r3, [r2, #16]
  __ASM volatile ("dsb 0xF":::"memory");
 8101398:	f3bf 8f4f 	dsb	sy
}
 810139c:	bf00      	nop
  __ASM volatile ("isb 0xF":::"memory");
 810139e:	f3bf 8f6f 	isb	sy
}
 81013a2:	bf00      	nop
    /* Ensure that all instructions are done before entering STOP mode */
    __DSB ();
    __ISB ();

    /* Select Stop mode entry */
    if (STOPEntry == PWR_STOPENTRY_WFI)
 81013a4:	7afb      	ldrb	r3, [r7, #11]
 81013a6:	2b01      	cmp	r3, #1
 81013a8:	d101      	bne.n	81013ae <HAL_PWREx_EnterSTOPMode+0xaa>
    {
      /* Request Wait For Interrupt */
      __WFI ();
 81013aa:	bf30      	wfi
 81013ac:	e000      	b.n	81013b0 <HAL_PWREx_EnterSTOPMode+0xac>
    }
    else
    {
      /* Request Wait For Event */
      __WFE ();
 81013ae:	bf20      	wfe
    }

    /* Clear SLEEPDEEP bit of Cortex-Mx in the System Control Register */
    CLEAR_BIT (SCB->SCR, SCB_SCR_SLEEPDEEP_Msk);
 81013b0:	4b10      	ldr	r3, [pc, #64]	; (81013f4 <HAL_PWREx_EnterSTOPMode+0xf0>)
 81013b2:	691b      	ldr	r3, [r3, #16]
 81013b4:	4a0f      	ldr	r2, [pc, #60]	; (81013f4 <HAL_PWREx_EnterSTOPMode+0xf0>)
 81013b6:	f023 0304 	bic.w	r3, r3, #4
 81013ba:	6113      	str	r3, [r2, #16]
 81013bc:	e015      	b.n	81013ea <HAL_PWREx_EnterSTOPMode+0xe6>
#endif /* defined (PWR_CPUCR_PDDS_D2) */
  else
  {
#if defined (DUAL_CORE)
    /* Check current core */
    if (HAL_GetCurrentCPUID () == CM7_CPUID)
 81013be:	f7ff fd7f 	bl	8100ec0 <HAL_GetCurrentCPUID>
 81013c2:	4603      	mov	r3, r0
 81013c4:	2b03      	cmp	r3, #3
 81013c6:	d106      	bne.n	81013d6 <HAL_PWREx_EnterSTOPMode+0xd2>
    {
      /* Keep DSTOP mode when D3 domain enters Deepsleep */
      CLEAR_BIT (PWR->CPUCR, PWR_CPUCR_PDDS_D3);
 81013c8:	4b09      	ldr	r3, [pc, #36]	; (81013f0 <HAL_PWREx_EnterSTOPMode+0xec>)
 81013ca:	691b      	ldr	r3, [r3, #16]
 81013cc:	4a08      	ldr	r2, [pc, #32]	; (81013f0 <HAL_PWREx_EnterSTOPMode+0xec>)
 81013ce:	f023 0304 	bic.w	r3, r3, #4
 81013d2:	6113      	str	r3, [r2, #16]
 81013d4:	e009      	b.n	81013ea <HAL_PWREx_EnterSTOPMode+0xe6>
    }
    else
    {
      /* Keep DSTOP mode when D3 domain enters Deepsleep */
      CLEAR_BIT (PWR->CPU2CR, PWR_CPU2CR_PDDS_D3);
 81013d6:	4b06      	ldr	r3, [pc, #24]	; (81013f0 <HAL_PWREx_EnterSTOPMode+0xec>)
 81013d8:	695b      	ldr	r3, [r3, #20]
 81013da:	4a05      	ldr	r2, [pc, #20]	; (81013f0 <HAL_PWREx_EnterSTOPMode+0xec>)
 81013dc:	f023 0304 	bic.w	r3, r3, #4
 81013e0:	6153      	str	r3, [r2, #20]
 81013e2:	e002      	b.n	81013ea <HAL_PWREx_EnterSTOPMode+0xe6>
      return;
 81013e4:	bf00      	nop
 81013e6:	e000      	b.n	81013ea <HAL_PWREx_EnterSTOPMode+0xe6>
      return;
 81013e8:	bf00      	nop
#else
    /* Keep DSTOP mode when D3/SRD domain enters Deepsleep */
    CLEAR_BIT (PWR->CPUCR, PWR_CPUCR_PDDS_D3);
#endif  /* defined (DUAL_CORE) */
  }
}
 81013ea:	3710      	adds	r7, #16
 81013ec:	46bd      	mov	sp, r7
 81013ee:	bd80      	pop	{r7, pc}
 81013f0:	58024800 	.word	0x58024800
 81013f4:	e000ed00 	.word	0xe000ed00

081013f8 <HAL_PWREx_ClearPendingEvent>:
  *         enter low power mode using Wait For Event request.
  * @note   Cortex-M7 must be in CRUN mode when calling this API by Cortex-M4.
  * @retval None.
  */
void HAL_PWREx_ClearPendingEvent (void)
{
 81013f8:	b580      	push	{r7, lr}
 81013fa:	af00      	add	r7, sp, #0
#if defined (DUAL_CORE)
  /* Check the current Core */
  if (HAL_GetCurrentCPUID () == CM7_CPUID)
 81013fc:	f7ff fd60 	bl	8100ec0 <HAL_GetCurrentCPUID>
 8101400:	4603      	mov	r3, r0
 8101402:	2b03      	cmp	r3, #3
 8101404:	d101      	bne.n	810140a <HAL_PWREx_ClearPendingEvent+0x12>
  {
    __WFE ();
 8101406:	bf20      	wfe
    __WFE ();
  }
#else
  __WFE ();
#endif /* defined (DUAL_CORE) */
}
 8101408:	e001      	b.n	810140e <HAL_PWREx_ClearPendingEvent+0x16>
    __SEV ();
 810140a:	bf40      	sev
    __WFE ();
 810140c:	bf20      	wfe
}
 810140e:	bf00      	nop
 8101410:	bd80      	pop	{r7, pc}
	...

08101414 <HAL_RCC_GetSysClockFreq>:
  *
  *
  * @retval SYSCLK frequency
  */
uint32_t HAL_RCC_GetSysClockFreq(void)
{
 8101414:	b480      	push	{r7}
 8101416:	b089      	sub	sp, #36	; 0x24
 8101418:	af00      	add	r7, sp, #0
  float_t fracn1, pllvco;
  uint32_t sysclockfreq;

  /* Get SYSCLK source -------------------------------------------------------*/

  switch (RCC->CFGR & RCC_CFGR_SWS)
 810141a:	4bb3      	ldr	r3, [pc, #716]	; (81016e8 <HAL_RCC_GetSysClockFreq+0x2d4>)
 810141c:	691b      	ldr	r3, [r3, #16]
 810141e:	f003 0338 	and.w	r3, r3, #56	; 0x38
 8101422:	2b18      	cmp	r3, #24
 8101424:	f200 8155 	bhi.w	81016d2 <HAL_RCC_GetSysClockFreq+0x2be>
 8101428:	a201      	add	r2, pc, #4	; (adr r2, 8101430 <HAL_RCC_GetSysClockFreq+0x1c>)
 810142a:	f852 f023 	ldr.w	pc, [r2, r3, lsl #2]
 810142e:	bf00      	nop
 8101430:	08101495 	.word	0x08101495
 8101434:	081016d3 	.word	0x081016d3
 8101438:	081016d3 	.word	0x081016d3
 810143c:	081016d3 	.word	0x081016d3
 8101440:	081016d3 	.word	0x081016d3
 8101444:	081016d3 	.word	0x081016d3
 8101448:	081016d3 	.word	0x081016d3
 810144c:	081016d3 	.word	0x081016d3
 8101450:	081014bb 	.word	0x081014bb
 8101454:	081016d3 	.word	0x081016d3
 8101458:	081016d3 	.word	0x081016d3
 810145c:	081016d3 	.word	0x081016d3
 8101460:	081016d3 	.word	0x081016d3
 8101464:	081016d3 	.word	0x081016d3
 8101468:	081016d3 	.word	0x081016d3
 810146c:	081016d3 	.word	0x081016d3
 8101470:	081014c1 	.word	0x081014c1
 8101474:	081016d3 	.word	0x081016d3
 8101478:	081016d3 	.word	0x081016d3
 810147c:	081016d3 	.word	0x081016d3
 8101480:	081016d3 	.word	0x081016d3
 8101484:	081016d3 	.word	0x081016d3
 8101488:	081016d3 	.word	0x081016d3
 810148c:	081016d3 	.word	0x081016d3
 8101490:	081014c7 	.word	0x081014c7
  {
  case RCC_CFGR_SWS_HSI:  /* HSI used as system clock source */

   if (__HAL_RCC_GET_FLAG(RCC_FLAG_HSIDIV) != 0U)
 8101494:	4b94      	ldr	r3, [pc, #592]	; (81016e8 <HAL_RCC_GetSysClockFreq+0x2d4>)
 8101496:	681b      	ldr	r3, [r3, #0]
 8101498:	f003 0320 	and.w	r3, r3, #32
 810149c:	2b00      	cmp	r3, #0
 810149e:	d009      	beq.n	81014b4 <HAL_RCC_GetSysClockFreq+0xa0>
      {
        sysclockfreq = (uint32_t) (HSI_VALUE >> (__HAL_RCC_GET_HSI_DIVIDER()>> 3));
 81014a0:	4b91      	ldr	r3, [pc, #580]	; (81016e8 <HAL_RCC_GetSysClockFreq+0x2d4>)
 81014a2:	681b      	ldr	r3, [r3, #0]
 81014a4:	08db      	lsrs	r3, r3, #3
 81014a6:	f003 0303 	and.w	r3, r3, #3
 81014aa:	4a90      	ldr	r2, [pc, #576]	; (81016ec <HAL_RCC_GetSysClockFreq+0x2d8>)
 81014ac:	fa22 f303 	lsr.w	r3, r2, r3
 81014b0:	61bb      	str	r3, [r7, #24]
      else
      {
        sysclockfreq = (uint32_t) HSI_VALUE;
      }

    break;
 81014b2:	e111      	b.n	81016d8 <HAL_RCC_GetSysClockFreq+0x2c4>
        sysclockfreq = (uint32_t) HSI_VALUE;
 81014b4:	4b8d      	ldr	r3, [pc, #564]	; (81016ec <HAL_RCC_GetSysClockFreq+0x2d8>)
 81014b6:	61bb      	str	r3, [r7, #24]
    break;
 81014b8:	e10e      	b.n	81016d8 <HAL_RCC_GetSysClockFreq+0x2c4>

  case RCC_CFGR_SWS_CSI:  /* CSI used as system clock  source */
    sysclockfreq = CSI_VALUE;
 81014ba:	4b8d      	ldr	r3, [pc, #564]	; (81016f0 <HAL_RCC_GetSysClockFreq+0x2dc>)
 81014bc:	61bb      	str	r3, [r7, #24]
    break;
 81014be:	e10b      	b.n	81016d8 <HAL_RCC_GetSysClockFreq+0x2c4>

  case RCC_CFGR_SWS_HSE:  /* HSE used as system clock  source */
    sysclockfreq = HSE_VALUE;
 81014c0:	4b8c      	ldr	r3, [pc, #560]	; (81016f4 <HAL_RCC_GetSysClockFreq+0x2e0>)
 81014c2:	61bb      	str	r3, [r7, #24]
    break;
 81014c4:	e108      	b.n	81016d8 <HAL_RCC_GetSysClockFreq+0x2c4>
  case RCC_CFGR_SWS_PLL1:  /* PLL1 used as system clock  source */

    /* PLL_VCO = (HSE_VALUE or HSI_VALUE or CSI_VALUE/ PLLM) * PLLN
    SYSCLK = PLL_VCO / PLLR
    */
    pllsource = (RCC->PLLCKSELR & RCC_PLLCKSELR_PLLSRC);
 81014c6:	4b88      	ldr	r3, [pc, #544]	; (81016e8 <HAL_RCC_GetSysClockFreq+0x2d4>)
 81014c8:	6a9b      	ldr	r3, [r3, #40]	; 0x28
 81014ca:	f003 0303 	and.w	r3, r3, #3
 81014ce:	617b      	str	r3, [r7, #20]
    pllm = ((RCC->PLLCKSELR & RCC_PLLCKSELR_DIVM1)>> 4)  ;
 81014d0:	4b85      	ldr	r3, [pc, #532]	; (81016e8 <HAL_RCC_GetSysClockFreq+0x2d4>)
 81014d2:	6a9b      	ldr	r3, [r3, #40]	; 0x28
 81014d4:	091b      	lsrs	r3, r3, #4
 81014d6:	f003 033f 	and.w	r3, r3, #63	; 0x3f
 81014da:	613b      	str	r3, [r7, #16]
    pllfracen = ((RCC-> PLLCFGR & RCC_PLLCFGR_PLL1FRACEN)>>RCC_PLLCFGR_PLL1FRACEN_Pos);
 81014dc:	4b82      	ldr	r3, [pc, #520]	; (81016e8 <HAL_RCC_GetSysClockFreq+0x2d4>)
 81014de:	6adb      	ldr	r3, [r3, #44]	; 0x2c
 81014e0:	f003 0301 	and.w	r3, r3, #1
 81014e4:	60fb      	str	r3, [r7, #12]
    fracn1 = (float_t)(uint32_t)(pllfracen* ((RCC->PLL1FRACR & RCC_PLL1FRACR_FRACN1)>> 3));
 81014e6:	4b80      	ldr	r3, [pc, #512]	; (81016e8 <HAL_RCC_GetSysClockFreq+0x2d4>)
 81014e8:	6b5b      	ldr	r3, [r3, #52]	; 0x34
 81014ea:	08db      	lsrs	r3, r3, #3
 81014ec:	f3c3 030c 	ubfx	r3, r3, #0, #13
 81014f0:	68fa      	ldr	r2, [r7, #12]
 81014f2:	fb02 f303 	mul.w	r3, r2, r3
 81014f6:	ee07 3a90 	vmov	s15, r3
 81014fa:	eef8 7a67 	vcvt.f32.u32	s15, s15
 81014fe:	edc7 7a02 	vstr	s15, [r7, #8]

    if (pllm != 0U)
 8101502:	693b      	ldr	r3, [r7, #16]
 8101504:	2b00      	cmp	r3, #0
 8101506:	f000 80e1 	beq.w	81016cc <HAL_RCC_GetSysClockFreq+0x2b8>
 810150a:	697b      	ldr	r3, [r7, #20]
 810150c:	2b02      	cmp	r3, #2
 810150e:	f000 8083 	beq.w	8101618 <HAL_RCC_GetSysClockFreq+0x204>
 8101512:	697b      	ldr	r3, [r7, #20]
 8101514:	2b02      	cmp	r3, #2
 8101516:	f200 80a1 	bhi.w	810165c <HAL_RCC_GetSysClockFreq+0x248>
 810151a:	697b      	ldr	r3, [r7, #20]
 810151c:	2b00      	cmp	r3, #0
 810151e:	d003      	beq.n	8101528 <HAL_RCC_GetSysClockFreq+0x114>
 8101520:	697b      	ldr	r3, [r7, #20]
 8101522:	2b01      	cmp	r3, #1
 8101524:	d056      	beq.n	81015d4 <HAL_RCC_GetSysClockFreq+0x1c0>
 8101526:	e099      	b.n	810165c <HAL_RCC_GetSysClockFreq+0x248>
    {
      switch (pllsource)
      {
      case RCC_PLLSOURCE_HSI:  /* HSI used as PLL clock source */

       if (__HAL_RCC_GET_FLAG(RCC_FLAG_HSIDIV) != 0U)
 8101528:	4b6f      	ldr	r3, [pc, #444]	; (81016e8 <HAL_RCC_GetSysClockFreq+0x2d4>)
 810152a:	681b      	ldr	r3, [r3, #0]
 810152c:	f003 0320 	and.w	r3, r3, #32
 8101530:	2b00      	cmp	r3, #0
 8101532:	d02d      	beq.n	8101590 <HAL_RCC_GetSysClockFreq+0x17c>
        {
          hsivalue= (HSI_VALUE >> (__HAL_RCC_GET_HSI_DIVIDER()>> 3));
 8101534:	4b6c      	ldr	r3, [pc, #432]	; (81016e8 <HAL_RCC_GetSysClockFreq+0x2d4>)
 8101536:	681b      	ldr	r3, [r3, #0]
 8101538:	08db      	lsrs	r3, r3, #3
 810153a:	f003 0303 	and.w	r3, r3, #3
 810153e:	4a6b      	ldr	r2, [pc, #428]	; (81016ec <HAL_RCC_GetSysClockFreq+0x2d8>)
 8101540:	fa22 f303 	lsr.w	r3, r2, r3
 8101544:	607b      	str	r3, [r7, #4]
          pllvco = ( (float_t)hsivalue / (float_t)pllm) * ((float_t)(uint32_t)(RCC->PLL1DIVR & RCC_PLL1DIVR_N1) + (fracn1/(float_t)0x2000) +(float_t)1 );
 8101546:	687b      	ldr	r3, [r7, #4]
 8101548:	ee07 3a90 	vmov	s15, r3
 810154c:	eef8 6a67 	vcvt.f32.u32	s13, s15
 8101550:	693b      	ldr	r3, [r7, #16]
 8101552:	ee07 3a90 	vmov	s15, r3
 8101556:	eef8 7a67 	vcvt.f32.u32	s15, s15
 810155a:	ee86 7aa7 	vdiv.f32	s14, s13, s15
 810155e:	4b62      	ldr	r3, [pc, #392]	; (81016e8 <HAL_RCC_GetSysClockFreq+0x2d4>)
 8101560:	6b1b      	ldr	r3, [r3, #48]	; 0x30
 8101562:	f3c3 0308 	ubfx	r3, r3, #0, #9
 8101566:	ee07 3a90 	vmov	s15, r3
 810156a:	eef8 6a67 	vcvt.f32.u32	s13, s15
 810156e:	ed97 6a02 	vldr	s12, [r7, #8]
 8101572:	eddf 5a61 	vldr	s11, [pc, #388]	; 81016f8 <HAL_RCC_GetSysClockFreq+0x2e4>
 8101576:	eec6 7a25 	vdiv.f32	s15, s12, s11
 810157a:	ee76 7aa7 	vadd.f32	s15, s13, s15
 810157e:	eef7 6a00 	vmov.f32	s13, #112	; 0x3f800000  1.0
 8101582:	ee77 7aa6 	vadd.f32	s15, s15, s13
 8101586:	ee67 7a27 	vmul.f32	s15, s14, s15
 810158a:	edc7 7a07 	vstr	s15, [r7, #28]
        }
        else
        {
          pllvco = ((float_t)HSI_VALUE / (float_t)pllm) * ((float_t)(uint32_t)(RCC->PLL1DIVR & RCC_PLL1DIVR_N1) + (fracn1/(float_t)0x2000) +(float_t)1 );
        }
        break;
 810158e:	e087      	b.n	81016a0 <HAL_RCC_GetSysClockFreq+0x28c>
          pllvco = ((float_t)HSI_VALUE / (float_t)pllm) * ((float_t)(uint32_t)(RCC->PLL1DIVR & RCC_PLL1DIVR_N1) + (fracn1/(float_t)0x2000) +(float_t)1 );
 8101590:	693b      	ldr	r3, [r7, #16]
 8101592:	ee07 3a90 	vmov	s15, r3
 8101596:	eef8 7a67 	vcvt.f32.u32	s15, s15
 810159a:	eddf 6a58 	vldr	s13, [pc, #352]	; 81016fc <HAL_RCC_GetSysClockFreq+0x2e8>
 810159e:	ee86 7aa7 	vdiv.f32	s14, s13, s15
 81015a2:	4b51      	ldr	r3, [pc, #324]	; (81016e8 <HAL_RCC_GetSysClockFreq+0x2d4>)
 81015a4:	6b1b      	ldr	r3, [r3, #48]	; 0x30
 81015a6:	f3c3 0308 	ubfx	r3, r3, #0, #9
 81015aa:	ee07 3a90 	vmov	s15, r3
 81015ae:	eef8 6a67 	vcvt.f32.u32	s13, s15
 81015b2:	ed97 6a02 	vldr	s12, [r7, #8]
 81015b6:	eddf 5a50 	vldr	s11, [pc, #320]	; 81016f8 <HAL_RCC_GetSysClockFreq+0x2e4>
 81015ba:	eec6 7a25 	vdiv.f32	s15, s12, s11
 81015be:	ee76 7aa7 	vadd.f32	s15, s13, s15
 81015c2:	eef7 6a00 	vmov.f32	s13, #112	; 0x3f800000  1.0
 81015c6:	ee77 7aa6 	vadd.f32	s15, s15, s13
 81015ca:	ee67 7a27 	vmul.f32	s15, s14, s15
 81015ce:	edc7 7a07 	vstr	s15, [r7, #28]
        break;
 81015d2:	e065      	b.n	81016a0 <HAL_RCC_GetSysClockFreq+0x28c>

      case RCC_PLLSOURCE_CSI:  /* CSI used as PLL clock source */
        pllvco = ((float_t)CSI_VALUE / (float_t)pllm) * ((float_t)(uint32_t)(RCC->PLL1DIVR & RCC_PLL1DIVR_N1) + (fracn1/(float_t)0x2000) +(float_t)1 );
 81015d4:	693b      	ldr	r3, [r7, #16]
 81015d6:	ee07 3a90 	vmov	s15, r3
 81015da:	eef8 7a67 	vcvt.f32.u32	s15, s15
 81015de:	eddf 6a48 	vldr	s13, [pc, #288]	; 8101700 <HAL_RCC_GetSysClockFreq+0x2ec>
 81015e2:	ee86 7aa7 	vdiv.f32	s14, s13, s15
 81015e6:	4b40      	ldr	r3, [pc, #256]	; (81016e8 <HAL_RCC_GetSysClockFreq+0x2d4>)
 81015e8:	6b1b      	ldr	r3, [r3, #48]	; 0x30
 81015ea:	f3c3 0308 	ubfx	r3, r3, #0, #9
 81015ee:	ee07 3a90 	vmov	s15, r3
 81015f2:	eef8 6a67 	vcvt.f32.u32	s13, s15
 81015f6:	ed97 6a02 	vldr	s12, [r7, #8]
 81015fa:	eddf 5a3f 	vldr	s11, [pc, #252]	; 81016f8 <HAL_RCC_GetSysClockFreq+0x2e4>
 81015fe:	eec6 7a25 	vdiv.f32	s15, s12, s11
 8101602:	ee76 7aa7 	vadd.f32	s15, s13, s15
 8101606:	eef7 6a00 	vmov.f32	s13, #112	; 0x3f800000  1.0
 810160a:	ee77 7aa6 	vadd.f32	s15, s15, s13
 810160e:	ee67 7a27 	vmul.f32	s15, s14, s15
 8101612:	edc7 7a07 	vstr	s15, [r7, #28]
        break;
 8101616:	e043      	b.n	81016a0 <HAL_RCC_GetSysClockFreq+0x28c>

      case RCC_PLLSOURCE_HSE:  /* HSE used as PLL clock source */
        pllvco = ((float_t)HSE_VALUE / (float_t)pllm) * ((float_t)(uint32_t)(RCC->PLL1DIVR & RCC_PLL1DIVR_N1) + (fracn1/(float_t)0x2000) +(float_t)1 );
 8101618:	693b      	ldr	r3, [r7, #16]
 810161a:	ee07 3a90 	vmov	s15, r3
 810161e:	eef8 7a67 	vcvt.f32.u32	s15, s15
 8101622:	eddf 6a38 	vldr	s13, [pc, #224]	; 8101704 <HAL_RCC_GetSysClockFreq+0x2f0>
 8101626:	ee86 7aa7 	vdiv.f32	s14, s13, s15
 810162a:	4b2f      	ldr	r3, [pc, #188]	; (81016e8 <HAL_RCC_GetSysClockFreq+0x2d4>)
 810162c:	6b1b      	ldr	r3, [r3, #48]	; 0x30
 810162e:	f3c3 0308 	ubfx	r3, r3, #0, #9
 8101632:	ee07 3a90 	vmov	s15, r3
 8101636:	eef8 6a67 	vcvt.f32.u32	s13, s15
 810163a:	ed97 6a02 	vldr	s12, [r7, #8]
 810163e:	eddf 5a2e 	vldr	s11, [pc, #184]	; 81016f8 <HAL_RCC_GetSysClockFreq+0x2e4>
 8101642:	eec6 7a25 	vdiv.f32	s15, s12, s11
 8101646:	ee76 7aa7 	vadd.f32	s15, s13, s15
 810164a:	eef7 6a00 	vmov.f32	s13, #112	; 0x3f800000  1.0
 810164e:	ee77 7aa6 	vadd.f32	s15, s15, s13
 8101652:	ee67 7a27 	vmul.f32	s15, s14, s15
 8101656:	edc7 7a07 	vstr	s15, [r7, #28]
        break;
 810165a:	e021      	b.n	81016a0 <HAL_RCC_GetSysClockFreq+0x28c>

      default:
        pllvco = ((float_t)CSI_VALUE / (float_t)pllm) * ((float_t)(uint32_t)(RCC->PLL1DIVR & RCC_PLL1DIVR_N1) + (fracn1/(float_t)0x2000) +(float_t)1 );
 810165c:	693b      	ldr	r3, [r7, #16]
 810165e:	ee07 3a90 	vmov	s15, r3
 8101662:	eef8 7a67 	vcvt.f32.u32	s15, s15
 8101666:	eddf 6a26 	vldr	s13, [pc, #152]	; 8101700 <HAL_RCC_GetSysClockFreq+0x2ec>
 810166a:	ee86 7aa7 	vdiv.f32	s14, s13, s15
 810166e:	4b1e      	ldr	r3, [pc, #120]	; (81016e8 <HAL_RCC_GetSysClockFreq+0x2d4>)
 8101670:	6b1b      	ldr	r3, [r3, #48]	; 0x30
 8101672:	f3c3 0308 	ubfx	r3, r3, #0, #9
 8101676:	ee07 3a90 	vmov	s15, r3
 810167a:	eef8 6a67 	vcvt.f32.u32	s13, s15
 810167e:	ed97 6a02 	vldr	s12, [r7, #8]
 8101682:	eddf 5a1d 	vldr	s11, [pc, #116]	; 81016f8 <HAL_RCC_GetSysClockFreq+0x2e4>
 8101686:	eec6 7a25 	vdiv.f32	s15, s12, s11
 810168a:	ee76 7aa7 	vadd.f32	s15, s13, s15
 810168e:	eef7 6a00 	vmov.f32	s13, #112	; 0x3f800000  1.0
 8101692:	ee77 7aa6 	vadd.f32	s15, s15, s13
 8101696:	ee67 7a27 	vmul.f32	s15, s14, s15
 810169a:	edc7 7a07 	vstr	s15, [r7, #28]
        break;
 810169e:	bf00      	nop
      }
      pllp = (((RCC->PLL1DIVR & RCC_PLL1DIVR_P1) >>9) + 1U ) ;
 81016a0:	4b11      	ldr	r3, [pc, #68]	; (81016e8 <HAL_RCC_GetSysClockFreq+0x2d4>)
 81016a2:	6b1b      	ldr	r3, [r3, #48]	; 0x30
 81016a4:	0a5b      	lsrs	r3, r3, #9
 81016a6:	f003 037f 	and.w	r3, r3, #127	; 0x7f
 81016aa:	3301      	adds	r3, #1
 81016ac:	603b      	str	r3, [r7, #0]
      sysclockfreq =  (uint32_t)(float_t)(pllvco/(float_t)pllp);
 81016ae:	683b      	ldr	r3, [r7, #0]
 81016b0:	ee07 3a90 	vmov	s15, r3
 81016b4:	eeb8 7a67 	vcvt.f32.u32	s14, s15
 81016b8:	edd7 6a07 	vldr	s13, [r7, #28]
 81016bc:	eec6 7a87 	vdiv.f32	s15, s13, s14
 81016c0:	eefc 7ae7 	vcvt.u32.f32	s15, s15
 81016c4:	ee17 3a90 	vmov	r3, s15
 81016c8:	61bb      	str	r3, [r7, #24]
    }
    else
    {
      sysclockfreq = 0U;
    }
    break;
 81016ca:	e005      	b.n	81016d8 <HAL_RCC_GetSysClockFreq+0x2c4>
      sysclockfreq = 0U;
 81016cc:	2300      	movs	r3, #0
 81016ce:	61bb      	str	r3, [r7, #24]
    break;
 81016d0:	e002      	b.n	81016d8 <HAL_RCC_GetSysClockFreq+0x2c4>

  default:
    sysclockfreq = CSI_VALUE;
 81016d2:	4b07      	ldr	r3, [pc, #28]	; (81016f0 <HAL_RCC_GetSysClockFreq+0x2dc>)
 81016d4:	61bb      	str	r3, [r7, #24]
    break;
 81016d6:	bf00      	nop
  }

  return sysclockfreq;
 81016d8:	69bb      	ldr	r3, [r7, #24]
}
 81016da:	4618      	mov	r0, r3
 81016dc:	3724      	adds	r7, #36	; 0x24
 81016de:	46bd      	mov	sp, r7
 81016e0:	f85d 7b04 	ldr.w	r7, [sp], #4
 81016e4:	4770      	bx	lr
 81016e6:	bf00      	nop
 81016e8:	58024400 	.word	0x58024400
 81016ec:	03d09000 	.word	0x03d09000
 81016f0:	003d0900 	.word	0x003d0900
 81016f4:	007a1200 	.word	0x007a1200
 81016f8:	46000000 	.word	0x46000000
 81016fc:	4c742400 	.word	0x4c742400
 8101700:	4a742400 	.word	0x4a742400
 8101704:	4af42400 	.word	0x4af42400

08101708 <HAL_SPI_Transmit>:
  * @param  Size   : amount of data to be sent
  * @param  Timeout: Timeout duration
  * @retval HAL status
  */
HAL_StatusTypeDef HAL_SPI_Transmit(SPI_HandleTypeDef *hspi, uint8_t *pData, uint16_t Size, uint32_t Timeout)
{
 8101708:	b580      	push	{r7, lr}
 810170a:	b08a      	sub	sp, #40	; 0x28
 810170c:	af02      	add	r7, sp, #8
 810170e:	60f8      	str	r0, [r7, #12]
 8101710:	60b9      	str	r1, [r7, #8]
 8101712:	603b      	str	r3, [r7, #0]
 8101714:	4613      	mov	r3, r2
 8101716:	80fb      	strh	r3, [r7, #6]
#if defined (__GNUC__)
  __IO uint16_t *ptxdr_16bits = (__IO uint16_t *)(&(hspi->Instance->TXDR));
 8101718:	68fb      	ldr	r3, [r7, #12]
 810171a:	681b      	ldr	r3, [r3, #0]
 810171c:	3320      	adds	r3, #32
 810171e:	61fb      	str	r3, [r7, #28]
#endif /* __GNUC__ */

  uint32_t tickstart;
  HAL_StatusTypeDef errorcode = HAL_OK;
 8101720:	2300      	movs	r3, #0
 8101722:	76fb      	strb	r3, [r7, #27]

  /* Check Direction parameter */
  assert_param(IS_SPI_DIRECTION_2LINES_OR_1LINE_2LINES_TXONLY(hspi->Init.Direction));

  /* Lock the process */
  __HAL_LOCK(hspi);
 8101724:	68fb      	ldr	r3, [r7, #12]
 8101726:	f893 3080 	ldrb.w	r3, [r3, #128]	; 0x80
 810172a:	2b01      	cmp	r3, #1
 810172c:	d101      	bne.n	8101732 <HAL_SPI_Transmit+0x2a>
 810172e:	2302      	movs	r3, #2
 8101730:	e1d4      	b.n	8101adc <HAL_SPI_Transmit+0x3d4>
 8101732:	68fb      	ldr	r3, [r7, #12]
 8101734:	2201      	movs	r2, #1
 8101736:	f883 2080 	strb.w	r2, [r3, #128]	; 0x80

  /* Init tickstart for timeout management*/
  tickstart = HAL_GetTick();
 810173a:	f7ff faad 	bl	8100c98 <HAL_GetTick>
 810173e:	6178      	str	r0, [r7, #20]

  if (hspi->State != HAL_SPI_STATE_READY)
 8101740:	68fb      	ldr	r3, [r7, #12]
 8101742:	f893 3081 	ldrb.w	r3, [r3, #129]	; 0x81
 8101746:	b2db      	uxtb	r3, r3
 8101748:	2b01      	cmp	r3, #1
 810174a:	d007      	beq.n	810175c <HAL_SPI_Transmit+0x54>
  {
    errorcode = HAL_BUSY;
 810174c:	2302      	movs	r3, #2
 810174e:	76fb      	strb	r3, [r7, #27]
    __HAL_UNLOCK(hspi);
 8101750:	68fb      	ldr	r3, [r7, #12]
 8101752:	2200      	movs	r2, #0
 8101754:	f883 2080 	strb.w	r2, [r3, #128]	; 0x80
    return errorcode;
 8101758:	7efb      	ldrb	r3, [r7, #27]
 810175a:	e1bf      	b.n	8101adc <HAL_SPI_Transmit+0x3d4>
  }

  if ((pData == NULL) || (Size == 0UL))
 810175c:	68bb      	ldr	r3, [r7, #8]
 810175e:	2b00      	cmp	r3, #0
 8101760:	d002      	beq.n	8101768 <HAL_SPI_Transmit+0x60>
 8101762:	88fb      	ldrh	r3, [r7, #6]
 8101764:	2b00      	cmp	r3, #0
 8101766:	d107      	bne.n	8101778 <HAL_SPI_Transmit+0x70>
  {
    errorcode = HAL_ERROR;
 8101768:	2301      	movs	r3, #1
 810176a:	76fb      	strb	r3, [r7, #27]
    __HAL_UNLOCK(hspi);
 810176c:	68fb      	ldr	r3, [r7, #12]
 810176e:	2200      	movs	r2, #0
 8101770:	f883 2080 	strb.w	r2, [r3, #128]	; 0x80
    return errorcode;
 8101774:	7efb      	ldrb	r3, [r7, #27]
 8101776:	e1b1      	b.n	8101adc <HAL_SPI_Transmit+0x3d4>
  }

  /* Set the transaction information */
  hspi->State       = HAL_SPI_STATE_BUSY_TX;
 8101778:	68fb      	ldr	r3, [r7, #12]
 810177a:	2203      	movs	r2, #3
 810177c:	f883 2081 	strb.w	r2, [r3, #129]	; 0x81
  hspi->ErrorCode   = HAL_SPI_ERROR_NONE;
 8101780:	68fb      	ldr	r3, [r7, #12]
 8101782:	2200      	movs	r2, #0
 8101784:	f8c3 2084 	str.w	r2, [r3, #132]	; 0x84
  hspi->pTxBuffPtr  = (uint8_t *)pData;
 8101788:	68fb      	ldr	r3, [r7, #12]
 810178a:	68ba      	ldr	r2, [r7, #8]
 810178c:	65da      	str	r2, [r3, #92]	; 0x5c
  hspi->TxXferSize  = Size;
 810178e:	68fb      	ldr	r3, [r7, #12]
 8101790:	88fa      	ldrh	r2, [r7, #6]
 8101792:	f8a3 2060 	strh.w	r2, [r3, #96]	; 0x60
  hspi->TxXferCount = Size;
 8101796:	68fb      	ldr	r3, [r7, #12]
 8101798:	88fa      	ldrh	r2, [r7, #6]
 810179a:	f8a3 2062 	strh.w	r2, [r3, #98]	; 0x62

  /*Init field not used in handle to zero */
  hspi->pRxBuffPtr  = NULL;
 810179e:	68fb      	ldr	r3, [r7, #12]
 81017a0:	2200      	movs	r2, #0
 81017a2:	665a      	str	r2, [r3, #100]	; 0x64
  hspi->RxXferSize  = (uint16_t) 0UL;
 81017a4:	68fb      	ldr	r3, [r7, #12]
 81017a6:	2200      	movs	r2, #0
 81017a8:	f8a3 2068 	strh.w	r2, [r3, #104]	; 0x68
  hspi->RxXferCount = (uint16_t) 0UL;
 81017ac:	68fb      	ldr	r3, [r7, #12]
 81017ae:	2200      	movs	r2, #0
 81017b0:	f8a3 206a 	strh.w	r2, [r3, #106]	; 0x6a
  hspi->TxISR       = NULL;
 81017b4:	68fb      	ldr	r3, [r7, #12]
 81017b6:	2200      	movs	r2, #0
 81017b8:	675a      	str	r2, [r3, #116]	; 0x74
  hspi->RxISR       = NULL;
 81017ba:	68fb      	ldr	r3, [r7, #12]
 81017bc:	2200      	movs	r2, #0
 81017be:	671a      	str	r2, [r3, #112]	; 0x70

  /* Configure communication direction : 1Line */
  if (hspi->Init.Direction == SPI_DIRECTION_1LINE)
 81017c0:	68fb      	ldr	r3, [r7, #12]
 81017c2:	689b      	ldr	r3, [r3, #8]
 81017c4:	f5b3 2fc0 	cmp.w	r3, #393216	; 0x60000
 81017c8:	d107      	bne.n	81017da <HAL_SPI_Transmit+0xd2>
  {
    SPI_1LINE_TX(hspi);
 81017ca:	68fb      	ldr	r3, [r7, #12]
 81017cc:	681b      	ldr	r3, [r3, #0]
 81017ce:	681a      	ldr	r2, [r3, #0]
 81017d0:	68fb      	ldr	r3, [r7, #12]
 81017d2:	681b      	ldr	r3, [r3, #0]
 81017d4:	f442 6200 	orr.w	r2, r2, #2048	; 0x800
 81017d8:	601a      	str	r2, [r3, #0]
  }

  /* Set the number of data at current transfer */
  MODIFY_REG(hspi->Instance->CR2, SPI_CR2_TSIZE, Size);
 81017da:	68fb      	ldr	r3, [r7, #12]
 81017dc:	681b      	ldr	r3, [r3, #0]
 81017de:	685b      	ldr	r3, [r3, #4]
 81017e0:	0c1b      	lsrs	r3, r3, #16
 81017e2:	041b      	lsls	r3, r3, #16
 81017e4:	88f9      	ldrh	r1, [r7, #6]
 81017e6:	68fa      	ldr	r2, [r7, #12]
 81017e8:	6812      	ldr	r2, [r2, #0]
 81017ea:	430b      	orrs	r3, r1
 81017ec:	6053      	str	r3, [r2, #4]

  /* Enable SPI peripheral */
  __HAL_SPI_ENABLE(hspi);
 81017ee:	68fb      	ldr	r3, [r7, #12]
 81017f0:	681b      	ldr	r3, [r3, #0]
 81017f2:	681a      	ldr	r2, [r3, #0]
 81017f4:	68fb      	ldr	r3, [r7, #12]
 81017f6:	681b      	ldr	r3, [r3, #0]
 81017f8:	f042 0201 	orr.w	r2, r2, #1
 81017fc:	601a      	str	r2, [r3, #0]

  if (hspi->Init.Mode == SPI_MODE_MASTER)
 81017fe:	68fb      	ldr	r3, [r7, #12]
 8101800:	685b      	ldr	r3, [r3, #4]
 8101802:	f5b3 0f80 	cmp.w	r3, #4194304	; 0x400000
 8101806:	d107      	bne.n	8101818 <HAL_SPI_Transmit+0x110>
  {
    /* Master transfer start */
    SET_BIT(hspi->Instance->CR1, SPI_CR1_CSTART);
 8101808:	68fb      	ldr	r3, [r7, #12]
 810180a:	681b      	ldr	r3, [r3, #0]
 810180c:	681a      	ldr	r2, [r3, #0]
 810180e:	68fb      	ldr	r3, [r7, #12]
 8101810:	681b      	ldr	r3, [r3, #0]
 8101812:	f442 7200 	orr.w	r2, r2, #512	; 0x200
 8101816:	601a      	str	r2, [r3, #0]
  }

  /* Transmit data in 32 Bit mode */
  if (hspi->Init.DataSize > SPI_DATASIZE_16BIT)
 8101818:	68fb      	ldr	r3, [r7, #12]
 810181a:	68db      	ldr	r3, [r3, #12]
 810181c:	2b0f      	cmp	r3, #15
 810181e:	d947      	bls.n	81018b0 <HAL_SPI_Transmit+0x1a8>
  {
    /* Transmit data in 32 Bit mode */
    while (hspi->TxXferCount > 0UL)
 8101820:	e03f      	b.n	81018a2 <HAL_SPI_Transmit+0x19a>
    {
      /* Wait until TXP flag is set to send data */
      if (__HAL_SPI_GET_FLAG(hspi, SPI_FLAG_TXP))
 8101822:	68fb      	ldr	r3, [r7, #12]
 8101824:	681b      	ldr	r3, [r3, #0]
 8101826:	695b      	ldr	r3, [r3, #20]
 8101828:	f003 0302 	and.w	r3, r3, #2
 810182c:	2b02      	cmp	r3, #2
 810182e:	d114      	bne.n	810185a <HAL_SPI_Transmit+0x152>
      {
        *((__IO uint32_t *)&hspi->Instance->TXDR) = *((uint32_t *)hspi->pTxBuffPtr);
 8101830:	68fb      	ldr	r3, [r7, #12]
 8101832:	6dda      	ldr	r2, [r3, #92]	; 0x5c
 8101834:	68fb      	ldr	r3, [r7, #12]
 8101836:	681b      	ldr	r3, [r3, #0]
 8101838:	6812      	ldr	r2, [r2, #0]
 810183a:	621a      	str	r2, [r3, #32]
        hspi->pTxBuffPtr += sizeof(uint32_t);
 810183c:	68fb      	ldr	r3, [r7, #12]
 810183e:	6ddb      	ldr	r3, [r3, #92]	; 0x5c
 8101840:	1d1a      	adds	r2, r3, #4
 8101842:	68fb      	ldr	r3, [r7, #12]
 8101844:	65da      	str	r2, [r3, #92]	; 0x5c
        hspi->TxXferCount--;
 8101846:	68fb      	ldr	r3, [r7, #12]
 8101848:	f8b3 3062 	ldrh.w	r3, [r3, #98]	; 0x62
 810184c:	b29b      	uxth	r3, r3
 810184e:	3b01      	subs	r3, #1
 8101850:	b29a      	uxth	r2, r3
 8101852:	68fb      	ldr	r3, [r7, #12]
 8101854:	f8a3 2062 	strh.w	r2, [r3, #98]	; 0x62
 8101858:	e023      	b.n	81018a2 <HAL_SPI_Transmit+0x19a>
      }
      else
      {
        /* Timeout management */
        if ((((HAL_GetTick() - tickstart) >=  Timeout) && (Timeout != HAL_MAX_DELAY)) || (Timeout == 0U))
 810185a:	f7ff fa1d 	bl	8100c98 <HAL_GetTick>
 810185e:	4602      	mov	r2, r0
 8101860:	697b      	ldr	r3, [r7, #20]
 8101862:	1ad3      	subs	r3, r2, r3
 8101864:	683a      	ldr	r2, [r7, #0]
 8101866:	429a      	cmp	r2, r3
 8101868:	d803      	bhi.n	8101872 <HAL_SPI_Transmit+0x16a>
 810186a:	683b      	ldr	r3, [r7, #0]
 810186c:	f1b3 3fff 	cmp.w	r3, #4294967295
 8101870:	d102      	bne.n	8101878 <HAL_SPI_Transmit+0x170>
 8101872:	683b      	ldr	r3, [r7, #0]
 8101874:	2b00      	cmp	r3, #0
 8101876:	d114      	bne.n	81018a2 <HAL_SPI_Transmit+0x19a>
        {
          /* Call standard close procedure with error check */
          SPI_CloseTransfer(hspi);
 8101878:	68f8      	ldr	r0, [r7, #12]
 810187a:	f000 fcf2 	bl	8102262 <SPI_CloseTransfer>

          /* Unlock the process */
          __HAL_UNLOCK(hspi);
 810187e:	68fb      	ldr	r3, [r7, #12]
 8101880:	2200      	movs	r2, #0
 8101882:	f883 2080 	strb.w	r2, [r3, #128]	; 0x80

          SET_BIT(hspi->ErrorCode, HAL_SPI_ERROR_TIMEOUT);
 8101886:	68fb      	ldr	r3, [r7, #12]
 8101888:	f8d3 3084 	ldr.w	r3, [r3, #132]	; 0x84
 810188c:	f443 7280 	orr.w	r2, r3, #256	; 0x100
 8101890:	68fb      	ldr	r3, [r7, #12]
 8101892:	f8c3 2084 	str.w	r2, [r3, #132]	; 0x84
          hspi->State = HAL_SPI_STATE_READY;
 8101896:	68fb      	ldr	r3, [r7, #12]
 8101898:	2201      	movs	r2, #1
 810189a:	f883 2081 	strb.w	r2, [r3, #129]	; 0x81
          return HAL_TIMEOUT;
 810189e:	2303      	movs	r3, #3
 81018a0:	e11c      	b.n	8101adc <HAL_SPI_Transmit+0x3d4>
    while (hspi->TxXferCount > 0UL)
 81018a2:	68fb      	ldr	r3, [r7, #12]
 81018a4:	f8b3 3062 	ldrh.w	r3, [r3, #98]	; 0x62
 81018a8:	b29b      	uxth	r3, r3
 81018aa:	2b00      	cmp	r3, #0
 81018ac:	d1b9      	bne.n	8101822 <HAL_SPI_Transmit+0x11a>
 81018ae:	e0ef      	b.n	8101a90 <HAL_SPI_Transmit+0x388>
        }
      }
    }
  }
  /* Transmit data in 16 Bit mode */
  else if (hspi->Init.DataSize > SPI_DATASIZE_8BIT)
 81018b0:	68fb      	ldr	r3, [r7, #12]
 81018b2:	68db      	ldr	r3, [r3, #12]
 81018b4:	2b07      	cmp	r3, #7
 81018b6:	f240 80e4 	bls.w	8101a82 <HAL_SPI_Transmit+0x37a>
  {
    /* Transmit data in 16 Bit mode */
    while (hspi->TxXferCount > 0UL)
 81018ba:	e05d      	b.n	8101978 <HAL_SPI_Transmit+0x270>
    {
      /* Wait until TXP flag is set to send data */
      if (__HAL_SPI_GET_FLAG(hspi, SPI_FLAG_TXP))
 81018bc:	68fb      	ldr	r3, [r7, #12]
 81018be:	681b      	ldr	r3, [r3, #0]
 81018c0:	695b      	ldr	r3, [r3, #20]
 81018c2:	f003 0302 	and.w	r3, r3, #2
 81018c6:	2b02      	cmp	r3, #2
 81018c8:	d132      	bne.n	8101930 <HAL_SPI_Transmit+0x228>
      {
        if ((hspi->TxXferCount > 1UL) && (hspi->Init.FifoThreshold > SPI_FIFO_THRESHOLD_01DATA))
 81018ca:	68fb      	ldr	r3, [r7, #12]
 81018cc:	f8b3 3062 	ldrh.w	r3, [r3, #98]	; 0x62
 81018d0:	b29b      	uxth	r3, r3
 81018d2:	2b01      	cmp	r3, #1
 81018d4:	d918      	bls.n	8101908 <HAL_SPI_Transmit+0x200>
 81018d6:	68fb      	ldr	r3, [r7, #12]
 81018d8:	6bdb      	ldr	r3, [r3, #60]	; 0x3c
 81018da:	2b00      	cmp	r3, #0
 81018dc:	d014      	beq.n	8101908 <HAL_SPI_Transmit+0x200>
        {
          *((__IO uint32_t *)&hspi->Instance->TXDR) = *((uint32_t *)hspi->pTxBuffPtr);
 81018de:	68fb      	ldr	r3, [r7, #12]
 81018e0:	6dda      	ldr	r2, [r3, #92]	; 0x5c
 81018e2:	68fb      	ldr	r3, [r7, #12]
 81018e4:	681b      	ldr	r3, [r3, #0]
 81018e6:	6812      	ldr	r2, [r2, #0]
 81018e8:	621a      	str	r2, [r3, #32]
          hspi->pTxBuffPtr += sizeof(uint32_t);
 81018ea:	68fb      	ldr	r3, [r7, #12]
 81018ec:	6ddb      	ldr	r3, [r3, #92]	; 0x5c
 81018ee:	1d1a      	adds	r2, r3, #4
 81018f0:	68fb      	ldr	r3, [r7, #12]
 81018f2:	65da      	str	r2, [r3, #92]	; 0x5c
          hspi->TxXferCount -= (uint16_t)2UL;
 81018f4:	68fb      	ldr	r3, [r7, #12]
 81018f6:	f8b3 3062 	ldrh.w	r3, [r3, #98]	; 0x62
 81018fa:	b29b      	uxth	r3, r3
 81018fc:	3b02      	subs	r3, #2
 81018fe:	b29a      	uxth	r2, r3
 8101900:	68fb      	ldr	r3, [r7, #12]
 8101902:	f8a3 2062 	strh.w	r2, [r3, #98]	; 0x62
 8101906:	e037      	b.n	8101978 <HAL_SPI_Transmit+0x270>
        }
        else
        {
#if defined (__GNUC__)
          *ptxdr_16bits = *((uint16_t *)hspi->pTxBuffPtr);
 8101908:	68fb      	ldr	r3, [r7, #12]
 810190a:	6ddb      	ldr	r3, [r3, #92]	; 0x5c
 810190c:	881a      	ldrh	r2, [r3, #0]
 810190e:	69fb      	ldr	r3, [r7, #28]
 8101910:	801a      	strh	r2, [r3, #0]
#else
          *((__IO uint16_t *)&hspi->Instance->TXDR) = *((uint16_t *)hspi->pTxBuffPtr);
#endif /* __GNUC__ */
          hspi->pTxBuffPtr += sizeof(uint16_t);
 8101912:	68fb      	ldr	r3, [r7, #12]
 8101914:	6ddb      	ldr	r3, [r3, #92]	; 0x5c
 8101916:	1c9a      	adds	r2, r3, #2
 8101918:	68fb      	ldr	r3, [r7, #12]
 810191a:	65da      	str	r2, [r3, #92]	; 0x5c
          hspi->TxXferCount--;
 810191c:	68fb      	ldr	r3, [r7, #12]
 810191e:	f8b3 3062 	ldrh.w	r3, [r3, #98]	; 0x62
 8101922:	b29b      	uxth	r3, r3
 8101924:	3b01      	subs	r3, #1
 8101926:	b29a      	uxth	r2, r3
 8101928:	68fb      	ldr	r3, [r7, #12]
 810192a:	f8a3 2062 	strh.w	r2, [r3, #98]	; 0x62
 810192e:	e023      	b.n	8101978 <HAL_SPI_Transmit+0x270>
        }
      }
      else
      {
        /* Timeout management */
        if ((((HAL_GetTick() - tickstart) >=  Timeout) && (Timeout != HAL_MAX_DELAY)) || (Timeout == 0U))
 8101930:	f7ff f9b2 	bl	8100c98 <HAL_GetTick>
 8101934:	4602      	mov	r2, r0
 8101936:	697b      	ldr	r3, [r7, #20]
 8101938:	1ad3      	subs	r3, r2, r3
 810193a:	683a      	ldr	r2, [r7, #0]
 810193c:	429a      	cmp	r2, r3
 810193e:	d803      	bhi.n	8101948 <HAL_SPI_Transmit+0x240>
 8101940:	683b      	ldr	r3, [r7, #0]
 8101942:	f1b3 3fff 	cmp.w	r3, #4294967295
 8101946:	d102      	bne.n	810194e <HAL_SPI_Transmit+0x246>
 8101948:	683b      	ldr	r3, [r7, #0]
 810194a:	2b00      	cmp	r3, #0
 810194c:	d114      	bne.n	8101978 <HAL_SPI_Transmit+0x270>
        {
          /* Call standard close procedure with error check */
          SPI_CloseTransfer(hspi);
 810194e:	68f8      	ldr	r0, [r7, #12]
 8101950:	f000 fc87 	bl	8102262 <SPI_CloseTransfer>

          /* Unlock the process */
          __HAL_UNLOCK(hspi);
 8101954:	68fb      	ldr	r3, [r7, #12]
 8101956:	2200      	movs	r2, #0
 8101958:	f883 2080 	strb.w	r2, [r3, #128]	; 0x80

          SET_BIT(hspi->ErrorCode, HAL_SPI_ERROR_TIMEOUT);
 810195c:	68fb      	ldr	r3, [r7, #12]
 810195e:	f8d3 3084 	ldr.w	r3, [r3, #132]	; 0x84
 8101962:	f443 7280 	orr.w	r2, r3, #256	; 0x100
 8101966:	68fb      	ldr	r3, [r7, #12]
 8101968:	f8c3 2084 	str.w	r2, [r3, #132]	; 0x84
          hspi->State = HAL_SPI_STATE_READY;
 810196c:	68fb      	ldr	r3, [r7, #12]
 810196e:	2201      	movs	r2, #1
 8101970:	f883 2081 	strb.w	r2, [r3, #129]	; 0x81
          return HAL_TIMEOUT;
 8101974:	2303      	movs	r3, #3
 8101976:	e0b1      	b.n	8101adc <HAL_SPI_Transmit+0x3d4>
    while (hspi->TxXferCount > 0UL)
 8101978:	68fb      	ldr	r3, [r7, #12]
 810197a:	f8b3 3062 	ldrh.w	r3, [r3, #98]	; 0x62
 810197e:	b29b      	uxth	r3, r3
 8101980:	2b00      	cmp	r3, #0
 8101982:	d19b      	bne.n	81018bc <HAL_SPI_Transmit+0x1b4>
 8101984:	e084      	b.n	8101a90 <HAL_SPI_Transmit+0x388>
  else
  {
    while (hspi->TxXferCount > 0UL)
    {
      /* Wait until TXP flag is set to send data */
      if (__HAL_SPI_GET_FLAG(hspi, SPI_FLAG_TXP))
 8101986:	68fb      	ldr	r3, [r7, #12]
 8101988:	681b      	ldr	r3, [r3, #0]
 810198a:	695b      	ldr	r3, [r3, #20]
 810198c:	f003 0302 	and.w	r3, r3, #2
 8101990:	2b02      	cmp	r3, #2
 8101992:	d152      	bne.n	8101a3a <HAL_SPI_Transmit+0x332>
      {
        if ((hspi->TxXferCount > 3UL) && (hspi->Init.FifoThreshold > SPI_FIFO_THRESHOLD_03DATA))
 8101994:	68fb      	ldr	r3, [r7, #12]
 8101996:	f8b3 3062 	ldrh.w	r3, [r3, #98]	; 0x62
 810199a:	b29b      	uxth	r3, r3
 810199c:	2b03      	cmp	r3, #3
 810199e:	d918      	bls.n	81019d2 <HAL_SPI_Transmit+0x2ca>
 81019a0:	68fb      	ldr	r3, [r7, #12]
 81019a2:	6bdb      	ldr	r3, [r3, #60]	; 0x3c
 81019a4:	2b40      	cmp	r3, #64	; 0x40
 81019a6:	d914      	bls.n	81019d2 <HAL_SPI_Transmit+0x2ca>
        {
          *((__IO uint32_t *)&hspi->Instance->TXDR) = *((uint32_t *)hspi->pTxBuffPtr);
 81019a8:	68fb      	ldr	r3, [r7, #12]
 81019aa:	6dda      	ldr	r2, [r3, #92]	; 0x5c
 81019ac:	68fb      	ldr	r3, [r7, #12]
 81019ae:	681b      	ldr	r3, [r3, #0]
 81019b0:	6812      	ldr	r2, [r2, #0]
 81019b2:	621a      	str	r2, [r3, #32]
          hspi->pTxBuffPtr += sizeof(uint32_t);
 81019b4:	68fb      	ldr	r3, [r7, #12]
 81019b6:	6ddb      	ldr	r3, [r3, #92]	; 0x5c
 81019b8:	1d1a      	adds	r2, r3, #4
 81019ba:	68fb      	ldr	r3, [r7, #12]
 81019bc:	65da      	str	r2, [r3, #92]	; 0x5c
          hspi->TxXferCount -= (uint16_t)4UL;
 81019be:	68fb      	ldr	r3, [r7, #12]
 81019c0:	f8b3 3062 	ldrh.w	r3, [r3, #98]	; 0x62
 81019c4:	b29b      	uxth	r3, r3
 81019c6:	3b04      	subs	r3, #4
 81019c8:	b29a      	uxth	r2, r3
 81019ca:	68fb      	ldr	r3, [r7, #12]
 81019cc:	f8a3 2062 	strh.w	r2, [r3, #98]	; 0x62
 81019d0:	e057      	b.n	8101a82 <HAL_SPI_Transmit+0x37a>
        }
        else if ((hspi->TxXferCount > 1UL) && (hspi->Init.FifoThreshold > SPI_FIFO_THRESHOLD_01DATA))
 81019d2:	68fb      	ldr	r3, [r7, #12]
 81019d4:	f8b3 3062 	ldrh.w	r3, [r3, #98]	; 0x62
 81019d8:	b29b      	uxth	r3, r3
 81019da:	2b01      	cmp	r3, #1
 81019dc:	d917      	bls.n	8101a0e <HAL_SPI_Transmit+0x306>
 81019de:	68fb      	ldr	r3, [r7, #12]
 81019e0:	6bdb      	ldr	r3, [r3, #60]	; 0x3c
 81019e2:	2b00      	cmp	r3, #0
 81019e4:	d013      	beq.n	8101a0e <HAL_SPI_Transmit+0x306>
        {
#if defined (__GNUC__)
          *ptxdr_16bits = *((uint16_t *)hspi->pTxBuffPtr);
 81019e6:	68fb      	ldr	r3, [r7, #12]
 81019e8:	6ddb      	ldr	r3, [r3, #92]	; 0x5c
 81019ea:	881a      	ldrh	r2, [r3, #0]
 81019ec:	69fb      	ldr	r3, [r7, #28]
 81019ee:	801a      	strh	r2, [r3, #0]
#else
          *((__IO uint16_t *)&hspi->Instance->TXDR) = *((uint16_t *)hspi->pTxBuffPtr);
#endif /* __GNUC__ */
          hspi->pTxBuffPtr += sizeof(uint16_t);
 81019f0:	68fb      	ldr	r3, [r7, #12]
 81019f2:	6ddb      	ldr	r3, [r3, #92]	; 0x5c
 81019f4:	1c9a      	adds	r2, r3, #2
 81019f6:	68fb      	ldr	r3, [r7, #12]
 81019f8:	65da      	str	r2, [r3, #92]	; 0x5c
          hspi->TxXferCount -= (uint16_t)2UL;
 81019fa:	68fb      	ldr	r3, [r7, #12]
 81019fc:	f8b3 3062 	ldrh.w	r3, [r3, #98]	; 0x62
 8101a00:	b29b      	uxth	r3, r3
 8101a02:	3b02      	subs	r3, #2
 8101a04:	b29a      	uxth	r2, r3
 8101a06:	68fb      	ldr	r3, [r7, #12]
 8101a08:	f8a3 2062 	strh.w	r2, [r3, #98]	; 0x62
 8101a0c:	e039      	b.n	8101a82 <HAL_SPI_Transmit+0x37a>
        }
        else
        {
          *((__IO uint8_t *)&hspi->Instance->TXDR) = *((uint8_t *)hspi->pTxBuffPtr);
 8101a0e:	68fb      	ldr	r3, [r7, #12]
 8101a10:	6dda      	ldr	r2, [r3, #92]	; 0x5c
 8101a12:	68fb      	ldr	r3, [r7, #12]
 8101a14:	681b      	ldr	r3, [r3, #0]
 8101a16:	3320      	adds	r3, #32
 8101a18:	7812      	ldrb	r2, [r2, #0]
 8101a1a:	701a      	strb	r2, [r3, #0]
          hspi->pTxBuffPtr += sizeof(uint8_t);
 8101a1c:	68fb      	ldr	r3, [r7, #12]
 8101a1e:	6ddb      	ldr	r3, [r3, #92]	; 0x5c
 8101a20:	1c5a      	adds	r2, r3, #1
 8101a22:	68fb      	ldr	r3, [r7, #12]
 8101a24:	65da      	str	r2, [r3, #92]	; 0x5c
          hspi->TxXferCount--;
 8101a26:	68fb      	ldr	r3, [r7, #12]
 8101a28:	f8b3 3062 	ldrh.w	r3, [r3, #98]	; 0x62
 8101a2c:	b29b      	uxth	r3, r3
 8101a2e:	3b01      	subs	r3, #1
 8101a30:	b29a      	uxth	r2, r3
 8101a32:	68fb      	ldr	r3, [r7, #12]
 8101a34:	f8a3 2062 	strh.w	r2, [r3, #98]	; 0x62
 8101a38:	e023      	b.n	8101a82 <HAL_SPI_Transmit+0x37a>
        }
      }
      else
      {
        /* Timeout management */
        if ((((HAL_GetTick() - tickstart) >=  Timeout) && (Timeout != HAL_MAX_DELAY)) || (Timeout == 0U))
 8101a3a:	f7ff f92d 	bl	8100c98 <HAL_GetTick>
 8101a3e:	4602      	mov	r2, r0
 8101a40:	697b      	ldr	r3, [r7, #20]
 8101a42:	1ad3      	subs	r3, r2, r3
 8101a44:	683a      	ldr	r2, [r7, #0]
 8101a46:	429a      	cmp	r2, r3
 8101a48:	d803      	bhi.n	8101a52 <HAL_SPI_Transmit+0x34a>
 8101a4a:	683b      	ldr	r3, [r7, #0]
 8101a4c:	f1b3 3fff 	cmp.w	r3, #4294967295
 8101a50:	d102      	bne.n	8101a58 <HAL_SPI_Transmit+0x350>
 8101a52:	683b      	ldr	r3, [r7, #0]
 8101a54:	2b00      	cmp	r3, #0
 8101a56:	d114      	bne.n	8101a82 <HAL_SPI_Transmit+0x37a>
        {
          /* Call standard close procedure with error check */
          SPI_CloseTransfer(hspi);
 8101a58:	68f8      	ldr	r0, [r7, #12]
 8101a5a:	f000 fc02 	bl	8102262 <SPI_CloseTransfer>

          /* Unlock the process */
          __HAL_UNLOCK(hspi);
 8101a5e:	68fb      	ldr	r3, [r7, #12]
 8101a60:	2200      	movs	r2, #0
 8101a62:	f883 2080 	strb.w	r2, [r3, #128]	; 0x80

          SET_BIT(hspi->ErrorCode, HAL_SPI_ERROR_TIMEOUT);
 8101a66:	68fb      	ldr	r3, [r7, #12]
 8101a68:	f8d3 3084 	ldr.w	r3, [r3, #132]	; 0x84
 8101a6c:	f443 7280 	orr.w	r2, r3, #256	; 0x100
 8101a70:	68fb      	ldr	r3, [r7, #12]
 8101a72:	f8c3 2084 	str.w	r2, [r3, #132]	; 0x84
          hspi->State = HAL_SPI_STATE_READY;
 8101a76:	68fb      	ldr	r3, [r7, #12]
 8101a78:	2201      	movs	r2, #1
 8101a7a:	f883 2081 	strb.w	r2, [r3, #129]	; 0x81
          return HAL_TIMEOUT;
 8101a7e:	2303      	movs	r3, #3
 8101a80:	e02c      	b.n	8101adc <HAL_SPI_Transmit+0x3d4>
    while (hspi->TxXferCount > 0UL)
 8101a82:	68fb      	ldr	r3, [r7, #12]
 8101a84:	f8b3 3062 	ldrh.w	r3, [r3, #98]	; 0x62
 8101a88:	b29b      	uxth	r3, r3
 8101a8a:	2b00      	cmp	r3, #0
 8101a8c:	f47f af7b 	bne.w	8101986 <HAL_SPI_Transmit+0x27e>
      }
    }
  }

  /* Wait for Tx (and CRC) data to be sent */
  if (SPI_WaitOnFlagUntilTimeout(hspi, SPI_FLAG_EOT, RESET, tickstart, Timeout) != HAL_OK)
 8101a90:	683b      	ldr	r3, [r7, #0]
 8101a92:	9300      	str	r3, [sp, #0]
 8101a94:	697b      	ldr	r3, [r7, #20]
 8101a96:	2200      	movs	r2, #0
 8101a98:	2108      	movs	r1, #8
 8101a9a:	68f8      	ldr	r0, [r7, #12]
 8101a9c:	f000 fc81 	bl	81023a2 <SPI_WaitOnFlagUntilTimeout>
 8101aa0:	4603      	mov	r3, r0
 8101aa2:	2b00      	cmp	r3, #0
 8101aa4:	d007      	beq.n	8101ab6 <HAL_SPI_Transmit+0x3ae>
  {
    SET_BIT(hspi->ErrorCode, HAL_SPI_ERROR_FLAG);
 8101aa6:	68fb      	ldr	r3, [r7, #12]
 8101aa8:	f8d3 3084 	ldr.w	r3, [r3, #132]	; 0x84
 8101aac:	f043 0220 	orr.w	r2, r3, #32
 8101ab0:	68fb      	ldr	r3, [r7, #12]
 8101ab2:	f8c3 2084 	str.w	r2, [r3, #132]	; 0x84
  }

  /* Call standard close procedure with error check */
  SPI_CloseTransfer(hspi);
 8101ab6:	68f8      	ldr	r0, [r7, #12]
 8101ab8:	f000 fbd3 	bl	8102262 <SPI_CloseTransfer>

  /* Unlock the process */
  __HAL_UNLOCK(hspi);
 8101abc:	68fb      	ldr	r3, [r7, #12]
 8101abe:	2200      	movs	r2, #0
 8101ac0:	f883 2080 	strb.w	r2, [r3, #128]	; 0x80

  hspi->State = HAL_SPI_STATE_READY;
 8101ac4:	68fb      	ldr	r3, [r7, #12]
 8101ac6:	2201      	movs	r2, #1
 8101ac8:	f883 2081 	strb.w	r2, [r3, #129]	; 0x81

  if (hspi->ErrorCode != HAL_SPI_ERROR_NONE)
 8101acc:	68fb      	ldr	r3, [r7, #12]
 8101ace:	f8d3 3084 	ldr.w	r3, [r3, #132]	; 0x84
 8101ad2:	2b00      	cmp	r3, #0
 8101ad4:	d001      	beq.n	8101ada <HAL_SPI_Transmit+0x3d2>
  {
    return HAL_ERROR;
 8101ad6:	2301      	movs	r3, #1
 8101ad8:	e000      	b.n	8101adc <HAL_SPI_Transmit+0x3d4>
  }
  return errorcode;
 8101ada:	7efb      	ldrb	r3, [r7, #27]
}
 8101adc:	4618      	mov	r0, r3
 8101ade:	3720      	adds	r7, #32
 8101ae0:	46bd      	mov	sp, r7
 8101ae2:	bd80      	pop	{r7, pc}

08101ae4 <HAL_SPI_Receive>:
  * @param  Size   : amount of data to be received
  * @param  Timeout: Timeout duration
  * @retval HAL status
  */
HAL_StatusTypeDef HAL_SPI_Receive(SPI_HandleTypeDef *hspi, uint8_t *pData, uint16_t Size, uint32_t Timeout)
{
 8101ae4:	b580      	push	{r7, lr}
 8101ae6:	b08a      	sub	sp, #40	; 0x28
 8101ae8:	af02      	add	r7, sp, #8
 8101aea:	60f8      	str	r0, [r7, #12]
 8101aec:	60b9      	str	r1, [r7, #8]
 8101aee:	603b      	str	r3, [r7, #0]
 8101af0:	4613      	mov	r3, r2
 8101af2:	80fb      	strh	r3, [r7, #6]
  uint32_t tickstart;
  HAL_StatusTypeDef errorcode = HAL_OK;
 8101af4:	2300      	movs	r3, #0
 8101af6:	77fb      	strb	r3, [r7, #31]
#if defined (__GNUC__)
  __IO uint16_t *prxdr_16bits = (__IO uint16_t *)(&(hspi->Instance->RXDR));
 8101af8:	68fb      	ldr	r3, [r7, #12]
 8101afa:	681b      	ldr	r3, [r3, #0]
 8101afc:	3330      	adds	r3, #48	; 0x30
 8101afe:	61bb      	str	r3, [r7, #24]
#endif /* __GNUC__ */

  /* Check Direction parameter */
  assert_param(IS_SPI_DIRECTION_2LINES_OR_1LINE_2LINES_RXONLY(hspi->Init.Direction));

  if ((hspi->Init.Mode == SPI_MODE_MASTER) && (hspi->Init.Direction == SPI_DIRECTION_2LINES))
 8101b00:	68fb      	ldr	r3, [r7, #12]
 8101b02:	685b      	ldr	r3, [r3, #4]
 8101b04:	f5b3 0f80 	cmp.w	r3, #4194304	; 0x400000
 8101b08:	d112      	bne.n	8101b30 <HAL_SPI_Receive+0x4c>
 8101b0a:	68fb      	ldr	r3, [r7, #12]
 8101b0c:	689b      	ldr	r3, [r3, #8]
 8101b0e:	2b00      	cmp	r3, #0
 8101b10:	d10e      	bne.n	8101b30 <HAL_SPI_Receive+0x4c>
  {
    hspi->State = HAL_SPI_STATE_BUSY_RX;
 8101b12:	68fb      	ldr	r3, [r7, #12]
 8101b14:	2204      	movs	r2, #4
 8101b16:	f883 2081 	strb.w	r2, [r3, #129]	; 0x81
    /* Call transmit-receive function to send Dummy data on Tx line and generate clock on CLK line */
    return HAL_SPI_TransmitReceive(hspi, pData, pData, Size, Timeout);
 8101b1a:	88fa      	ldrh	r2, [r7, #6]
 8101b1c:	683b      	ldr	r3, [r7, #0]
 8101b1e:	9300      	str	r3, [sp, #0]
 8101b20:	4613      	mov	r3, r2
 8101b22:	68ba      	ldr	r2, [r7, #8]
 8101b24:	68b9      	ldr	r1, [r7, #8]
 8101b26:	68f8      	ldr	r0, [r7, #12]
 8101b28:	f000 f976 	bl	8101e18 <HAL_SPI_TransmitReceive>
 8101b2c:	4603      	mov	r3, r0
 8101b2e:	e16f      	b.n	8101e10 <HAL_SPI_Receive+0x32c>
  }

  /* Lock the process */
  __HAL_LOCK(hspi);
 8101b30:	68fb      	ldr	r3, [r7, #12]
 8101b32:	f893 3080 	ldrb.w	r3, [r3, #128]	; 0x80
 8101b36:	2b01      	cmp	r3, #1
 8101b38:	d101      	bne.n	8101b3e <HAL_SPI_Receive+0x5a>
 8101b3a:	2302      	movs	r3, #2
 8101b3c:	e168      	b.n	8101e10 <HAL_SPI_Receive+0x32c>
 8101b3e:	68fb      	ldr	r3, [r7, #12]
 8101b40:	2201      	movs	r2, #1
 8101b42:	f883 2080 	strb.w	r2, [r3, #128]	; 0x80

  /* Init tickstart for timeout management*/
  tickstart = HAL_GetTick();
 8101b46:	f7ff f8a7 	bl	8100c98 <HAL_GetTick>
 8101b4a:	6178      	str	r0, [r7, #20]

  if (hspi->State != HAL_SPI_STATE_READY)
 8101b4c:	68fb      	ldr	r3, [r7, #12]
 8101b4e:	f893 3081 	ldrb.w	r3, [r3, #129]	; 0x81
 8101b52:	b2db      	uxtb	r3, r3
 8101b54:	2b01      	cmp	r3, #1
 8101b56:	d007      	beq.n	8101b68 <HAL_SPI_Receive+0x84>
  {
    errorcode = HAL_BUSY;
 8101b58:	2302      	movs	r3, #2
 8101b5a:	77fb      	strb	r3, [r7, #31]
    __HAL_UNLOCK(hspi);
 8101b5c:	68fb      	ldr	r3, [r7, #12]
 8101b5e:	2200      	movs	r2, #0
 8101b60:	f883 2080 	strb.w	r2, [r3, #128]	; 0x80
    return errorcode;
 8101b64:	7ffb      	ldrb	r3, [r7, #31]
 8101b66:	e153      	b.n	8101e10 <HAL_SPI_Receive+0x32c>
  }

  if ((pData == NULL) || (Size == 0UL))
 8101b68:	68bb      	ldr	r3, [r7, #8]
 8101b6a:	2b00      	cmp	r3, #0
 8101b6c:	d002      	beq.n	8101b74 <HAL_SPI_Receive+0x90>
 8101b6e:	88fb      	ldrh	r3, [r7, #6]
 8101b70:	2b00      	cmp	r3, #0
 8101b72:	d107      	bne.n	8101b84 <HAL_SPI_Receive+0xa0>
  {
    errorcode = HAL_ERROR;
 8101b74:	2301      	movs	r3, #1
 8101b76:	77fb      	strb	r3, [r7, #31]
    __HAL_UNLOCK(hspi);
 8101b78:	68fb      	ldr	r3, [r7, #12]
 8101b7a:	2200      	movs	r2, #0
 8101b7c:	f883 2080 	strb.w	r2, [r3, #128]	; 0x80
    return errorcode;
 8101b80:	7ffb      	ldrb	r3, [r7, #31]
 8101b82:	e145      	b.n	8101e10 <HAL_SPI_Receive+0x32c>
  }

  /* Set the transaction information */
  hspi->State       = HAL_SPI_STATE_BUSY_RX;
 8101b84:	68fb      	ldr	r3, [r7, #12]
 8101b86:	2204      	movs	r2, #4
 8101b88:	f883 2081 	strb.w	r2, [r3, #129]	; 0x81
  hspi->ErrorCode   = HAL_SPI_ERROR_NONE;
 8101b8c:	68fb      	ldr	r3, [r7, #12]
 8101b8e:	2200      	movs	r2, #0
 8101b90:	f8c3 2084 	str.w	r2, [r3, #132]	; 0x84
  hspi->pRxBuffPtr  = (uint8_t *)pData;
 8101b94:	68fb      	ldr	r3, [r7, #12]
 8101b96:	68ba      	ldr	r2, [r7, #8]
 8101b98:	665a      	str	r2, [r3, #100]	; 0x64
  hspi->RxXferSize  = Size;
 8101b9a:	68fb      	ldr	r3, [r7, #12]
 8101b9c:	88fa      	ldrh	r2, [r7, #6]
 8101b9e:	f8a3 2068 	strh.w	r2, [r3, #104]	; 0x68
  hspi->RxXferCount = Size;
 8101ba2:	68fb      	ldr	r3, [r7, #12]
 8101ba4:	88fa      	ldrh	r2, [r7, #6]
 8101ba6:	f8a3 206a 	strh.w	r2, [r3, #106]	; 0x6a

  /*Init field not used in handle to zero */
  hspi->pTxBuffPtr  = NULL;
 8101baa:	68fb      	ldr	r3, [r7, #12]
 8101bac:	2200      	movs	r2, #0
 8101bae:	65da      	str	r2, [r3, #92]	; 0x5c
  hspi->TxXferSize  = (uint16_t) 0UL;
 8101bb0:	68fb      	ldr	r3, [r7, #12]
 8101bb2:	2200      	movs	r2, #0
 8101bb4:	f8a3 2060 	strh.w	r2, [r3, #96]	; 0x60
  hspi->TxXferCount = (uint16_t) 0UL;
 8101bb8:	68fb      	ldr	r3, [r7, #12]
 8101bba:	2200      	movs	r2, #0
 8101bbc:	f8a3 2062 	strh.w	r2, [r3, #98]	; 0x62
  hspi->RxISR       = NULL;
 8101bc0:	68fb      	ldr	r3, [r7, #12]
 8101bc2:	2200      	movs	r2, #0
 8101bc4:	671a      	str	r2, [r3, #112]	; 0x70
  hspi->TxISR       = NULL;
 8101bc6:	68fb      	ldr	r3, [r7, #12]
 8101bc8:	2200      	movs	r2, #0
 8101bca:	675a      	str	r2, [r3, #116]	; 0x74

  /* Configure communication direction: 1Line */
  if (hspi->Init.Direction == SPI_DIRECTION_1LINE)
 8101bcc:	68fb      	ldr	r3, [r7, #12]
 8101bce:	689b      	ldr	r3, [r3, #8]
 8101bd0:	f5b3 2fc0 	cmp.w	r3, #393216	; 0x60000
 8101bd4:	d107      	bne.n	8101be6 <HAL_SPI_Receive+0x102>
  {
    SPI_1LINE_RX(hspi);
 8101bd6:	68fb      	ldr	r3, [r7, #12]
 8101bd8:	681b      	ldr	r3, [r3, #0]
 8101bda:	681a      	ldr	r2, [r3, #0]
 8101bdc:	68fb      	ldr	r3, [r7, #12]
 8101bde:	681b      	ldr	r3, [r3, #0]
 8101be0:	f422 6200 	bic.w	r2, r2, #2048	; 0x800
 8101be4:	601a      	str	r2, [r3, #0]
  }

  /* Set the number of data at current transfer */
  MODIFY_REG(hspi->Instance->CR2, SPI_CR2_TSIZE, Size);
 8101be6:	68fb      	ldr	r3, [r7, #12]
 8101be8:	681b      	ldr	r3, [r3, #0]
 8101bea:	685b      	ldr	r3, [r3, #4]
 8101bec:	0c1b      	lsrs	r3, r3, #16
 8101bee:	041b      	lsls	r3, r3, #16
 8101bf0:	88f9      	ldrh	r1, [r7, #6]
 8101bf2:	68fa      	ldr	r2, [r7, #12]
 8101bf4:	6812      	ldr	r2, [r2, #0]
 8101bf6:	430b      	orrs	r3, r1
 8101bf8:	6053      	str	r3, [r2, #4]

  /* Enable SPI peripheral */
  __HAL_SPI_ENABLE(hspi);
 8101bfa:	68fb      	ldr	r3, [r7, #12]
 8101bfc:	681b      	ldr	r3, [r3, #0]
 8101bfe:	681a      	ldr	r2, [r3, #0]
 8101c00:	68fb      	ldr	r3, [r7, #12]
 8101c02:	681b      	ldr	r3, [r3, #0]
 8101c04:	f042 0201 	orr.w	r2, r2, #1
 8101c08:	601a      	str	r2, [r3, #0]

  if (hspi->Init.Mode == SPI_MODE_MASTER)
 8101c0a:	68fb      	ldr	r3, [r7, #12]
 8101c0c:	685b      	ldr	r3, [r3, #4]
 8101c0e:	f5b3 0f80 	cmp.w	r3, #4194304	; 0x400000
 8101c12:	d107      	bne.n	8101c24 <HAL_SPI_Receive+0x140>
  {
    /* Master transfer start */
    SET_BIT(hspi->Instance->CR1, SPI_CR1_CSTART);
 8101c14:	68fb      	ldr	r3, [r7, #12]
 8101c16:	681b      	ldr	r3, [r3, #0]
 8101c18:	681a      	ldr	r2, [r3, #0]
 8101c1a:	68fb      	ldr	r3, [r7, #12]
 8101c1c:	681b      	ldr	r3, [r3, #0]
 8101c1e:	f442 7200 	orr.w	r2, r2, #512	; 0x200
 8101c22:	601a      	str	r2, [r3, #0]
  }

  /* Receive data in 32 Bit mode */
  if (hspi->Init.DataSize > SPI_DATASIZE_16BIT)
 8101c24:	68fb      	ldr	r3, [r7, #12]
 8101c26:	68db      	ldr	r3, [r3, #12]
 8101c28:	2b0f      	cmp	r3, #15
 8101c2a:	d948      	bls.n	8101cbe <HAL_SPI_Receive+0x1da>
  {
    /* Transfer loop */
    while (hspi->RxXferCount > 0UL)
 8101c2c:	e040      	b.n	8101cb0 <HAL_SPI_Receive+0x1cc>
    {
      /* Check the RXWNE/EOT flag */
      if ((hspi->Instance->SR & (SPI_FLAG_RXWNE | SPI_FLAG_EOT)) != 0UL)
 8101c2e:	68fb      	ldr	r3, [r7, #12]
 8101c30:	681b      	ldr	r3, [r3, #0]
 8101c32:	695a      	ldr	r2, [r3, #20]
 8101c34:	f248 0308 	movw	r3, #32776	; 0x8008
 8101c38:	4013      	ands	r3, r2
 8101c3a:	2b00      	cmp	r3, #0
 8101c3c:	d014      	beq.n	8101c68 <HAL_SPI_Receive+0x184>
      {
        *((uint32_t *)hspi->pRxBuffPtr) = *((__IO uint32_t *)&hspi->Instance->RXDR);
 8101c3e:	68fb      	ldr	r3, [r7, #12]
 8101c40:	681a      	ldr	r2, [r3, #0]
 8101c42:	68fb      	ldr	r3, [r7, #12]
 8101c44:	6e5b      	ldr	r3, [r3, #100]	; 0x64
 8101c46:	6b12      	ldr	r2, [r2, #48]	; 0x30
 8101c48:	601a      	str	r2, [r3, #0]
        hspi->pRxBuffPtr += sizeof(uint32_t);
 8101c4a:	68fb      	ldr	r3, [r7, #12]
 8101c4c:	6e5b      	ldr	r3, [r3, #100]	; 0x64
 8101c4e:	1d1a      	adds	r2, r3, #4
 8101c50:	68fb      	ldr	r3, [r7, #12]
 8101c52:	665a      	str	r2, [r3, #100]	; 0x64
        hspi->RxXferCount--;
 8101c54:	68fb      	ldr	r3, [r7, #12]
 8101c56:	f8b3 306a 	ldrh.w	r3, [r3, #106]	; 0x6a
 8101c5a:	b29b      	uxth	r3, r3
 8101c5c:	3b01      	subs	r3, #1
 8101c5e:	b29a      	uxth	r2, r3
 8101c60:	68fb      	ldr	r3, [r7, #12]
 8101c62:	f8a3 206a 	strh.w	r2, [r3, #106]	; 0x6a
 8101c66:	e023      	b.n	8101cb0 <HAL_SPI_Receive+0x1cc>
      }
      else
      {
        /* Timeout management */
        if ((((HAL_GetTick() - tickstart) >=  Timeout) && (Timeout != HAL_MAX_DELAY)) || (Timeout == 0U))
 8101c68:	f7ff f816 	bl	8100c98 <HAL_GetTick>
 8101c6c:	4602      	mov	r2, r0
 8101c6e:	697b      	ldr	r3, [r7, #20]
 8101c70:	1ad3      	subs	r3, r2, r3
 8101c72:	683a      	ldr	r2, [r7, #0]
 8101c74:	429a      	cmp	r2, r3
 8101c76:	d803      	bhi.n	8101c80 <HAL_SPI_Receive+0x19c>
 8101c78:	683b      	ldr	r3, [r7, #0]
 8101c7a:	f1b3 3fff 	cmp.w	r3, #4294967295
 8101c7e:	d102      	bne.n	8101c86 <HAL_SPI_Receive+0x1a2>
 8101c80:	683b      	ldr	r3, [r7, #0]
 8101c82:	2b00      	cmp	r3, #0
 8101c84:	d114      	bne.n	8101cb0 <HAL_SPI_Receive+0x1cc>
        {
          /* Call standard close procedure with error check */
          SPI_CloseTransfer(hspi);
 8101c86:	68f8      	ldr	r0, [r7, #12]
 8101c88:	f000 faeb 	bl	8102262 <SPI_CloseTransfer>

          /* Unlock the process */
          __HAL_UNLOCK(hspi);
 8101c8c:	68fb      	ldr	r3, [r7, #12]
 8101c8e:	2200      	movs	r2, #0
 8101c90:	f883 2080 	strb.w	r2, [r3, #128]	; 0x80

          SET_BIT(hspi->ErrorCode, HAL_SPI_ERROR_TIMEOUT);
 8101c94:	68fb      	ldr	r3, [r7, #12]
 8101c96:	f8d3 3084 	ldr.w	r3, [r3, #132]	; 0x84
 8101c9a:	f443 7280 	orr.w	r2, r3, #256	; 0x100
 8101c9e:	68fb      	ldr	r3, [r7, #12]
 8101ca0:	f8c3 2084 	str.w	r2, [r3, #132]	; 0x84
          hspi->State = HAL_SPI_STATE_READY;
 8101ca4:	68fb      	ldr	r3, [r7, #12]
 8101ca6:	2201      	movs	r2, #1
 8101ca8:	f883 2081 	strb.w	r2, [r3, #129]	; 0x81
          return HAL_TIMEOUT;
 8101cac:	2303      	movs	r3, #3
 8101cae:	e0af      	b.n	8101e10 <HAL_SPI_Receive+0x32c>
    while (hspi->RxXferCount > 0UL)
 8101cb0:	68fb      	ldr	r3, [r7, #12]
 8101cb2:	f8b3 306a 	ldrh.w	r3, [r3, #106]	; 0x6a
 8101cb6:	b29b      	uxth	r3, r3
 8101cb8:	2b00      	cmp	r3, #0
 8101cba:	d1b8      	bne.n	8101c2e <HAL_SPI_Receive+0x14a>
 8101cbc:	e095      	b.n	8101dea <HAL_SPI_Receive+0x306>
        }
      }
    }
  }
  /* Receive data in 16 Bit mode */
  else if (hspi->Init.DataSize > SPI_DATASIZE_8BIT)
 8101cbe:	68fb      	ldr	r3, [r7, #12]
 8101cc0:	68db      	ldr	r3, [r3, #12]
 8101cc2:	2b07      	cmp	r3, #7
 8101cc4:	f240 808b 	bls.w	8101dde <HAL_SPI_Receive+0x2fa>
  {
    /* Transfer loop */
    while (hspi->RxXferCount > 0UL)
 8101cc8:	e03f      	b.n	8101d4a <HAL_SPI_Receive+0x266>
    {
      /* Check the RXP flag */
      if (__HAL_SPI_GET_FLAG(hspi, SPI_FLAG_RXP))
 8101cca:	68fb      	ldr	r3, [r7, #12]
 8101ccc:	681b      	ldr	r3, [r3, #0]
 8101cce:	695b      	ldr	r3, [r3, #20]
 8101cd0:	f003 0301 	and.w	r3, r3, #1
 8101cd4:	2b01      	cmp	r3, #1
 8101cd6:	d114      	bne.n	8101d02 <HAL_SPI_Receive+0x21e>
      {
#if defined (__GNUC__)
        *((uint16_t *)hspi->pRxBuffPtr) = *prxdr_16bits;
 8101cd8:	68fb      	ldr	r3, [r7, #12]
 8101cda:	6e5b      	ldr	r3, [r3, #100]	; 0x64
 8101cdc:	69ba      	ldr	r2, [r7, #24]
 8101cde:	8812      	ldrh	r2, [r2, #0]
 8101ce0:	b292      	uxth	r2, r2
 8101ce2:	801a      	strh	r2, [r3, #0]
#else
        *((uint16_t *)hspi->pRxBuffPtr) = *((__IO uint16_t *)&hspi->Instance->RXDR);
#endif /* __GNUC__ */
        hspi->pRxBuffPtr += sizeof(uint16_t);
 8101ce4:	68fb      	ldr	r3, [r7, #12]
 8101ce6:	6e5b      	ldr	r3, [r3, #100]	; 0x64
 8101ce8:	1c9a      	adds	r2, r3, #2
 8101cea:	68fb      	ldr	r3, [r7, #12]
 8101cec:	665a      	str	r2, [r3, #100]	; 0x64
        hspi->RxXferCount--;
 8101cee:	68fb      	ldr	r3, [r7, #12]
 8101cf0:	f8b3 306a 	ldrh.w	r3, [r3, #106]	; 0x6a
 8101cf4:	b29b      	uxth	r3, r3
 8101cf6:	3b01      	subs	r3, #1
 8101cf8:	b29a      	uxth	r2, r3
 8101cfa:	68fb      	ldr	r3, [r7, #12]
 8101cfc:	f8a3 206a 	strh.w	r2, [r3, #106]	; 0x6a
 8101d00:	e023      	b.n	8101d4a <HAL_SPI_Receive+0x266>
      }
      else
      {
        /* Timeout management */
        if ((((HAL_GetTick() - tickstart) >=  Timeout) && (Timeout != HAL_MAX_DELAY)) || (Timeout == 0U))
 8101d02:	f7fe ffc9 	bl	8100c98 <HAL_GetTick>
 8101d06:	4602      	mov	r2, r0
 8101d08:	697b      	ldr	r3, [r7, #20]
 8101d0a:	1ad3      	subs	r3, r2, r3
 8101d0c:	683a      	ldr	r2, [r7, #0]
 8101d0e:	429a      	cmp	r2, r3
 8101d10:	d803      	bhi.n	8101d1a <HAL_SPI_Receive+0x236>
 8101d12:	683b      	ldr	r3, [r7, #0]
 8101d14:	f1b3 3fff 	cmp.w	r3, #4294967295
 8101d18:	d102      	bne.n	8101d20 <HAL_SPI_Receive+0x23c>
 8101d1a:	683b      	ldr	r3, [r7, #0]
 8101d1c:	2b00      	cmp	r3, #0
 8101d1e:	d114      	bne.n	8101d4a <HAL_SPI_Receive+0x266>
        {
          /* Call standard close procedure with error check */
          SPI_CloseTransfer(hspi);
 8101d20:	68f8      	ldr	r0, [r7, #12]
 8101d22:	f000 fa9e 	bl	8102262 <SPI_CloseTransfer>

          /* Unlock the process */
          __HAL_UNLOCK(hspi);
 8101d26:	68fb      	ldr	r3, [r7, #12]
 8101d28:	2200      	movs	r2, #0
 8101d2a:	f883 2080 	strb.w	r2, [r3, #128]	; 0x80

          SET_BIT(hspi->ErrorCode, HAL_SPI_ERROR_TIMEOUT);
 8101d2e:	68fb      	ldr	r3, [r7, #12]
 8101d30:	f8d3 3084 	ldr.w	r3, [r3, #132]	; 0x84
 8101d34:	f443 7280 	orr.w	r2, r3, #256	; 0x100
 8101d38:	68fb      	ldr	r3, [r7, #12]
 8101d3a:	f8c3 2084 	str.w	r2, [r3, #132]	; 0x84
          hspi->State = HAL_SPI_STATE_READY;
 8101d3e:	68fb      	ldr	r3, [r7, #12]
 8101d40:	2201      	movs	r2, #1
 8101d42:	f883 2081 	strb.w	r2, [r3, #129]	; 0x81
          return HAL_TIMEOUT;
 8101d46:	2303      	movs	r3, #3
 8101d48:	e062      	b.n	8101e10 <HAL_SPI_Receive+0x32c>
    while (hspi->RxXferCount > 0UL)
 8101d4a:	68fb      	ldr	r3, [r7, #12]
 8101d4c:	f8b3 306a 	ldrh.w	r3, [r3, #106]	; 0x6a
 8101d50:	b29b      	uxth	r3, r3
 8101d52:	2b00      	cmp	r3, #0
 8101d54:	d1b9      	bne.n	8101cca <HAL_SPI_Receive+0x1e6>
 8101d56:	e048      	b.n	8101dea <HAL_SPI_Receive+0x306>
  {
    /* Transfer loop */
    while (hspi->RxXferCount > 0UL)
    {
      /* Check the RXP flag */
      if (__HAL_SPI_GET_FLAG(hspi, SPI_FLAG_RXP))
 8101d58:	68fb      	ldr	r3, [r7, #12]
 8101d5a:	681b      	ldr	r3, [r3, #0]
 8101d5c:	695b      	ldr	r3, [r3, #20]
 8101d5e:	f003 0301 	and.w	r3, r3, #1
 8101d62:	2b01      	cmp	r3, #1
 8101d64:	d117      	bne.n	8101d96 <HAL_SPI_Receive+0x2b2>
      {
        *((uint8_t *)hspi->pRxBuffPtr) = *((__IO uint8_t *)&hspi->Instance->RXDR);
 8101d66:	68fb      	ldr	r3, [r7, #12]
 8101d68:	681b      	ldr	r3, [r3, #0]
 8101d6a:	f103 0230 	add.w	r2, r3, #48	; 0x30
 8101d6e:	68fb      	ldr	r3, [r7, #12]
 8101d70:	6e5b      	ldr	r3, [r3, #100]	; 0x64
 8101d72:	7812      	ldrb	r2, [r2, #0]
 8101d74:	b2d2      	uxtb	r2, r2
 8101d76:	701a      	strb	r2, [r3, #0]
        hspi->pRxBuffPtr += sizeof(uint8_t);
 8101d78:	68fb      	ldr	r3, [r7, #12]
 8101d7a:	6e5b      	ldr	r3, [r3, #100]	; 0x64
 8101d7c:	1c5a      	adds	r2, r3, #1
 8101d7e:	68fb      	ldr	r3, [r7, #12]
 8101d80:	665a      	str	r2, [r3, #100]	; 0x64
        hspi->RxXferCount--;
 8101d82:	68fb      	ldr	r3, [r7, #12]
 8101d84:	f8b3 306a 	ldrh.w	r3, [r3, #106]	; 0x6a
 8101d88:	b29b      	uxth	r3, r3
 8101d8a:	3b01      	subs	r3, #1
 8101d8c:	b29a      	uxth	r2, r3
 8101d8e:	68fb      	ldr	r3, [r7, #12]
 8101d90:	f8a3 206a 	strh.w	r2, [r3, #106]	; 0x6a
 8101d94:	e023      	b.n	8101dde <HAL_SPI_Receive+0x2fa>
      }
      else
      {
        /* Timeout management */
        if ((((HAL_GetTick() - tickstart) >=  Timeout) && (Timeout != HAL_MAX_DELAY)) || (Timeout == 0U))
 8101d96:	f7fe ff7f 	bl	8100c98 <HAL_GetTick>
 8101d9a:	4602      	mov	r2, r0
 8101d9c:	697b      	ldr	r3, [r7, #20]
 8101d9e:	1ad3      	subs	r3, r2, r3
 8101da0:	683a      	ldr	r2, [r7, #0]
 8101da2:	429a      	cmp	r2, r3
 8101da4:	d803      	bhi.n	8101dae <HAL_SPI_Receive+0x2ca>
 8101da6:	683b      	ldr	r3, [r7, #0]
 8101da8:	f1b3 3fff 	cmp.w	r3, #4294967295
 8101dac:	d102      	bne.n	8101db4 <HAL_SPI_Receive+0x2d0>
 8101dae:	683b      	ldr	r3, [r7, #0]
 8101db0:	2b00      	cmp	r3, #0
 8101db2:	d114      	bne.n	8101dde <HAL_SPI_Receive+0x2fa>
        {
          /* Call standard close procedure with error check */
          SPI_CloseTransfer(hspi);
 8101db4:	68f8      	ldr	r0, [r7, #12]
 8101db6:	f000 fa54 	bl	8102262 <SPI_CloseTransfer>

          /* Unlock the process */
          __HAL_UNLOCK(hspi);
 8101dba:	68fb      	ldr	r3, [r7, #12]
 8101dbc:	2200      	movs	r2, #0
 8101dbe:	f883 2080 	strb.w	r2, [r3, #128]	; 0x80

          SET_BIT(hspi->ErrorCode, HAL_SPI_ERROR_TIMEOUT);
 8101dc2:	68fb      	ldr	r3, [r7, #12]
 8101dc4:	f8d3 3084 	ldr.w	r3, [r3, #132]	; 0x84
 8101dc8:	f443 7280 	orr.w	r2, r3, #256	; 0x100
 8101dcc:	68fb      	ldr	r3, [r7, #12]
 8101dce:	f8c3 2084 	str.w	r2, [r3, #132]	; 0x84
          hspi->State = HAL_SPI_STATE_READY;
 8101dd2:	68fb      	ldr	r3, [r7, #12]
 8101dd4:	2201      	movs	r2, #1
 8101dd6:	f883 2081 	strb.w	r2, [r3, #129]	; 0x81
          return HAL_TIMEOUT;
 8101dda:	2303      	movs	r3, #3
 8101ddc:	e018      	b.n	8101e10 <HAL_SPI_Receive+0x32c>
    while (hspi->RxXferCount > 0UL)
 8101dde:	68fb      	ldr	r3, [r7, #12]
 8101de0:	f8b3 306a 	ldrh.w	r3, [r3, #106]	; 0x6a
 8101de4:	b29b      	uxth	r3, r3
 8101de6:	2b00      	cmp	r3, #0
 8101de8:	d1b6      	bne.n	8101d58 <HAL_SPI_Receive+0x274>
    }
  }
#endif /* USE_SPI_CRC */

  /* Call standard close procedure with error check */
  SPI_CloseTransfer(hspi);
 8101dea:	68f8      	ldr	r0, [r7, #12]
 8101dec:	f000 fa39 	bl	8102262 <SPI_CloseTransfer>

  /* Unlock the process */
  __HAL_UNLOCK(hspi);
 8101df0:	68fb      	ldr	r3, [r7, #12]
 8101df2:	2200      	movs	r2, #0
 8101df4:	f883 2080 	strb.w	r2, [r3, #128]	; 0x80

  hspi->State = HAL_SPI_STATE_READY;
 8101df8:	68fb      	ldr	r3, [r7, #12]
 8101dfa:	2201      	movs	r2, #1
 8101dfc:	f883 2081 	strb.w	r2, [r3, #129]	; 0x81

  if (hspi->ErrorCode != HAL_SPI_ERROR_NONE)
 8101e00:	68fb      	ldr	r3, [r7, #12]
 8101e02:	f8d3 3084 	ldr.w	r3, [r3, #132]	; 0x84
 8101e06:	2b00      	cmp	r3, #0
 8101e08:	d001      	beq.n	8101e0e <HAL_SPI_Receive+0x32a>
  {
    return HAL_ERROR;
 8101e0a:	2301      	movs	r3, #1
 8101e0c:	e000      	b.n	8101e10 <HAL_SPI_Receive+0x32c>
  }
  return errorcode;
 8101e0e:	7ffb      	ldrb	r3, [r7, #31]
}
 8101e10:	4618      	mov	r0, r3
 8101e12:	3720      	adds	r7, #32
 8101e14:	46bd      	mov	sp, r7
 8101e16:	bd80      	pop	{r7, pc}

08101e18 <HAL_SPI_TransmitReceive>:
  * @param  Timeout: Timeout duration
  * @retval HAL status
  */
HAL_StatusTypeDef HAL_SPI_TransmitReceive(SPI_HandleTypeDef *hspi, uint8_t *pTxData, uint8_t *pRxData, uint16_t Size,
                                          uint32_t Timeout)
{
 8101e18:	b580      	push	{r7, lr}
 8101e1a:	b08e      	sub	sp, #56	; 0x38
 8101e1c:	af02      	add	r7, sp, #8
 8101e1e:	60f8      	str	r0, [r7, #12]
 8101e20:	60b9      	str	r1, [r7, #8]
 8101e22:	607a      	str	r2, [r7, #4]
 8101e24:	807b      	strh	r3, [r7, #2]
  HAL_SPI_StateTypeDef tmp_state;
  HAL_StatusTypeDef errorcode = HAL_OK;
 8101e26:	2300      	movs	r3, #0
 8101e28:	f887 302b 	strb.w	r3, [r7, #43]	; 0x2b
#if defined (__GNUC__)
  __IO uint16_t *ptxdr_16bits = (__IO uint16_t *)(&(hspi->Instance->TXDR));
 8101e2c:	68fb      	ldr	r3, [r7, #12]
 8101e2e:	681b      	ldr	r3, [r3, #0]
 8101e30:	3320      	adds	r3, #32
 8101e32:	627b      	str	r3, [r7, #36]	; 0x24
  __IO uint16_t *prxdr_16bits = (__IO uint16_t *)(&(hspi->Instance->RXDR));
 8101e34:	68fb      	ldr	r3, [r7, #12]
 8101e36:	681b      	ldr	r3, [r3, #0]
 8101e38:	3330      	adds	r3, #48	; 0x30
 8101e3a:	623b      	str	r3, [r7, #32]

  /* Check Direction parameter */
  assert_param(IS_SPI_DIRECTION_2LINES(hspi->Init.Direction));

  /* Lock the process */
  __HAL_LOCK(hspi);
 8101e3c:	68fb      	ldr	r3, [r7, #12]
 8101e3e:	f893 3080 	ldrb.w	r3, [r3, #128]	; 0x80
 8101e42:	2b01      	cmp	r3, #1
 8101e44:	d101      	bne.n	8101e4a <HAL_SPI_TransmitReceive+0x32>
 8101e46:	2302      	movs	r3, #2
 8101e48:	e207      	b.n	810225a <HAL_SPI_TransmitReceive+0x442>
 8101e4a:	68fb      	ldr	r3, [r7, #12]
 8101e4c:	2201      	movs	r2, #1
 8101e4e:	f883 2080 	strb.w	r2, [r3, #128]	; 0x80

  /* Init tickstart for timeout management*/
  tickstart = HAL_GetTick();
 8101e52:	f7fe ff21 	bl	8100c98 <HAL_GetTick>
 8101e56:	61f8      	str	r0, [r7, #28]

  initial_TxXferCount = Size;
 8101e58:	887b      	ldrh	r3, [r7, #2]
 8101e5a:	85fb      	strh	r3, [r7, #46]	; 0x2e
  initial_RxXferCount = Size;
 8101e5c:	887b      	ldrh	r3, [r7, #2]
 8101e5e:	85bb      	strh	r3, [r7, #44]	; 0x2c
  tmp_state           = hspi->State;
 8101e60:	68fb      	ldr	r3, [r7, #12]
 8101e62:	f893 3081 	ldrb.w	r3, [r3, #129]	; 0x81
 8101e66:	76fb      	strb	r3, [r7, #27]
  tmp_mode            = hspi->Init.Mode;
 8101e68:	68fb      	ldr	r3, [r7, #12]
 8101e6a:	685b      	ldr	r3, [r3, #4]
 8101e6c:	617b      	str	r3, [r7, #20]

  if (!((tmp_state == HAL_SPI_STATE_READY) || \
 8101e6e:	7efb      	ldrb	r3, [r7, #27]
 8101e70:	2b01      	cmp	r3, #1
 8101e72:	d014      	beq.n	8101e9e <HAL_SPI_TransmitReceive+0x86>
 8101e74:	697b      	ldr	r3, [r7, #20]
 8101e76:	f5b3 0f80 	cmp.w	r3, #4194304	; 0x400000
 8101e7a:	d106      	bne.n	8101e8a <HAL_SPI_TransmitReceive+0x72>
        ((tmp_mode == SPI_MODE_MASTER) && \
         (hspi->Init.Direction == SPI_DIRECTION_2LINES) && \
 8101e7c:	68fb      	ldr	r3, [r7, #12]
 8101e7e:	689b      	ldr	r3, [r3, #8]
        ((tmp_mode == SPI_MODE_MASTER) && \
 8101e80:	2b00      	cmp	r3, #0
 8101e82:	d102      	bne.n	8101e8a <HAL_SPI_TransmitReceive+0x72>
         (hspi->Init.Direction == SPI_DIRECTION_2LINES) && \
 8101e84:	7efb      	ldrb	r3, [r7, #27]
 8101e86:	2b04      	cmp	r3, #4
 8101e88:	d009      	beq.n	8101e9e <HAL_SPI_TransmitReceive+0x86>
         (tmp_state == HAL_SPI_STATE_BUSY_RX))))
  {
    errorcode = HAL_BUSY;
 8101e8a:	2302      	movs	r3, #2
 8101e8c:	f887 302b 	strb.w	r3, [r7, #43]	; 0x2b
    __HAL_UNLOCK(hspi);
 8101e90:	68fb      	ldr	r3, [r7, #12]
 8101e92:	2200      	movs	r2, #0
 8101e94:	f883 2080 	strb.w	r2, [r3, #128]	; 0x80
    return errorcode;
 8101e98:	f897 302b 	ldrb.w	r3, [r7, #43]	; 0x2b
 8101e9c:	e1dd      	b.n	810225a <HAL_SPI_TransmitReceive+0x442>
  }

  if ((pTxData == NULL) || (pRxData == NULL) || (Size == 0UL))
 8101e9e:	68bb      	ldr	r3, [r7, #8]
 8101ea0:	2b00      	cmp	r3, #0
 8101ea2:	d005      	beq.n	8101eb0 <HAL_SPI_TransmitReceive+0x98>
 8101ea4:	687b      	ldr	r3, [r7, #4]
 8101ea6:	2b00      	cmp	r3, #0
 8101ea8:	d002      	beq.n	8101eb0 <HAL_SPI_TransmitReceive+0x98>
 8101eaa:	887b      	ldrh	r3, [r7, #2]
 8101eac:	2b00      	cmp	r3, #0
 8101eae:	d109      	bne.n	8101ec4 <HAL_SPI_TransmitReceive+0xac>
  {
    errorcode = HAL_ERROR;
 8101eb0:	2301      	movs	r3, #1
 8101eb2:	f887 302b 	strb.w	r3, [r7, #43]	; 0x2b
    __HAL_UNLOCK(hspi);
 8101eb6:	68fb      	ldr	r3, [r7, #12]
 8101eb8:	2200      	movs	r2, #0
 8101eba:	f883 2080 	strb.w	r2, [r3, #128]	; 0x80
    return errorcode;
 8101ebe:	f897 302b 	ldrb.w	r3, [r7, #43]	; 0x2b
 8101ec2:	e1ca      	b.n	810225a <HAL_SPI_TransmitReceive+0x442>
  }

  /* Don't overwrite in case of HAL_SPI_STATE_BUSY_RX */
  if (hspi->State != HAL_SPI_STATE_BUSY_RX)
 8101ec4:	68fb      	ldr	r3, [r7, #12]
 8101ec6:	f893 3081 	ldrb.w	r3, [r3, #129]	; 0x81
 8101eca:	b2db      	uxtb	r3, r3
 8101ecc:	2b04      	cmp	r3, #4
 8101ece:	d003      	beq.n	8101ed8 <HAL_SPI_TransmitReceive+0xc0>
  {
    hspi->State = HAL_SPI_STATE_BUSY_TX_RX;
 8101ed0:	68fb      	ldr	r3, [r7, #12]
 8101ed2:	2205      	movs	r2, #5
 8101ed4:	f883 2081 	strb.w	r2, [r3, #129]	; 0x81
  }

  /* Set the transaction information */
  hspi->ErrorCode   = HAL_SPI_ERROR_NONE;
 8101ed8:	68fb      	ldr	r3, [r7, #12]
 8101eda:	2200      	movs	r2, #0
 8101edc:	f8c3 2084 	str.w	r2, [r3, #132]	; 0x84
  hspi->pRxBuffPtr  = (uint8_t *)pRxData;
 8101ee0:	68fb      	ldr	r3, [r7, #12]
 8101ee2:	687a      	ldr	r2, [r7, #4]
 8101ee4:	665a      	str	r2, [r3, #100]	; 0x64
  hspi->RxXferCount = Size;
 8101ee6:	68fb      	ldr	r3, [r7, #12]
 8101ee8:	887a      	ldrh	r2, [r7, #2]
 8101eea:	f8a3 206a 	strh.w	r2, [r3, #106]	; 0x6a
  hspi->RxXferSize  = Size;
 8101eee:	68fb      	ldr	r3, [r7, #12]
 8101ef0:	887a      	ldrh	r2, [r7, #2]
 8101ef2:	f8a3 2068 	strh.w	r2, [r3, #104]	; 0x68
  hspi->pTxBuffPtr  = (uint8_t *)pTxData;
 8101ef6:	68fb      	ldr	r3, [r7, #12]
 8101ef8:	68ba      	ldr	r2, [r7, #8]
 8101efa:	65da      	str	r2, [r3, #92]	; 0x5c
  hspi->TxXferCount = Size;
 8101efc:	68fb      	ldr	r3, [r7, #12]
 8101efe:	887a      	ldrh	r2, [r7, #2]
 8101f00:	f8a3 2062 	strh.w	r2, [r3, #98]	; 0x62
  hspi->TxXferSize  = Size;
 8101f04:	68fb      	ldr	r3, [r7, #12]
 8101f06:	887a      	ldrh	r2, [r7, #2]
 8101f08:	f8a3 2060 	strh.w	r2, [r3, #96]	; 0x60

  /*Init field not used in handle to zero */
  hspi->RxISR       = NULL;
 8101f0c:	68fb      	ldr	r3, [r7, #12]
 8101f0e:	2200      	movs	r2, #0
 8101f10:	671a      	str	r2, [r3, #112]	; 0x70
  hspi->TxISR       = NULL;
 8101f12:	68fb      	ldr	r3, [r7, #12]
 8101f14:	2200      	movs	r2, #0
 8101f16:	675a      	str	r2, [r3, #116]	; 0x74

  /* Set the number of data at current transfer */
  MODIFY_REG(hspi->Instance->CR2, SPI_CR2_TSIZE, Size);
 8101f18:	68fb      	ldr	r3, [r7, #12]
 8101f1a:	681b      	ldr	r3, [r3, #0]
 8101f1c:	685b      	ldr	r3, [r3, #4]
 8101f1e:	0c1b      	lsrs	r3, r3, #16
 8101f20:	041b      	lsls	r3, r3, #16
 8101f22:	8879      	ldrh	r1, [r7, #2]
 8101f24:	68fa      	ldr	r2, [r7, #12]
 8101f26:	6812      	ldr	r2, [r2, #0]
 8101f28:	430b      	orrs	r3, r1
 8101f2a:	6053      	str	r3, [r2, #4]

  __HAL_SPI_ENABLE(hspi);
 8101f2c:	68fb      	ldr	r3, [r7, #12]
 8101f2e:	681b      	ldr	r3, [r3, #0]
 8101f30:	681a      	ldr	r2, [r3, #0]
 8101f32:	68fb      	ldr	r3, [r7, #12]
 8101f34:	681b      	ldr	r3, [r3, #0]
 8101f36:	f042 0201 	orr.w	r2, r2, #1
 8101f3a:	601a      	str	r2, [r3, #0]

  if (hspi->Init.Mode == SPI_MODE_MASTER)
 8101f3c:	68fb      	ldr	r3, [r7, #12]
 8101f3e:	685b      	ldr	r3, [r3, #4]
 8101f40:	f5b3 0f80 	cmp.w	r3, #4194304	; 0x400000
 8101f44:	d107      	bne.n	8101f56 <HAL_SPI_TransmitReceive+0x13e>
  {
    /* Master transfer start */
    SET_BIT(hspi->Instance->CR1, SPI_CR1_CSTART);
 8101f46:	68fb      	ldr	r3, [r7, #12]
 8101f48:	681b      	ldr	r3, [r3, #0]
 8101f4a:	681a      	ldr	r2, [r3, #0]
 8101f4c:	68fb      	ldr	r3, [r7, #12]
 8101f4e:	681b      	ldr	r3, [r3, #0]
 8101f50:	f442 7200 	orr.w	r2, r2, #512	; 0x200
 8101f54:	601a      	str	r2, [r3, #0]
  }

  /* Transmit and Receive data in 32 Bit mode */
  if (hspi->Init.DataSize > SPI_DATASIZE_16BIT)
 8101f56:	68fb      	ldr	r3, [r7, #12]
 8101f58:	68db      	ldr	r3, [r3, #12]
 8101f5a:	2b0f      	cmp	r3, #15
 8101f5c:	d970      	bls.n	8102040 <HAL_SPI_TransmitReceive+0x228>
  {
    while ((initial_TxXferCount > 0UL) || (initial_RxXferCount > 0UL))
 8101f5e:	e068      	b.n	8102032 <HAL_SPI_TransmitReceive+0x21a>
    {
      /* Check TXP flag */
      if ((__HAL_SPI_GET_FLAG(hspi, SPI_FLAG_TXP)) && (initial_TxXferCount > 0UL))
 8101f60:	68fb      	ldr	r3, [r7, #12]
 8101f62:	681b      	ldr	r3, [r3, #0]
 8101f64:	695b      	ldr	r3, [r3, #20]
 8101f66:	f003 0302 	and.w	r3, r3, #2
 8101f6a:	2b02      	cmp	r3, #2
 8101f6c:	d11a      	bne.n	8101fa4 <HAL_SPI_TransmitReceive+0x18c>
 8101f6e:	8dfb      	ldrh	r3, [r7, #46]	; 0x2e
 8101f70:	2b00      	cmp	r3, #0
 8101f72:	d017      	beq.n	8101fa4 <HAL_SPI_TransmitReceive+0x18c>
      {
        *((__IO uint32_t *)&hspi->Instance->TXDR) = *((uint32_t *)hspi->pTxBuffPtr);
 8101f74:	68fb      	ldr	r3, [r7, #12]
 8101f76:	6dda      	ldr	r2, [r3, #92]	; 0x5c
 8101f78:	68fb      	ldr	r3, [r7, #12]
 8101f7a:	681b      	ldr	r3, [r3, #0]
 8101f7c:	6812      	ldr	r2, [r2, #0]
 8101f7e:	621a      	str	r2, [r3, #32]
        hspi->pTxBuffPtr += sizeof(uint32_t);
 8101f80:	68fb      	ldr	r3, [r7, #12]
 8101f82:	6ddb      	ldr	r3, [r3, #92]	; 0x5c
 8101f84:	1d1a      	adds	r2, r3, #4
 8101f86:	68fb      	ldr	r3, [r7, #12]
 8101f88:	65da      	str	r2, [r3, #92]	; 0x5c
        hspi->TxXferCount --;
 8101f8a:	68fb      	ldr	r3, [r7, #12]
 8101f8c:	f8b3 3062 	ldrh.w	r3, [r3, #98]	; 0x62
 8101f90:	b29b      	uxth	r3, r3
 8101f92:	3b01      	subs	r3, #1
 8101f94:	b29a      	uxth	r2, r3
 8101f96:	68fb      	ldr	r3, [r7, #12]
 8101f98:	f8a3 2062 	strh.w	r2, [r3, #98]	; 0x62
        initial_TxXferCount = hspi->TxXferCount;
 8101f9c:	68fb      	ldr	r3, [r7, #12]
 8101f9e:	f8b3 3062 	ldrh.w	r3, [r3, #98]	; 0x62
 8101fa2:	85fb      	strh	r3, [r7, #46]	; 0x2e
      }

      /* Check RXWNE/EOT flag */
      if (((hspi->Instance->SR & (SPI_FLAG_RXWNE | SPI_FLAG_EOT)) != 0UL) && (initial_RxXferCount > 0UL))
 8101fa4:	68fb      	ldr	r3, [r7, #12]
 8101fa6:	681b      	ldr	r3, [r3, #0]
 8101fa8:	695a      	ldr	r2, [r3, #20]
 8101faa:	f248 0308 	movw	r3, #32776	; 0x8008
 8101fae:	4013      	ands	r3, r2
 8101fb0:	2b00      	cmp	r3, #0
 8101fb2:	d01a      	beq.n	8101fea <HAL_SPI_TransmitReceive+0x1d2>
 8101fb4:	8dbb      	ldrh	r3, [r7, #44]	; 0x2c
 8101fb6:	2b00      	cmp	r3, #0
 8101fb8:	d017      	beq.n	8101fea <HAL_SPI_TransmitReceive+0x1d2>
      {
        *((uint32_t *)hspi->pRxBuffPtr) = *((__IO uint32_t *)&hspi->Instance->RXDR);
 8101fba:	68fb      	ldr	r3, [r7, #12]
 8101fbc:	681a      	ldr	r2, [r3, #0]
 8101fbe:	68fb      	ldr	r3, [r7, #12]
 8101fc0:	6e5b      	ldr	r3, [r3, #100]	; 0x64
 8101fc2:	6b12      	ldr	r2, [r2, #48]	; 0x30
 8101fc4:	601a      	str	r2, [r3, #0]
        hspi->pRxBuffPtr += sizeof(uint32_t);
 8101fc6:	68fb      	ldr	r3, [r7, #12]
 8101fc8:	6e5b      	ldr	r3, [r3, #100]	; 0x64
 8101fca:	1d1a      	adds	r2, r3, #4
 8101fcc:	68fb      	ldr	r3, [r7, #12]
 8101fce:	665a      	str	r2, [r3, #100]	; 0x64
        hspi->RxXferCount --;
 8101fd0:	68fb      	ldr	r3, [r7, #12]
 8101fd2:	f8b3 306a 	ldrh.w	r3, [r3, #106]	; 0x6a
 8101fd6:	b29b      	uxth	r3, r3
 8101fd8:	3b01      	subs	r3, #1
 8101fda:	b29a      	uxth	r2, r3
 8101fdc:	68fb      	ldr	r3, [r7, #12]
 8101fde:	f8a3 206a 	strh.w	r2, [r3, #106]	; 0x6a
        initial_RxXferCount = hspi->RxXferCount;
 8101fe2:	68fb      	ldr	r3, [r7, #12]
 8101fe4:	f8b3 306a 	ldrh.w	r3, [r3, #106]	; 0x6a
 8101fe8:	85bb      	strh	r3, [r7, #44]	; 0x2c
      }

      /* Timeout management */
      if ((((HAL_GetTick() - tickstart) >=  Timeout) && (Timeout != HAL_MAX_DELAY)) || (Timeout == 0U))
 8101fea:	f7fe fe55 	bl	8100c98 <HAL_GetTick>
 8101fee:	4602      	mov	r2, r0
 8101ff0:	69fb      	ldr	r3, [r7, #28]
 8101ff2:	1ad3      	subs	r3, r2, r3
 8101ff4:	6bba      	ldr	r2, [r7, #56]	; 0x38
 8101ff6:	429a      	cmp	r2, r3
 8101ff8:	d803      	bhi.n	8102002 <HAL_SPI_TransmitReceive+0x1ea>
 8101ffa:	6bbb      	ldr	r3, [r7, #56]	; 0x38
 8101ffc:	f1b3 3fff 	cmp.w	r3, #4294967295
 8102000:	d102      	bne.n	8102008 <HAL_SPI_TransmitReceive+0x1f0>
 8102002:	6bbb      	ldr	r3, [r7, #56]	; 0x38
 8102004:	2b00      	cmp	r3, #0
 8102006:	d114      	bne.n	8102032 <HAL_SPI_TransmitReceive+0x21a>
      {
        /* Call standard close procedure with error check */
        SPI_CloseTransfer(hspi);
 8102008:	68f8      	ldr	r0, [r7, #12]
 810200a:	f000 f92a 	bl	8102262 <SPI_CloseTransfer>

        /* Unlock the process */
        __HAL_UNLOCK(hspi);
 810200e:	68fb      	ldr	r3, [r7, #12]
 8102010:	2200      	movs	r2, #0
 8102012:	f883 2080 	strb.w	r2, [r3, #128]	; 0x80

        SET_BIT(hspi->ErrorCode, HAL_SPI_ERROR_TIMEOUT);
 8102016:	68fb      	ldr	r3, [r7, #12]
 8102018:	f8d3 3084 	ldr.w	r3, [r3, #132]	; 0x84
 810201c:	f443 7280 	orr.w	r2, r3, #256	; 0x100
 8102020:	68fb      	ldr	r3, [r7, #12]
 8102022:	f8c3 2084 	str.w	r2, [r3, #132]	; 0x84
        hspi->State = HAL_SPI_STATE_READY;
 8102026:	68fb      	ldr	r3, [r7, #12]
 8102028:	2201      	movs	r2, #1
 810202a:	f883 2081 	strb.w	r2, [r3, #129]	; 0x81
        return HAL_TIMEOUT;
 810202e:	2303      	movs	r3, #3
 8102030:	e113      	b.n	810225a <HAL_SPI_TransmitReceive+0x442>
    while ((initial_TxXferCount > 0UL) || (initial_RxXferCount > 0UL))
 8102032:	8dfb      	ldrh	r3, [r7, #46]	; 0x2e
 8102034:	2b00      	cmp	r3, #0
 8102036:	d193      	bne.n	8101f60 <HAL_SPI_TransmitReceive+0x148>
 8102038:	8dbb      	ldrh	r3, [r7, #44]	; 0x2c
 810203a:	2b00      	cmp	r3, #0
 810203c:	d190      	bne.n	8101f60 <HAL_SPI_TransmitReceive+0x148>
 810203e:	e0e5      	b.n	810220c <HAL_SPI_TransmitReceive+0x3f4>
      }
    }
  }
  /* Transmit and Receive data in 16 Bit mode */
  else if (hspi->Init.DataSize > SPI_DATASIZE_8BIT)
 8102040:	68fb      	ldr	r3, [r7, #12]
 8102042:	68db      	ldr	r3, [r3, #12]
 8102044:	2b07      	cmp	r3, #7
 8102046:	f240 80db 	bls.w	8102200 <HAL_SPI_TransmitReceive+0x3e8>
  {
    while ((initial_TxXferCount > 0UL) || (initial_RxXferCount > 0UL))
 810204a:	e066      	b.n	810211a <HAL_SPI_TransmitReceive+0x302>
    {
      /* Check the TXP flag */
      if (__HAL_SPI_GET_FLAG(hspi, SPI_FLAG_TXP) && (initial_TxXferCount > 0UL))
 810204c:	68fb      	ldr	r3, [r7, #12]
 810204e:	681b      	ldr	r3, [r3, #0]
 8102050:	695b      	ldr	r3, [r3, #20]
 8102052:	f003 0302 	and.w	r3, r3, #2
 8102056:	2b02      	cmp	r3, #2
 8102058:	d119      	bne.n	810208e <HAL_SPI_TransmitReceive+0x276>
 810205a:	8dfb      	ldrh	r3, [r7, #46]	; 0x2e
 810205c:	2b00      	cmp	r3, #0
 810205e:	d016      	beq.n	810208e <HAL_SPI_TransmitReceive+0x276>
      {
#if defined (__GNUC__)
        *ptxdr_16bits = *((uint16_t *)hspi->pTxBuffPtr);
 8102060:	68fb      	ldr	r3, [r7, #12]
 8102062:	6ddb      	ldr	r3, [r3, #92]	; 0x5c
 8102064:	881a      	ldrh	r2, [r3, #0]
 8102066:	6a7b      	ldr	r3, [r7, #36]	; 0x24
 8102068:	801a      	strh	r2, [r3, #0]
#else
        *((__IO uint16_t *)&hspi->Instance->TXDR) = *((uint16_t *)hspi->pTxBuffPtr);
#endif /* __GNUC__ */
        hspi->pTxBuffPtr += sizeof(uint16_t);
 810206a:	68fb      	ldr	r3, [r7, #12]
 810206c:	6ddb      	ldr	r3, [r3, #92]	; 0x5c
 810206e:	1c9a      	adds	r2, r3, #2
 8102070:	68fb      	ldr	r3, [r7, #12]
 8102072:	65da      	str	r2, [r3, #92]	; 0x5c
        hspi->TxXferCount--;
 8102074:	68fb      	ldr	r3, [r7, #12]
 8102076:	f8b3 3062 	ldrh.w	r3, [r3, #98]	; 0x62
 810207a:	b29b      	uxth	r3, r3
 810207c:	3b01      	subs	r3, #1
 810207e:	b29a      	uxth	r2, r3
 8102080:	68fb      	ldr	r3, [r7, #12]
 8102082:	f8a3 2062 	strh.w	r2, [r3, #98]	; 0x62
        initial_TxXferCount = hspi->TxXferCount;
 8102086:	68fb      	ldr	r3, [r7, #12]
 8102088:	f8b3 3062 	ldrh.w	r3, [r3, #98]	; 0x62
 810208c:	85fb      	strh	r3, [r7, #46]	; 0x2e
      }

      /* Check the RXP flag */
      if ((__HAL_SPI_GET_FLAG(hspi, SPI_FLAG_RXP)) && (initial_RxXferCount > 0UL))
 810208e:	68fb      	ldr	r3, [r7, #12]
 8102090:	681b      	ldr	r3, [r3, #0]
 8102092:	695b      	ldr	r3, [r3, #20]
 8102094:	f003 0301 	and.w	r3, r3, #1
 8102098:	2b01      	cmp	r3, #1
 810209a:	d11a      	bne.n	81020d2 <HAL_SPI_TransmitReceive+0x2ba>
 810209c:	8dbb      	ldrh	r3, [r7, #44]	; 0x2c
 810209e:	2b00      	cmp	r3, #0
 81020a0:	d017      	beq.n	81020d2 <HAL_SPI_TransmitReceive+0x2ba>
      {
#if defined (__GNUC__)
        *((uint16_t *)hspi->pRxBuffPtr) = *prxdr_16bits;
 81020a2:	68fb      	ldr	r3, [r7, #12]
 81020a4:	6e5b      	ldr	r3, [r3, #100]	; 0x64
 81020a6:	6a3a      	ldr	r2, [r7, #32]
 81020a8:	8812      	ldrh	r2, [r2, #0]
 81020aa:	b292      	uxth	r2, r2
 81020ac:	801a      	strh	r2, [r3, #0]
#else
        *((uint16_t *)hspi->pRxBuffPtr) = *((__IO uint16_t *)&hspi->Instance->RXDR);
#endif /* __GNUC__ */
        hspi->pRxBuffPtr += sizeof(uint16_t);
 81020ae:	68fb      	ldr	r3, [r7, #12]
 81020b0:	6e5b      	ldr	r3, [r3, #100]	; 0x64
 81020b2:	1c9a      	adds	r2, r3, #2
 81020b4:	68fb      	ldr	r3, [r7, #12]
 81020b6:	665a      	str	r2, [r3, #100]	; 0x64
        hspi->RxXferCount--;
 81020b8:	68fb      	ldr	r3, [r7, #12]
 81020ba:	f8b3 306a 	ldrh.w	r3, [r3, #106]	; 0x6a
 81020be:	b29b      	uxth	r3, r3
 81020c0:	3b01      	subs	r3, #1
 81020c2:	b29a      	uxth	r2, r3
 81020c4:	68fb      	ldr	r3, [r7, #12]
 81020c6:	f8a3 206a 	strh.w	r2, [r3, #106]	; 0x6a
        initial_RxXferCount = hspi->RxXferCount;
 81020ca:	68fb      	ldr	r3, [r7, #12]
 81020cc:	f8b3 306a 	ldrh.w	r3, [r3, #106]	; 0x6a
 81020d0:	85bb      	strh	r3, [r7, #44]	; 0x2c
      }

      /* Timeout management */
      if ((((HAL_GetTick() - tickstart) >=  Timeout) && (Timeout != HAL_MAX_DELAY)) || (Timeout == 0U))
 81020d2:	f7fe fde1 	bl	8100c98 <HAL_GetTick>
 81020d6:	4602      	mov	r2, r0
 81020d8:	69fb      	ldr	r3, [r7, #28]
 81020da:	1ad3      	subs	r3, r2, r3
 81020dc:	6bba      	ldr	r2, [r7, #56]	; 0x38
 81020de:	429a      	cmp	r2, r3
 81020e0:	d803      	bhi.n	81020ea <HAL_SPI_TransmitReceive+0x2d2>
 81020e2:	6bbb      	ldr	r3, [r7, #56]	; 0x38
 81020e4:	f1b3 3fff 	cmp.w	r3, #4294967295
 81020e8:	d102      	bne.n	81020f0 <HAL_SPI_TransmitReceive+0x2d8>
 81020ea:	6bbb      	ldr	r3, [r7, #56]	; 0x38
 81020ec:	2b00      	cmp	r3, #0
 81020ee:	d114      	bne.n	810211a <HAL_SPI_TransmitReceive+0x302>
      {
        /* Call standard close procedure with error check */
        SPI_CloseTransfer(hspi);
 81020f0:	68f8      	ldr	r0, [r7, #12]
 81020f2:	f000 f8b6 	bl	8102262 <SPI_CloseTransfer>

        /* Unlock the process */
        __HAL_UNLOCK(hspi);
 81020f6:	68fb      	ldr	r3, [r7, #12]
 81020f8:	2200      	movs	r2, #0
 81020fa:	f883 2080 	strb.w	r2, [r3, #128]	; 0x80

        SET_BIT(hspi->ErrorCode, HAL_SPI_ERROR_TIMEOUT);
 81020fe:	68fb      	ldr	r3, [r7, #12]
 8102100:	f8d3 3084 	ldr.w	r3, [r3, #132]	; 0x84
 8102104:	f443 7280 	orr.w	r2, r3, #256	; 0x100
 8102108:	68fb      	ldr	r3, [r7, #12]
 810210a:	f8c3 2084 	str.w	r2, [r3, #132]	; 0x84
        hspi->State = HAL_SPI_STATE_READY;
 810210e:	68fb      	ldr	r3, [r7, #12]
 8102110:	2201      	movs	r2, #1
 8102112:	f883 2081 	strb.w	r2, [r3, #129]	; 0x81
        return HAL_TIMEOUT;
 8102116:	2303      	movs	r3, #3
 8102118:	e09f      	b.n	810225a <HAL_SPI_TransmitReceive+0x442>
    while ((initial_TxXferCount > 0UL) || (initial_RxXferCount > 0UL))
 810211a:	8dfb      	ldrh	r3, [r7, #46]	; 0x2e
 810211c:	2b00      	cmp	r3, #0
 810211e:	d195      	bne.n	810204c <HAL_SPI_TransmitReceive+0x234>
 8102120:	8dbb      	ldrh	r3, [r7, #44]	; 0x2c
 8102122:	2b00      	cmp	r3, #0
 8102124:	d192      	bne.n	810204c <HAL_SPI_TransmitReceive+0x234>
 8102126:	e071      	b.n	810220c <HAL_SPI_TransmitReceive+0x3f4>
  else
  {
    while ((initial_TxXferCount > 0UL) || (initial_RxXferCount > 0UL))
    {
      /* Check the TXP flag */
      if ((__HAL_SPI_GET_FLAG(hspi, SPI_FLAG_TXP)) && (initial_TxXferCount > 0UL))
 8102128:	68fb      	ldr	r3, [r7, #12]
 810212a:	681b      	ldr	r3, [r3, #0]
 810212c:	695b      	ldr	r3, [r3, #20]
 810212e:	f003 0302 	and.w	r3, r3, #2
 8102132:	2b02      	cmp	r3, #2
 8102134:	d11b      	bne.n	810216e <HAL_SPI_TransmitReceive+0x356>
 8102136:	8dfb      	ldrh	r3, [r7, #46]	; 0x2e
 8102138:	2b00      	cmp	r3, #0
 810213a:	d018      	beq.n	810216e <HAL_SPI_TransmitReceive+0x356>
      {
        *((__IO uint8_t *)&hspi->Instance->TXDR) = *((uint8_t *)hspi->pTxBuffPtr);
 810213c:	68fb      	ldr	r3, [r7, #12]
 810213e:	6dda      	ldr	r2, [r3, #92]	; 0x5c
 8102140:	68fb      	ldr	r3, [r7, #12]
 8102142:	681b      	ldr	r3, [r3, #0]
 8102144:	3320      	adds	r3, #32
 8102146:	7812      	ldrb	r2, [r2, #0]
 8102148:	701a      	strb	r2, [r3, #0]
        hspi->pTxBuffPtr += sizeof(uint8_t);
 810214a:	68fb      	ldr	r3, [r7, #12]
 810214c:	6ddb      	ldr	r3, [r3, #92]	; 0x5c
 810214e:	1c5a      	adds	r2, r3, #1
 8102150:	68fb      	ldr	r3, [r7, #12]
 8102152:	65da      	str	r2, [r3, #92]	; 0x5c
        hspi->TxXferCount--;
 8102154:	68fb      	ldr	r3, [r7, #12]
 8102156:	f8b3 3062 	ldrh.w	r3, [r3, #98]	; 0x62
 810215a:	b29b      	uxth	r3, r3
 810215c:	3b01      	subs	r3, #1
 810215e:	b29a      	uxth	r2, r3
 8102160:	68fb      	ldr	r3, [r7, #12]
 8102162:	f8a3 2062 	strh.w	r2, [r3, #98]	; 0x62
        initial_TxXferCount = hspi->TxXferCount;
 8102166:	68fb      	ldr	r3, [r7, #12]
 8102168:	f8b3 3062 	ldrh.w	r3, [r3, #98]	; 0x62
 810216c:	85fb      	strh	r3, [r7, #46]	; 0x2e
      }

      /* Check the RXP flag */
      if ((__HAL_SPI_GET_FLAG(hspi, SPI_FLAG_RXP)) && (initial_RxXferCount > 0UL))
 810216e:	68fb      	ldr	r3, [r7, #12]
 8102170:	681b      	ldr	r3, [r3, #0]
 8102172:	695b      	ldr	r3, [r3, #20]
 8102174:	f003 0301 	and.w	r3, r3, #1
 8102178:	2b01      	cmp	r3, #1
 810217a:	d11d      	bne.n	81021b8 <HAL_SPI_TransmitReceive+0x3a0>
 810217c:	8dbb      	ldrh	r3, [r7, #44]	; 0x2c
 810217e:	2b00      	cmp	r3, #0
 8102180:	d01a      	beq.n	81021b8 <HAL_SPI_TransmitReceive+0x3a0>
      {
        *((uint8_t *)hspi->pRxBuffPtr) = *((__IO uint8_t *)&hspi->Instance->RXDR);
 8102182:	68fb      	ldr	r3, [r7, #12]
 8102184:	681b      	ldr	r3, [r3, #0]
 8102186:	f103 0230 	add.w	r2, r3, #48	; 0x30
 810218a:	68fb      	ldr	r3, [r7, #12]
 810218c:	6e5b      	ldr	r3, [r3, #100]	; 0x64
 810218e:	7812      	ldrb	r2, [r2, #0]
 8102190:	b2d2      	uxtb	r2, r2
 8102192:	701a      	strb	r2, [r3, #0]
        hspi->pRxBuffPtr += sizeof(uint8_t);
 8102194:	68fb      	ldr	r3, [r7, #12]
 8102196:	6e5b      	ldr	r3, [r3, #100]	; 0x64
 8102198:	1c5a      	adds	r2, r3, #1
 810219a:	68fb      	ldr	r3, [r7, #12]
 810219c:	665a      	str	r2, [r3, #100]	; 0x64
        hspi->RxXferCount--;
 810219e:	68fb      	ldr	r3, [r7, #12]
 81021a0:	f8b3 306a 	ldrh.w	r3, [r3, #106]	; 0x6a
 81021a4:	b29b      	uxth	r3, r3
 81021a6:	3b01      	subs	r3, #1
 81021a8:	b29a      	uxth	r2, r3
 81021aa:	68fb      	ldr	r3, [r7, #12]
 81021ac:	f8a3 206a 	strh.w	r2, [r3, #106]	; 0x6a
        initial_RxXferCount = hspi->RxXferCount;
 81021b0:	68fb      	ldr	r3, [r7, #12]
 81021b2:	f8b3 306a 	ldrh.w	r3, [r3, #106]	; 0x6a
 81021b6:	85bb      	strh	r3, [r7, #44]	; 0x2c
      }

      /* Timeout management */
      if ((((HAL_GetTick() - tickstart) >=  Timeout) && (Timeout != HAL_MAX_DELAY)) || (Timeout == 0U))
 81021b8:	f7fe fd6e 	bl	8100c98 <HAL_GetTick>
 81021bc:	4602      	mov	r2, r0
 81021be:	69fb      	ldr	r3, [r7, #28]
 81021c0:	1ad3      	subs	r3, r2, r3
 81021c2:	6bba      	ldr	r2, [r7, #56]	; 0x38
 81021c4:	429a      	cmp	r2, r3
 81021c6:	d803      	bhi.n	81021d0 <HAL_SPI_TransmitReceive+0x3b8>
 81021c8:	6bbb      	ldr	r3, [r7, #56]	; 0x38
 81021ca:	f1b3 3fff 	cmp.w	r3, #4294967295
 81021ce:	d102      	bne.n	81021d6 <HAL_SPI_TransmitReceive+0x3be>
 81021d0:	6bbb      	ldr	r3, [r7, #56]	; 0x38
 81021d2:	2b00      	cmp	r3, #0
 81021d4:	d114      	bne.n	8102200 <HAL_SPI_TransmitReceive+0x3e8>
      {
        /* Call standard close procedure with error check */
        SPI_CloseTransfer(hspi);
 81021d6:	68f8      	ldr	r0, [r7, #12]
 81021d8:	f000 f843 	bl	8102262 <SPI_CloseTransfer>

        /* Unlock the process */
        __HAL_UNLOCK(hspi);
 81021dc:	68fb      	ldr	r3, [r7, #12]
 81021de:	2200      	movs	r2, #0
 81021e0:	f883 2080 	strb.w	r2, [r3, #128]	; 0x80

        SET_BIT(hspi->ErrorCode, HAL_SPI_ERROR_TIMEOUT);
 81021e4:	68fb      	ldr	r3, [r7, #12]
 81021e6:	f8d3 3084 	ldr.w	r3, [r3, #132]	; 0x84
 81021ea:	f443 7280 	orr.w	r2, r3, #256	; 0x100
 81021ee:	68fb      	ldr	r3, [r7, #12]
 81021f0:	f8c3 2084 	str.w	r2, [r3, #132]	; 0x84
        hspi->State = HAL_SPI_STATE_READY;
 81021f4:	68fb      	ldr	r3, [r7, #12]
 81021f6:	2201      	movs	r2, #1
 81021f8:	f883 2081 	strb.w	r2, [r3, #129]	; 0x81
        return HAL_TIMEOUT;
 81021fc:	2303      	movs	r3, #3
 81021fe:	e02c      	b.n	810225a <HAL_SPI_TransmitReceive+0x442>
    while ((initial_TxXferCount > 0UL) || (initial_RxXferCount > 0UL))
 8102200:	8dfb      	ldrh	r3, [r7, #46]	; 0x2e
 8102202:	2b00      	cmp	r3, #0
 8102204:	d190      	bne.n	8102128 <HAL_SPI_TransmitReceive+0x310>
 8102206:	8dbb      	ldrh	r3, [r7, #44]	; 0x2c
 8102208:	2b00      	cmp	r3, #0
 810220a:	d18d      	bne.n	8102128 <HAL_SPI_TransmitReceive+0x310>
      }
    }
  }

  /* Wait for Tx/Rx (and CRC) data to be sent/received */
  if (SPI_WaitOnFlagUntilTimeout(hspi, SPI_FLAG_EOT, RESET, tickstart, Timeout) != HAL_OK)
 810220c:	6bbb      	ldr	r3, [r7, #56]	; 0x38
 810220e:	9300      	str	r3, [sp, #0]
 8102210:	69fb      	ldr	r3, [r7, #28]
 8102212:	2200      	movs	r2, #0
 8102214:	2108      	movs	r1, #8
 8102216:	68f8      	ldr	r0, [r7, #12]
 8102218:	f000 f8c3 	bl	81023a2 <SPI_WaitOnFlagUntilTimeout>
 810221c:	4603      	mov	r3, r0
 810221e:	2b00      	cmp	r3, #0
 8102220:	d007      	beq.n	8102232 <HAL_SPI_TransmitReceive+0x41a>
  {
    SET_BIT(hspi->ErrorCode, HAL_SPI_ERROR_FLAG);
 8102222:	68fb      	ldr	r3, [r7, #12]
 8102224:	f8d3 3084 	ldr.w	r3, [r3, #132]	; 0x84
 8102228:	f043 0220 	orr.w	r2, r3, #32
 810222c:	68fb      	ldr	r3, [r7, #12]
 810222e:	f8c3 2084 	str.w	r2, [r3, #132]	; 0x84
  }

  /* Call standard close procedure with error check */
  SPI_CloseTransfer(hspi);
 8102232:	68f8      	ldr	r0, [r7, #12]
 8102234:	f000 f815 	bl	8102262 <SPI_CloseTransfer>

  /* Unlock the process */
  __HAL_UNLOCK(hspi);
 8102238:	68fb      	ldr	r3, [r7, #12]
 810223a:	2200      	movs	r2, #0
 810223c:	f883 2080 	strb.w	r2, [r3, #128]	; 0x80

  hspi->State = HAL_SPI_STATE_READY;
 8102240:	68fb      	ldr	r3, [r7, #12]
 8102242:	2201      	movs	r2, #1
 8102244:	f883 2081 	strb.w	r2, [r3, #129]	; 0x81

  if (hspi->ErrorCode != HAL_SPI_ERROR_NONE)
 8102248:	68fb      	ldr	r3, [r7, #12]
 810224a:	f8d3 3084 	ldr.w	r3, [r3, #132]	; 0x84
 810224e:	2b00      	cmp	r3, #0
 8102250:	d001      	beq.n	8102256 <HAL_SPI_TransmitReceive+0x43e>
  {
    return HAL_ERROR;
 8102252:	2301      	movs	r3, #1
 8102254:	e001      	b.n	810225a <HAL_SPI_TransmitReceive+0x442>
  }
  return errorcode;
 8102256:	f897 302b 	ldrb.w	r3, [r7, #43]	; 0x2b
}
 810225a:	4618      	mov	r0, r3
 810225c:	3730      	adds	r7, #48	; 0x30
 810225e:	46bd      	mov	sp, r7
 8102260:	bd80      	pop	{r7, pc}

08102262 <SPI_CloseTransfer>:
  *               the configuration information for SPI module.
  * @retval HAL_ERROR: if any error detected
  *         HAL_OK: if nothing detected
  */
static void SPI_CloseTransfer(SPI_HandleTypeDef *hspi)
{
 8102262:	b480      	push	{r7}
 8102264:	b085      	sub	sp, #20
 8102266:	af00      	add	r7, sp, #0
 8102268:	6078      	str	r0, [r7, #4]
  uint32_t itflag = hspi->Instance->SR;
 810226a:	687b      	ldr	r3, [r7, #4]
 810226c:	681b      	ldr	r3, [r3, #0]
 810226e:	695b      	ldr	r3, [r3, #20]
 8102270:	60fb      	str	r3, [r7, #12]

  __HAL_SPI_CLEAR_EOTFLAG(hspi);
 8102272:	687b      	ldr	r3, [r7, #4]
 8102274:	681b      	ldr	r3, [r3, #0]
 8102276:	699a      	ldr	r2, [r3, #24]
 8102278:	687b      	ldr	r3, [r7, #4]
 810227a:	681b      	ldr	r3, [r3, #0]
 810227c:	f042 0208 	orr.w	r2, r2, #8
 8102280:	619a      	str	r2, [r3, #24]
  __HAL_SPI_CLEAR_TXTFFLAG(hspi);
 8102282:	687b      	ldr	r3, [r7, #4]
 8102284:	681b      	ldr	r3, [r3, #0]
 8102286:	699a      	ldr	r2, [r3, #24]
 8102288:	687b      	ldr	r3, [r7, #4]
 810228a:	681b      	ldr	r3, [r3, #0]
 810228c:	f042 0210 	orr.w	r2, r2, #16
 8102290:	619a      	str	r2, [r3, #24]

  /* Disable SPI peripheral */
  __HAL_SPI_DISABLE(hspi);
 8102292:	687b      	ldr	r3, [r7, #4]
 8102294:	681b      	ldr	r3, [r3, #0]
 8102296:	681a      	ldr	r2, [r3, #0]
 8102298:	687b      	ldr	r3, [r7, #4]
 810229a:	681b      	ldr	r3, [r3, #0]
 810229c:	f022 0201 	bic.w	r2, r2, #1
 81022a0:	601a      	str	r2, [r3, #0]

  /* Disable ITs */
  __HAL_SPI_DISABLE_IT(hspi, (SPI_IT_EOT | SPI_IT_TXP | SPI_IT_RXP | SPI_IT_DXP | SPI_IT_UDR | SPI_IT_OVR | \
 81022a2:	687b      	ldr	r3, [r7, #4]
 81022a4:	681b      	ldr	r3, [r3, #0]
 81022a6:	691b      	ldr	r3, [r3, #16]
 81022a8:	687a      	ldr	r2, [r7, #4]
 81022aa:	6812      	ldr	r2, [r2, #0]
 81022ac:	f423 735b 	bic.w	r3, r3, #876	; 0x36c
 81022b0:	f023 0303 	bic.w	r3, r3, #3
 81022b4:	6113      	str	r3, [r2, #16]
                              SPI_IT_FRE | SPI_IT_MODF));

  /* Disable Tx DMA Request */
  CLEAR_BIT(hspi->Instance->CFG1, SPI_CFG1_TXDMAEN | SPI_CFG1_RXDMAEN);
 81022b6:	687b      	ldr	r3, [r7, #4]
 81022b8:	681b      	ldr	r3, [r3, #0]
 81022ba:	689a      	ldr	r2, [r3, #8]
 81022bc:	687b      	ldr	r3, [r7, #4]
 81022be:	681b      	ldr	r3, [r3, #0]
 81022c0:	f422 4240 	bic.w	r2, r2, #49152	; 0xc000
 81022c4:	609a      	str	r2, [r3, #8]

  /* Report UnderRun error for non RX Only communication */
  if (hspi->State != HAL_SPI_STATE_BUSY_RX)
 81022c6:	687b      	ldr	r3, [r7, #4]
 81022c8:	f893 3081 	ldrb.w	r3, [r3, #129]	; 0x81
 81022cc:	b2db      	uxtb	r3, r3
 81022ce:	2b04      	cmp	r3, #4
 81022d0:	d014      	beq.n	81022fc <SPI_CloseTransfer+0x9a>
  {
    if ((itflag & SPI_FLAG_UDR) != 0UL)
 81022d2:	68fb      	ldr	r3, [r7, #12]
 81022d4:	f003 0320 	and.w	r3, r3, #32
 81022d8:	2b00      	cmp	r3, #0
 81022da:	d00f      	beq.n	81022fc <SPI_CloseTransfer+0x9a>
    {
      SET_BIT(hspi->ErrorCode, HAL_SPI_ERROR_UDR);
 81022dc:	687b      	ldr	r3, [r7, #4]
 81022de:	f8d3 3084 	ldr.w	r3, [r3, #132]	; 0x84
 81022e2:	f043 0280 	orr.w	r2, r3, #128	; 0x80
 81022e6:	687b      	ldr	r3, [r7, #4]
 81022e8:	f8c3 2084 	str.w	r2, [r3, #132]	; 0x84
      __HAL_SPI_CLEAR_UDRFLAG(hspi);
 81022ec:	687b      	ldr	r3, [r7, #4]
 81022ee:	681b      	ldr	r3, [r3, #0]
 81022f0:	699a      	ldr	r2, [r3, #24]
 81022f2:	687b      	ldr	r3, [r7, #4]
 81022f4:	681b      	ldr	r3, [r3, #0]
 81022f6:	f042 0220 	orr.w	r2, r2, #32
 81022fa:	619a      	str	r2, [r3, #24]
    }
  }

  /* Report OverRun error for non TX Only communication */
  if (hspi->State != HAL_SPI_STATE_BUSY_TX)
 81022fc:	687b      	ldr	r3, [r7, #4]
 81022fe:	f893 3081 	ldrb.w	r3, [r3, #129]	; 0x81
 8102302:	b2db      	uxtb	r3, r3
 8102304:	2b03      	cmp	r3, #3
 8102306:	d014      	beq.n	8102332 <SPI_CloseTransfer+0xd0>
  {
    if ((itflag & SPI_FLAG_OVR) != 0UL)
 8102308:	68fb      	ldr	r3, [r7, #12]
 810230a:	f003 0340 	and.w	r3, r3, #64	; 0x40
 810230e:	2b00      	cmp	r3, #0
 8102310:	d00f      	beq.n	8102332 <SPI_CloseTransfer+0xd0>
    {
      SET_BIT(hspi->ErrorCode, HAL_SPI_ERROR_OVR);
 8102312:	687b      	ldr	r3, [r7, #4]
 8102314:	f8d3 3084 	ldr.w	r3, [r3, #132]	; 0x84
 8102318:	f043 0204 	orr.w	r2, r3, #4
 810231c:	687b      	ldr	r3, [r7, #4]
 810231e:	f8c3 2084 	str.w	r2, [r3, #132]	; 0x84
      __HAL_SPI_CLEAR_OVRFLAG(hspi);
 8102322:	687b      	ldr	r3, [r7, #4]
 8102324:	681b      	ldr	r3, [r3, #0]
 8102326:	699a      	ldr	r2, [r3, #24]
 8102328:	687b      	ldr	r3, [r7, #4]
 810232a:	681b      	ldr	r3, [r3, #0]
 810232c:	f042 0240 	orr.w	r2, r2, #64	; 0x40
 8102330:	619a      	str	r2, [r3, #24]
    }
#endif /* USE_SPI_CRC */
  }

  /* SPI Mode Fault error interrupt occurred -------------------------------*/
  if ((itflag & SPI_FLAG_MODF) != 0UL)
 8102332:	68fb      	ldr	r3, [r7, #12]
 8102334:	f403 7300 	and.w	r3, r3, #512	; 0x200
 8102338:	2b00      	cmp	r3, #0
 810233a:	d00f      	beq.n	810235c <SPI_CloseTransfer+0xfa>
  {
    SET_BIT(hspi->ErrorCode, HAL_SPI_ERROR_MODF);
 810233c:	687b      	ldr	r3, [r7, #4]
 810233e:	f8d3 3084 	ldr.w	r3, [r3, #132]	; 0x84
 8102342:	f043 0201 	orr.w	r2, r3, #1
 8102346:	687b      	ldr	r3, [r7, #4]
 8102348:	f8c3 2084 	str.w	r2, [r3, #132]	; 0x84
    __HAL_SPI_CLEAR_MODFFLAG(hspi);
 810234c:	687b      	ldr	r3, [r7, #4]
 810234e:	681b      	ldr	r3, [r3, #0]
 8102350:	699a      	ldr	r2, [r3, #24]
 8102352:	687b      	ldr	r3, [r7, #4]
 8102354:	681b      	ldr	r3, [r3, #0]
 8102356:	f442 7200 	orr.w	r2, r2, #512	; 0x200
 810235a:	619a      	str	r2, [r3, #24]
  }

  /* SPI Frame error interrupt occurred ------------------------------------*/
  if ((itflag & SPI_FLAG_FRE) != 0UL)
 810235c:	68fb      	ldr	r3, [r7, #12]
 810235e:	f403 7380 	and.w	r3, r3, #256	; 0x100
 8102362:	2b00      	cmp	r3, #0
 8102364:	d00f      	beq.n	8102386 <SPI_CloseTransfer+0x124>
  {
    SET_BIT(hspi->ErrorCode, HAL_SPI_ERROR_FRE);
 8102366:	687b      	ldr	r3, [r7, #4]
 8102368:	f8d3 3084 	ldr.w	r3, [r3, #132]	; 0x84
 810236c:	f043 0208 	orr.w	r2, r3, #8
 8102370:	687b      	ldr	r3, [r7, #4]
 8102372:	f8c3 2084 	str.w	r2, [r3, #132]	; 0x84
    __HAL_SPI_CLEAR_FREFLAG(hspi);
 8102376:	687b      	ldr	r3, [r7, #4]
 8102378:	681b      	ldr	r3, [r3, #0]
 810237a:	699a      	ldr	r2, [r3, #24]
 810237c:	687b      	ldr	r3, [r7, #4]
 810237e:	681b      	ldr	r3, [r3, #0]
 8102380:	f442 7280 	orr.w	r2, r2, #256	; 0x100
 8102384:	619a      	str	r2, [r3, #24]
  }

  hspi->TxXferCount = (uint16_t)0UL;
 8102386:	687b      	ldr	r3, [r7, #4]
 8102388:	2200      	movs	r2, #0
 810238a:	f8a3 2062 	strh.w	r2, [r3, #98]	; 0x62
  hspi->RxXferCount = (uint16_t)0UL;
 810238e:	687b      	ldr	r3, [r7, #4]
 8102390:	2200      	movs	r2, #0
 8102392:	f8a3 206a 	strh.w	r2, [r3, #106]	; 0x6a
}
 8102396:	bf00      	nop
 8102398:	3714      	adds	r7, #20
 810239a:	46bd      	mov	sp, r7
 810239c:	f85d 7b04 	ldr.w	r7, [sp], #4
 81023a0:	4770      	bx	lr

081023a2 <SPI_WaitOnFlagUntilTimeout>:
  * @param Tickstart: Tick start value
  * @retval HAL status
  */
static HAL_StatusTypeDef SPI_WaitOnFlagUntilTimeout(SPI_HandleTypeDef *hspi, uint32_t Flag, FlagStatus Status,
                                                    uint32_t Tickstart, uint32_t Timeout)
{
 81023a2:	b580      	push	{r7, lr}
 81023a4:	b084      	sub	sp, #16
 81023a6:	af00      	add	r7, sp, #0
 81023a8:	60f8      	str	r0, [r7, #12]
 81023aa:	60b9      	str	r1, [r7, #8]
 81023ac:	603b      	str	r3, [r7, #0]
 81023ae:	4613      	mov	r3, r2
 81023b0:	71fb      	strb	r3, [r7, #7]
  /* Wait until flag is set */
  while ((__HAL_SPI_GET_FLAG(hspi, Flag) ? SET : RESET) == Status)
 81023b2:	e010      	b.n	81023d6 <SPI_WaitOnFlagUntilTimeout+0x34>
  {
    /* Check for the Timeout */
    if ((((HAL_GetTick() - Tickstart) >=  Timeout) && (Timeout != HAL_MAX_DELAY)) || (Timeout == 0U))
 81023b4:	f7fe fc70 	bl	8100c98 <HAL_GetTick>
 81023b8:	4602      	mov	r2, r0
 81023ba:	683b      	ldr	r3, [r7, #0]
 81023bc:	1ad3      	subs	r3, r2, r3
 81023be:	69ba      	ldr	r2, [r7, #24]
 81023c0:	429a      	cmp	r2, r3
 81023c2:	d803      	bhi.n	81023cc <SPI_WaitOnFlagUntilTimeout+0x2a>
 81023c4:	69bb      	ldr	r3, [r7, #24]
 81023c6:	f1b3 3fff 	cmp.w	r3, #4294967295
 81023ca:	d102      	bne.n	81023d2 <SPI_WaitOnFlagUntilTimeout+0x30>
 81023cc:	69bb      	ldr	r3, [r7, #24]
 81023ce:	2b00      	cmp	r3, #0
 81023d0:	d101      	bne.n	81023d6 <SPI_WaitOnFlagUntilTimeout+0x34>
    {
      return HAL_TIMEOUT;
 81023d2:	2303      	movs	r3, #3
 81023d4:	e00f      	b.n	81023f6 <SPI_WaitOnFlagUntilTimeout+0x54>
  while ((__HAL_SPI_GET_FLAG(hspi, Flag) ? SET : RESET) == Status)
 81023d6:	68fb      	ldr	r3, [r7, #12]
 81023d8:	681b      	ldr	r3, [r3, #0]
 81023da:	695a      	ldr	r2, [r3, #20]
 81023dc:	68bb      	ldr	r3, [r7, #8]
 81023de:	4013      	ands	r3, r2
 81023e0:	68ba      	ldr	r2, [r7, #8]
 81023e2:	429a      	cmp	r2, r3
 81023e4:	bf0c      	ite	eq
 81023e6:	2301      	moveq	r3, #1
 81023e8:	2300      	movne	r3, #0
 81023ea:	b2db      	uxtb	r3, r3
 81023ec:	461a      	mov	r2, r3
 81023ee:	79fb      	ldrb	r3, [r7, #7]
 81023f0:	429a      	cmp	r2, r3
 81023f2:	d0df      	beq.n	81023b4 <SPI_WaitOnFlagUntilTimeout+0x12>
    }
  }
  return HAL_OK;
 81023f4:	2300      	movs	r3, #0
}
 81023f6:	4618      	mov	r0, r3
 81023f8:	3710      	adds	r7, #16
 81023fa:	46bd      	mov	sp, r7
 81023fc:	bd80      	pop	{r7, pc}
	...

08102400 <__libc_init_array>:
 8102400:	b570      	push	{r4, r5, r6, lr}
 8102402:	4d0d      	ldr	r5, [pc, #52]	; (8102438 <__libc_init_array+0x38>)
 8102404:	4c0d      	ldr	r4, [pc, #52]	; (810243c <__libc_init_array+0x3c>)
 8102406:	1b64      	subs	r4, r4, r5
 8102408:	10a4      	asrs	r4, r4, #2
 810240a:	2600      	movs	r6, #0
 810240c:	42a6      	cmp	r6, r4
 810240e:	d109      	bne.n	8102424 <__libc_init_array+0x24>
 8102410:	4d0b      	ldr	r5, [pc, #44]	; (8102440 <__libc_init_array+0x40>)
 8102412:	4c0c      	ldr	r4, [pc, #48]	; (8102444 <__libc_init_array+0x44>)
 8102414:	f000 f818 	bl	8102448 <_init>
 8102418:	1b64      	subs	r4, r4, r5
 810241a:	10a4      	asrs	r4, r4, #2
 810241c:	2600      	movs	r6, #0
 810241e:	42a6      	cmp	r6, r4
 8102420:	d105      	bne.n	810242e <__libc_init_array+0x2e>
 8102422:	bd70      	pop	{r4, r5, r6, pc}
 8102424:	f855 3b04 	ldr.w	r3, [r5], #4
 8102428:	4798      	blx	r3
 810242a:	3601      	adds	r6, #1
 810242c:	e7ee      	b.n	810240c <__libc_init_array+0xc>
 810242e:	f855 3b04 	ldr.w	r3, [r5], #4
 8102432:	4798      	blx	r3
 8102434:	3601      	adds	r6, #1
 8102436:	e7f2      	b.n	810241e <__libc_init_array+0x1e>
 8102438:	08102470 	.word	0x08102470
 810243c:	08102470 	.word	0x08102470
 8102440:	08102470 	.word	0x08102470
 8102444:	08102474 	.word	0x08102474

08102448 <_init>:
 8102448:	b5f8      	push	{r3, r4, r5, r6, r7, lr}
 810244a:	bf00      	nop
 810244c:	bcf8      	pop	{r3, r4, r5, r6, r7}
 810244e:	bc08      	pop	{r3}
 8102450:	469e      	mov	lr, r3
 8102452:	4770      	bx	lr

08102454 <_fini>:
 8102454:	b5f8      	push	{r3, r4, r5, r6, r7, lr}
 8102456:	bf00      	nop
 8102458:	bcf8      	pop	{r3, r4, r5, r6, r7}
 810245a:	bc08      	pop	{r3}
 810245c:	469e      	mov	lr, r3
 810245e:	4770      	bx	lr
